ARM GAS  C:\Users\bchir\AppData\Local\Temp\ccvFPSqZ.s 			page 1


   1              		.syntax unified
   2              		.cpu cortex-m3
   3              		.fpu softvfp
   4              		.eabi_attribute 20, 1
   5              		.eabi_attribute 21, 1
   6              		.eabi_attribute 23, 3
   7              		.eabi_attribute 24, 1
   8              		.eabi_attribute 25, 1
   9              		.eabi_attribute 26, 1
  10              		.eabi_attribute 30, 1
  11              		.eabi_attribute 34, 1
  12              		.eabi_attribute 18, 4
  13              		.thumb
  14              		.syntax unified
  15              		.file	"BluetoothComms.c"
  16              		.text
  17              	.Ltext0:
  18              		.cfi_sections	.debug_frame
  19              		.section	.text.TaskBluetoothComms,"ax",%progbits
  20              		.align	2
  21              		.thumb
  22              		.thumb_func
  23              		.type	TaskBluetoothComms, %function
  24              	TaskBluetoothComms:
  25              	.LFB68:
  26              		.file 1 "BluetoothComms.c"
   1:BluetoothComms.c **** /* ========================================
   2:BluetoothComms.c ****  *
   3:BluetoothComms.c ****  * Copyright YOUR COMPANY, THE YEAR
   4:BluetoothComms.c ****  * All Rights Reserved
   5:BluetoothComms.c ****  * UNPUBLISHED, LICENSED SOFTWARE.
   6:BluetoothComms.c ****  *
   7:BluetoothComms.c ****  * CONFIDENTIAL AND PROPRIETARY INFORMATION
   8:BluetoothComms.c ****  * WHICH IS THE PROPERTY OF your company.
   9:BluetoothComms.c ****  *
  10:BluetoothComms.c ****  * ========================================
  11:BluetoothComms.c **** */
  12:BluetoothComms.c **** 
  13:BluetoothComms.c **** #include "BluetoothComms.h"
  14:BluetoothComms.c **** #include "MessageConstructor.h"
  15:BluetoothComms.c **** 
  16:BluetoothComms.c **** 
  17:BluetoothComms.c **** extern uint8_t bluetoothDataAvailable;
  18:BluetoothComms.c **** extern BluetoothUartMsg_t bluetoothISRDataBuff[64];
  19:BluetoothComms.c **** extern uint64_t bluetoothMsgCount;
  20:BluetoothComms.c **** 
  21:BluetoothComms.c **** uint8_t bluetoothUserDataBuff[64];
  22:BluetoothComms.c **** 
  23:BluetoothComms.c **** TickType_t bluetoothRecTimeout_ms = 5;
  24:BluetoothComms.c **** 
  25:BluetoothComms.c **** 
  26:BluetoothComms.c **** TaskHandle_t xHandle = NULL;
  27:BluetoothComms.c **** 
  28:BluetoothComms.c **** 
  29:BluetoothComms.c **** 
  30:BluetoothComms.c **** static void TaskBluetoothComms( void *pvParameters )
  31:BluetoothComms.c **** {
ARM GAS  C:\Users\bchir\AppData\Local\Temp\ccvFPSqZ.s 			page 2


  27              		.loc 1 31 0
  28              		.cfi_startproc
  29              		@ args = 0, pretend = 0, frame = 0
  30              		@ frame_needed = 0, uses_anonymous_args = 0
  31              	.LVL0:
  32 0000 08B5     		push	{r3, lr}
  33              		.cfi_def_cfa_offset 8
  34              		.cfi_offset 3, -8
  35              		.cfi_offset 14, -4
  32:BluetoothComms.c **** 	
  33:BluetoothComms.c ****     (void)pvParameters;
  34:BluetoothComms.c ****     
  35:BluetoothComms.c ****     //IntBluetoothUART_Start();
  36:BluetoothComms.c ****     
  37:BluetoothComms.c ****     BluetoothUART_Start();
  36              		.loc 1 37 0
  37 0002 FFF7FEFF 		bl	BluetoothUART_Start
  38              	.LVL1:
  38:BluetoothComms.c ****     IntBluetoothUART_Start();
  39              		.loc 1 38 0
  40 0006 FFF7FEFF 		bl	IntBluetoothUART_Start
  41              	.LVL2:
  39:BluetoothComms.c ****     Clock_1_Start();
  42              		.loc 1 39 0
  43 000a FFF7FEFF 		bl	Clock_1_Start
  44              	.LVL3:
  40:BluetoothComms.c ****     Clock_2_Start();
  45              		.loc 1 40 0
  46 000e FFF7FEFF 		bl	Clock_2_Start
  47              	.LVL4:
  41:BluetoothComms.c ****     Counter_1_Start();
  48              		.loc 1 41 0
  49 0012 FFF7FEFF 		bl	Counter_1_Start
  50              	.LVL5:
  51              	.L2:
  52              	.LBB2:
  42:BluetoothComms.c ****      
  43:BluetoothComms.c ****     uint16_t errorLog = 0;
  44:BluetoothComms.c ****     uint8_t readData = 0;
  45:BluetoothComms.c ****     uint32_t awoken = 0;
  46:BluetoothComms.c ****     
  47:BluetoothComms.c ****     for( ;; )
  48:BluetoothComms.c **** 	{
  49:BluetoothComms.c ****         BaseType_t xHigherPriorityTaskWoken = pdFALSE;
  50:BluetoothComms.c ****      
  51:BluetoothComms.c ****         ulTaskNotifyTake( pdTRUE, pdMS_TO_TICKS( bluetoothRecTimeout_ms ) );
  53              		.loc 1 51 0
  54 0016 124B     		ldr	r3, .L5
  55 0018 1A68     		ldr	r2, [r3]
  56 001a 4FF47A73 		mov	r3, #1000
  57 001e 03FB02F2 		mul	r2, r3, r2
  58 0022 104B     		ldr	r3, .L5+4
  59 0024 A3FB0232 		umull	r3, r2, r3, r2
  60 0028 9209     		lsrs	r2, r2, #6
  61 002a 0121     		movs	r1, #1
  62 002c 0020     		movs	r0, #0
  63 002e FFF7FEFF 		bl	ulTaskGenericNotifyTake
ARM GAS  C:\Users\bchir\AppData\Local\Temp\ccvFPSqZ.s 			page 3


  64              	.LVL6:
  52:BluetoothComms.c ****         
  53:BluetoothComms.c ****         if( bluetoothDataAvailable ==0 ) continue;
  65              		.loc 1 53 0
  66 0032 0D4B     		ldr	r3, .L5+8
  67 0034 1B78     		ldrb	r3, [r3]	@ zero_extendqisi2
  68 0036 002B     		cmp	r3, #0
  69 0038 EDD0     		beq	.L2
  54:BluetoothComms.c **** 
  55:BluetoothComms.c ****         bluetoothUserDataBuff[ bluetoothMsgCount -1] = bluetoothISRDataBuff[ bluetoothMsgCount -1 ]
  70              		.loc 1 55 0
  71 003a 0C4B     		ldr	r3, .L5+12
  72 003c D3E90023 		ldrd	r2, [r3]
  73 0040 12F1FF32 		adds	r2, r2, #-1
  74 0044 02EB4201 		add	r1, r2, r2, lsl #1
  75 0048 8B00     		lsls	r3, r1, #2
  76 004a 0949     		ldr	r1, .L5+16
  77 004c C85C     		ldrb	r0, [r1, r3]	@ zero_extendqisi2
  78 004e 094B     		ldr	r3, .L5+20
  79 0050 1A44     		add	r2, r2, r3
  80 0052 1070     		strb	r0, [r2]
  56:BluetoothComms.c ****           
  57:BluetoothComms.c ****         BluetoothUART_WriteTxData(bluetoothUserDataBuff[ bluetoothMsgCount -1 ]);
  81              		.loc 1 57 0
  82 0054 FFF7FEFF 		bl	BluetoothUART_WriteTxData
  83              	.LVL7:
  58:BluetoothComms.c ****         bluetoothDataAvailable = 0;
  84              		.loc 1 58 0
  85 0058 0022     		movs	r2, #0
  86 005a 034B     		ldr	r3, .L5+8
  87 005c 1A70     		strb	r2, [r3]
  88 005e DAE7     		b	.L2
  89              	.L6:
  90              		.align	2
  91              	.L5:
  92 0060 00000000 		.word	.LANCHOR0
  93 0064 D34D6210 		.word	274877907
  94 0068 00000000 		.word	bluetoothDataAvailable
  95 006c 00000000 		.word	bluetoothMsgCount
  96 0070 00000000 		.word	bluetoothISRDataBuff
  97 0074 00000000 		.word	bluetoothUserDataBuff
  98              	.LBE2:
  99              		.cfi_endproc
 100              	.LFE68:
 101              		.size	TaskBluetoothComms, .-TaskBluetoothComms
 102              		.section	.text.getBluetoothCommsTaskHandle,"ax",%progbits
 103              		.align	2
 104              		.global	getBluetoothCommsTaskHandle
 105              		.thumb
 106              		.thumb_func
 107              		.type	getBluetoothCommsTaskHandle, %function
 108              	getBluetoothCommsTaskHandle:
 109              	.LFB69:
  59:BluetoothComms.c ****        
  60:BluetoothComms.c ****     }
  61:BluetoothComms.c **** }
  62:BluetoothComms.c **** 
ARM GAS  C:\Users\bchir\AppData\Local\Temp\ccvFPSqZ.s 			page 4


  63:BluetoothComms.c **** TaskHandle_t getBluetoothCommsTaskHandle()
  64:BluetoothComms.c **** {
 110              		.loc 1 64 0
 111              		.cfi_startproc
 112              		@ args = 0, pretend = 0, frame = 0
 113              		@ frame_needed = 0, uses_anonymous_args = 0
 114              		@ link register save eliminated.
  65:BluetoothComms.c ****     
  66:BluetoothComms.c ****     return xHandle; 
  67:BluetoothComms.c **** }
 115              		.loc 1 67 0
 116 0000 014B     		ldr	r3, .L8
 117 0002 1868     		ldr	r0, [r3]
 118 0004 7047     		bx	lr
 119              	.L9:
 120 0006 00BF     		.align	2
 121              	.L8:
 122 0008 00000000 		.word	.LANCHOR1
 123              		.cfi_endproc
 124              	.LFE69:
 125              		.size	getBluetoothCommsTaskHandle, .-getBluetoothCommsTaskHandle
 126              		.section	.text.startTaskBluetoothComms,"ax",%progbits
 127              		.align	2
 128              		.global	startTaskBluetoothComms
 129              		.thumb
 130              		.thumb_func
 131              		.type	startTaskBluetoothComms, %function
 132              	startTaskBluetoothComms:
 133              	.LFB70:
  68:BluetoothComms.c **** 
  69:BluetoothComms.c **** 
  70:BluetoothComms.c **** void startTaskBluetoothComms()
  71:BluetoothComms.c **** {
 134              		.loc 1 71 0
 135              		.cfi_startproc
 136              		@ args = 0, pretend = 0, frame = 0
 137              		@ frame_needed = 0, uses_anonymous_args = 0
 138 0000 00B5     		push	{lr}
 139              		.cfi_def_cfa_offset 4
 140              		.cfi_offset 14, -4
 141 0002 83B0     		sub	sp, sp, #12
 142              		.cfi_def_cfa_offset 16
  72:BluetoothComms.c ****     
  73:BluetoothComms.c ****     /* Create the task, storing the handle. */ 
  74:BluetoothComms.c **** 	xTaskCreate(
 143              		.loc 1 74 0
 144 0004 064B     		ldr	r3, .L12
 145 0006 0193     		str	r3, [sp, #4]
 146 0008 0023     		movs	r3, #0
 147 000a 0093     		str	r3, [sp]
 148 000c 0123     		movs	r3, #1
 149 000e 8022     		movs	r2, #128
 150 0010 0449     		ldr	r1, .L12+4
 151 0012 0548     		ldr	r0, .L12+8
 152 0014 FFF7FEFF 		bl	xTaskCreate
 153              	.LVL8:
  75:BluetoothComms.c **** 		TaskBluetoothComms,      /* Function that implements the task. */ 
ARM GAS  C:\Users\bchir\AppData\Local\Temp\ccvFPSqZ.s 			page 5


  76:BluetoothComms.c **** 		"taskUserCodeGenerator",    /* Text name for the task. */ 
  77:BluetoothComms.c **** 		128,                        /* Stack size in words, not bytes. */ 
  78:BluetoothComms.c **** 		( void * ) 1,               /* Parameter passed into the task. */ 
  79:BluetoothComms.c **** 		tskIDLE_PRIORITY,           /* Priority at which the task is created. */ 
  80:BluetoothComms.c **** 	&xHandle );                     /* Used to pass out the created task's handle. */ 
  81:BluetoothComms.c ****     
  82:BluetoothComms.c **** }
 154              		.loc 1 82 0
 155 0018 03B0     		add	sp, sp, #12
 156              		.cfi_def_cfa_offset 4
 157              		@ sp needed
 158 001a 5DF804FB 		ldr	pc, [sp], #4
 159              	.L13:
 160 001e 00BF     		.align	2
 161              	.L12:
 162 0020 00000000 		.word	.LANCHOR1
 163 0024 00000000 		.word	.LC0
 164 0028 00000000 		.word	TaskBluetoothComms
 165              		.cfi_endproc
 166              	.LFE70:
 167              		.size	startTaskBluetoothComms, .-startTaskBluetoothComms
 168              		.global	xHandle
 169              		.global	bluetoothRecTimeout_ms
 170              		.comm	bluetoothUserDataBuff,64,4
 171              		.data
 172              		.align	2
 173              		.set	.LANCHOR0,. + 0
 174              		.type	bluetoothRecTimeout_ms, %object
 175              		.size	bluetoothRecTimeout_ms, 4
 176              	bluetoothRecTimeout_ms:
 177 0000 05000000 		.word	5
 178              		.section	.rodata.str1.4,"aMS",%progbits,1
 179              		.align	2
 180              	.LC0:
 181 0000 7461736B 		.ascii	"taskUserCodeGenerator\000"
 181      55736572 
 181      436F6465 
 181      47656E65 
 181      7261746F 
 182              		.bss
 183              		.align	2
 184              		.set	.LANCHOR1,. + 0
 185              		.type	xHandle, %object
 186              		.size	xHandle, 4
 187              	xHandle:
 188 0000 00000000 		.space	4
 189              		.text
 190              	.Letext0:
 191              		.file 2 "c:\\program files (x86)\\cypress\\psoc creator\\4.4\\psoc creator\\import\\gnu\\arm\\5.4.
 192              		.file 3 "c:\\program files (x86)\\cypress\\psoc creator\\4.4\\psoc creator\\import\\gnu\\arm\\5.4.
 193              		.file 4 "..\\..\\..\\FreeRTOS\\FreeRTOS-Kernel\\portable\\GCC\\ARM_CM3/portmacro.h"
 194              		.file 5 "..\\..\\..\\FreeRTOS\\FreeRTOS-Kernel\\include/task.h"
 195              		.file 6 "BluetoothComms.h"
 196              		.file 7 "Generated_Source\\PSoC5/core_cm3.h"
 197              		.file 8 "Generated_Source\\PSoC5/BluetoothUART.h"
 198              		.file 9 "Generated_Source\\PSoC5/IntBluetoothUART.h"
 199              		.file 10 "Generated_Source\\PSoC5/Clock_1.h"
ARM GAS  C:\Users\bchir\AppData\Local\Temp\ccvFPSqZ.s 			page 6


 200              		.file 11 "Generated_Source\\PSoC5/Clock_2.h"
 201              		.file 12 "Generated_Source\\PSoC5/Counter_1.h"