ARM GAS  C:\Users\bchir\AppData\Local\Temp\ccxpyzal.s 			page 1


   1              		.syntax unified
   2              		.cpu cortex-m3
   3              		.fpu softvfp
   4              		.eabi_attribute 20, 1
   5              		.eabi_attribute 21, 1
   6              		.eabi_attribute 23, 3
   7              		.eabi_attribute 24, 1
   8              		.eabi_attribute 25, 1
   9              		.eabi_attribute 26, 1
  10              		.eabi_attribute 30, 1
  11              		.eabi_attribute 34, 1
  12              		.eabi_attribute 18, 4
  13              		.thumb
  14              		.syntax unified
  15              		.file	"ExampleTasks.c"
  16              		.text
  17              	.Ltext0:
  18              		.cfi_sections	.debug_frame
  19              		.section	.text.taskLedBlink,"ax",%progbits
  20              		.align	2
  21              		.thumb
  22              		.thumb_func
  23              		.type	taskLedBlink, %function
  24              	taskLedBlink:
  25              	.LFB69:
  26              		.file 1 "ExampleTasks.c"
   1:ExampleTasks.c **** /* ========================================
   2:ExampleTasks.c ****  *
   3:ExampleTasks.c ****  * Copyright YOUR COMPANY, THE YEAR
   4:ExampleTasks.c ****  * All Rights Reserved
   5:ExampleTasks.c ****  * UNPUBLISHED, LICENSED SOFTWARE.
   6:ExampleTasks.c ****  *
   7:ExampleTasks.c ****  * CONFIDENTIAL AND PROPRIETARY INFORMATION
   8:ExampleTasks.c ****  * WHICH IS THE PROPERTY OF your company.
   9:ExampleTasks.c ****  *
  10:ExampleTasks.c ****  * ========================================
  11:ExampleTasks.c **** */
  12:ExampleTasks.c **** 
  13:ExampleTasks.c **** 
  14:ExampleTasks.c **** #include "ExampleTasks.h"
  15:ExampleTasks.c **** #include <time.h>
  16:ExampleTasks.c **** #include <stdlib.h>
  17:ExampleTasks.c **** 
  18:ExampleTasks.c **** #define MIN(a,b) (((a)<(b))?(a):(b))
  19:ExampleTasks.c **** 
  20:ExampleTasks.c **** static volatile int pushButtonInterruptCounter = 0;
  21:ExampleTasks.c **** 
  22:ExampleTasks.c **** static void ledControlFunction();
  23:ExampleTasks.c **** static void taskLedBlink( void *pvParameters );
  24:ExampleTasks.c **** static void taskPushButtonInterrupt( void *pvParameters );
  25:ExampleTasks.c **** static void taskUserCodeGenerator( void *pvParameters );
  26:ExampleTasks.c **** 
  27:ExampleTasks.c **** CY_ISR(pushButtonInterrupt){
  28:ExampleTasks.c ****     
  29:ExampleTasks.c ****     
  30:ExampleTasks.c ****     if(pushButtonInterruptCounter % 2 == 0 )
  31:ExampleTasks.c ****     {
ARM GAS  C:\Users\bchir\AppData\Local\Temp\ccxpyzal.s 			page 2


  32:ExampleTasks.c ****         
  33:ExampleTasks.c ****         pushButtonInterruptCounter = 1;
  34:ExampleTasks.c ****     }
  35:ExampleTasks.c ****     else
  36:ExampleTasks.c ****     {
  37:ExampleTasks.c ****         pushButtonInterruptCounter = 0;    
  38:ExampleTasks.c ****     }
  39:ExampleTasks.c ****     
  40:ExampleTasks.c **** }
  41:ExampleTasks.c **** 
  42:ExampleTasks.c **** static void taskLedBlink( void *pvParameters )
  43:ExampleTasks.c **** {
  27              		.loc 1 43 0
  28              		.cfi_startproc
  29              		@ Volatile: function does not return.
  30              		@ args = 0, pretend = 0, frame = 0
  31              		@ frame_needed = 0, uses_anonymous_args = 0
  32              	.LVL0:
  33 0000 08B5     		push	{r3, lr}
  34              		.cfi_def_cfa_offset 8
  35              		.cfi_offset 3, -8
  36              		.cfi_offset 14, -4
  37              	.LVL1:
  38              	.L2:
  44:ExampleTasks.c **** 	
  45:ExampleTasks.c ****     (void)pvParameters;
  46:ExampleTasks.c ****     
  47:ExampleTasks.c **** 	for( ;; )
  48:ExampleTasks.c **** 	{
  49:ExampleTasks.c **** 		ledControlFunction();
  50:ExampleTasks.c ****         vTaskDelay(1);
  39              		.loc 1 50 0 discriminator 1
  40 0002 0120     		movs	r0, #1
  41 0004 FFF7FEFF 		bl	vTaskDelay
  42              	.LVL2:
  43 0008 FBE7     		b	.L2
  44              		.cfi_endproc
  45              	.LFE69:
  46              		.size	taskLedBlink, .-taskLedBlink
  47 000a 00BF     		.section	.text.pushButtonInterrupt,"ax",%progbits
  48              		.align	2
  49              		.global	pushButtonInterrupt
  50              		.thumb
  51              		.thumb_func
  52              		.type	pushButtonInterrupt, %function
  53              	pushButtonInterrupt:
  54              	.LFB68:
  27:ExampleTasks.c ****     
  55              		.loc 1 27 0
  56              		.cfi_startproc
  57              		@ args = 0, pretend = 0, frame = 0
  58              		@ frame_needed = 0, uses_anonymous_args = 0
  59              		@ link register save eliminated.
  30:ExampleTasks.c ****     {
  60              		.loc 1 30 0
  61 0000 064B     		ldr	r3, .L7
  62 0002 1B68     		ldr	r3, [r3]
ARM GAS  C:\Users\bchir\AppData\Local\Temp\ccxpyzal.s 			page 3


  63 0004 13F0010F 		tst	r3, #1
  64 0008 03D1     		bne	.L5
  33:ExampleTasks.c ****     }
  65              		.loc 1 33 0
  66 000a 0122     		movs	r2, #1
  67 000c 034B     		ldr	r3, .L7
  68 000e 1A60     		str	r2, [r3]
  69 0010 7047     		bx	lr
  70              	.L5:
  37:ExampleTasks.c ****     }
  71              		.loc 1 37 0
  72 0012 0022     		movs	r2, #0
  73 0014 014B     		ldr	r3, .L7
  74 0016 1A60     		str	r2, [r3]
  75 0018 7047     		bx	lr
  76              	.L8:
  77 001a 00BF     		.align	2
  78              	.L7:
  79 001c 00000000 		.word	.LANCHOR0
  80              		.cfi_endproc
  81              	.LFE68:
  82              		.size	pushButtonInterrupt, .-pushButtonInterrupt
  83              		.section	.text.startTaskLedBlink,"ax",%progbits
  84              		.align	2
  85              		.global	startTaskLedBlink
  86              		.thumb
  87              		.thumb_func
  88              		.type	startTaskLedBlink, %function
  89              	startTaskLedBlink:
  90              	.LFB72:
  51:ExampleTasks.c **** 	}
  52:ExampleTasks.c **** 	
  53:ExampleTasks.c **** 	/* Tasks must not attempt to return from their implementing
  54:ExampleTasks.c **** 		function or otherwise exit.  In newer FreeRTOS port
  55:ExampleTasks.c **** 		attempting to do so will result in an configASSERT() being
  56:ExampleTasks.c **** 		called if it is defined.  If it is necessary for a task to
  57:ExampleTasks.c **** 		exit then have the task call vTaskDelete( NULL ) to ensure
  58:ExampleTasks.c **** 	its exit is clean. */
  59:ExampleTasks.c **** 	vTaskDelete( NULL );
  60:ExampleTasks.c **** }
  61:ExampleTasks.c **** 
  62:ExampleTasks.c **** static void taskPushButtonInterrupt( void *pvParameters )
  63:ExampleTasks.c **** {
  64:ExampleTasks.c **** 	
  65:ExampleTasks.c ****     (void)pvParameters;
  66:ExampleTasks.c ****     
  67:ExampleTasks.c ****     for( ;; )
  68:ExampleTasks.c **** 	{
  69:ExampleTasks.c ****         
  70:ExampleTasks.c ****         vTaskDelay(1);
  71:ExampleTasks.c **** 		        
  72:ExampleTasks.c ****     }
  73:ExampleTasks.c **** 		
  74:ExampleTasks.c **** 	vTaskDelete( NULL );
  75:ExampleTasks.c **** }
  76:ExampleTasks.c **** 
  77:ExampleTasks.c **** static void ledControlFunction()
ARM GAS  C:\Users\bchir\AppData\Local\Temp\ccxpyzal.s 			page 4


  78:ExampleTasks.c **** {
  79:ExampleTasks.c **** 
  80:ExampleTasks.c **** }
  81:ExampleTasks.c **** 
  82:ExampleTasks.c **** void startTaskLedBlink()
  83:ExampleTasks.c **** {
  91              		.loc 1 83 0
  92              		.cfi_startproc
  93              		@ args = 0, pretend = 0, frame = 8
  94              		@ frame_needed = 0, uses_anonymous_args = 0
  95 0000 00B5     		push	{lr}
  96              		.cfi_def_cfa_offset 4
  97              		.cfi_offset 14, -4
  98 0002 85B0     		sub	sp, sp, #20
  99              		.cfi_def_cfa_offset 24
  84:ExampleTasks.c ****     
  85:ExampleTasks.c ****     TaskHandle_t xHandle = NULL;
 100              		.loc 1 85 0
 101 0004 0022     		movs	r2, #0
 102 0006 04AB     		add	r3, sp, #16
 103 0008 43F8042D 		str	r2, [r3, #-4]!
  86:ExampleTasks.c ****  	/* Create the task, storing the handle. */ 
  87:ExampleTasks.c **** 	xTaskCreate(
 104              		.loc 1 87 0
 105 000c 0193     		str	r3, [sp, #4]
 106 000e 0092     		str	r2, [sp]
 107 0010 0123     		movs	r3, #1
 108 0012 8022     		movs	r2, #128
 109 0014 0349     		ldr	r1, .L11
 110 0016 0448     		ldr	r0, .L11+4
 111 0018 FFF7FEFF 		bl	xTaskCreate
 112              	.LVL3:
  88:ExampleTasks.c **** 		taskLedBlink,               /* Function that implements the task. */ 
  89:ExampleTasks.c **** 		"LedBlink",                 /* Text name for the task. */ 
  90:ExampleTasks.c **** 		128,                        /* Stack size in words, not bytes. */ 
  91:ExampleTasks.c **** 		( void * ) 1,               /* Parameter passed into the task. */ 
  92:ExampleTasks.c **** 		tskIDLE_PRIORITY,           /* Priority at which the task is created. */ 
  93:ExampleTasks.c **** 	&xHandle );                     /* Used to pass out the created task's handle. */
  94:ExampleTasks.c ****     
  95:ExampleTasks.c ****   
  96:ExampleTasks.c **** }
 113              		.loc 1 96 0
 114 001c 05B0     		add	sp, sp, #20
 115              		.cfi_def_cfa_offset 4
 116              		@ sp needed
 117 001e 5DF804FB 		ldr	pc, [sp], #4
 118              	.L12:
 119 0022 00BF     		.align	2
 120              	.L11:
 121 0024 00000000 		.word	.LC0
 122 0028 00000000 		.word	taskLedBlink
 123              		.cfi_endproc
 124              	.LFE72:
 125              		.size	startTaskLedBlink, .-startTaskLedBlink
 126              		.section	.rodata.str1.4,"aMS",%progbits,1
 127              		.align	2
 128              	.LC0:
ARM GAS  C:\Users\bchir\AppData\Local\Temp\ccxpyzal.s 			page 5


 129 0000 4C656442 		.ascii	"LedBlink\000"
 129      6C696E6B 
 129      00
 130              		.bss
 131              		.align	2
 132              		.set	.LANCHOR0,. + 0
 133              		.type	pushButtonInterruptCounter, %object
 134              		.size	pushButtonInterruptCounter, 4
 135              	pushButtonInterruptCounter:
 136 0000 00000000 		.space	4
 137              		.text
 138              	.Letext0:
 139              		.file 2 "c:\\program files (x86)\\cypress\\psoc creator\\4.4\\psoc creator\\import\\gnu\\arm\\5.4.
 140              		.file 3 "c:\\program files (x86)\\cypress\\psoc creator\\4.4\\psoc creator\\import\\gnu\\arm\\5.4.
 141              		.file 4 "..\\..\\..\\FreeRTOS\\FreeRTOS-Kernel\\portable\\GCC\\ARM_CM3/portmacro.h"
 142              		.file 5 "..\\..\\..\\FreeRTOS\\FreeRTOS-Kernel\\include/task.h"
 143              		.file 6 "Generated_Source\\PSoC5/core_cm3.h"