ARM GAS  C:\Users\bchir\AppData\Local\Temp\ccGiojEd.s 			page 1


   1              		.syntax unified
   2              		.cpu cortex-m3
   3              		.fpu softvfp
   4              		.eabi_attribute 20, 1
   5              		.eabi_attribute 21, 1
   6              		.eabi_attribute 23, 3
   7              		.eabi_attribute 24, 1
   8              		.eabi_attribute 25, 1
   9              		.eabi_attribute 26, 1
  10              		.eabi_attribute 30, 1
  11              		.eabi_attribute 34, 1
  12              		.eabi_attribute 18, 4
  13              		.thumb
  14              		.syntax unified
  15              		.file	"heap_1.c"
  16              		.text
  17              	.Ltext0:
  18              		.cfi_sections	.debug_frame
  19              		.section	.text.pvPortMalloc,"ax",%progbits
  20              		.align	2
  21              		.global	pvPortMalloc
  22              		.thumb
  23              		.thumb_func
  24              		.type	pvPortMalloc, %function
  25              	pvPortMalloc:
  26              	.LFB68:
  27              		.file 1 "..\\..\\..\\FreeRTOS\\FreeRTOS-Kernel\\portable\\MemMang\\heap_1.c"
   1:..\..\..\FreeRTOS\FreeRTOS-Kernel\portable\MemMang/heap_1.c **** /*
   2:..\..\..\FreeRTOS\FreeRTOS-Kernel\portable\MemMang/heap_1.c ****  * FreeRTOS Kernel <DEVELOPMENT BRANCH>
   3:..\..\..\FreeRTOS\FreeRTOS-Kernel\portable\MemMang/heap_1.c ****  * Copyright (C) 2021 Amazon.com, Inc. or its affiliates.  All Rights Reserved.
   4:..\..\..\FreeRTOS\FreeRTOS-Kernel\portable\MemMang/heap_1.c ****  *
   5:..\..\..\FreeRTOS\FreeRTOS-Kernel\portable\MemMang/heap_1.c ****  * SPDX-License-Identifier: MIT
   6:..\..\..\FreeRTOS\FreeRTOS-Kernel\portable\MemMang/heap_1.c ****  *
   7:..\..\..\FreeRTOS\FreeRTOS-Kernel\portable\MemMang/heap_1.c ****  * Permission is hereby granted, free of charge, to any person obtaining a copy of
   8:..\..\..\FreeRTOS\FreeRTOS-Kernel\portable\MemMang/heap_1.c ****  * this software and associated documentation files (the "Software"), to deal in
   9:..\..\..\FreeRTOS\FreeRTOS-Kernel\portable\MemMang/heap_1.c ****  * the Software without restriction, including without limitation the rights to
  10:..\..\..\FreeRTOS\FreeRTOS-Kernel\portable\MemMang/heap_1.c ****  * use, copy, modify, merge, publish, distribute, sublicense, and/or sell copies of
  11:..\..\..\FreeRTOS\FreeRTOS-Kernel\portable\MemMang/heap_1.c ****  * the Software, and to permit persons to whom the Software is furnished to do so,
  12:..\..\..\FreeRTOS\FreeRTOS-Kernel\portable\MemMang/heap_1.c ****  * subject to the following conditions:
  13:..\..\..\FreeRTOS\FreeRTOS-Kernel\portable\MemMang/heap_1.c ****  *
  14:..\..\..\FreeRTOS\FreeRTOS-Kernel\portable\MemMang/heap_1.c ****  * The above copyright notice and this permission notice shall be included in all
  15:..\..\..\FreeRTOS\FreeRTOS-Kernel\portable\MemMang/heap_1.c ****  * copies or substantial portions of the Software.
  16:..\..\..\FreeRTOS\FreeRTOS-Kernel\portable\MemMang/heap_1.c ****  *
  17:..\..\..\FreeRTOS\FreeRTOS-Kernel\portable\MemMang/heap_1.c ****  * THE SOFTWARE IS PROVIDED "AS IS", WITHOUT WARRANTY OF ANY KIND, EXPRESS OR
  18:..\..\..\FreeRTOS\FreeRTOS-Kernel\portable\MemMang/heap_1.c ****  * IMPLIED, INCLUDING BUT NOT LIMITED TO THE WARRANTIES OF MERCHANTABILITY, FITNESS
  19:..\..\..\FreeRTOS\FreeRTOS-Kernel\portable\MemMang/heap_1.c ****  * FOR A PARTICULAR PURPOSE AND NONINFRINGEMENT. IN NO EVENT SHALL THE AUTHORS OR
  20:..\..\..\FreeRTOS\FreeRTOS-Kernel\portable\MemMang/heap_1.c ****  * COPYRIGHT HOLDERS BE LIABLE FOR ANY CLAIM, DAMAGES OR OTHER LIABILITY, WHETHER
  21:..\..\..\FreeRTOS\FreeRTOS-Kernel\portable\MemMang/heap_1.c ****  * IN AN ACTION OF CONTRACT, TORT OR OTHERWISE, ARISING FROM, OUT OF OR IN
  22:..\..\..\FreeRTOS\FreeRTOS-Kernel\portable\MemMang/heap_1.c ****  * CONNECTION WITH THE SOFTWARE OR THE USE OR OTHER DEALINGS IN THE SOFTWARE.
  23:..\..\..\FreeRTOS\FreeRTOS-Kernel\portable\MemMang/heap_1.c ****  *
  24:..\..\..\FreeRTOS\FreeRTOS-Kernel\portable\MemMang/heap_1.c ****  * https://www.FreeRTOS.org
  25:..\..\..\FreeRTOS\FreeRTOS-Kernel\portable\MemMang/heap_1.c ****  * https://github.com/FreeRTOS
  26:..\..\..\FreeRTOS\FreeRTOS-Kernel\portable\MemMang/heap_1.c ****  *
  27:..\..\..\FreeRTOS\FreeRTOS-Kernel\portable\MemMang/heap_1.c ****  */
  28:..\..\..\FreeRTOS\FreeRTOS-Kernel\portable\MemMang/heap_1.c **** 
  29:..\..\..\FreeRTOS\FreeRTOS-Kernel\portable\MemMang/heap_1.c **** 
  30:..\..\..\FreeRTOS\FreeRTOS-Kernel\portable\MemMang/heap_1.c **** /*
ARM GAS  C:\Users\bchir\AppData\Local\Temp\ccGiojEd.s 			page 2


  31:..\..\..\FreeRTOS\FreeRTOS-Kernel\portable\MemMang/heap_1.c ****  * The simplest possible implementation of pvPortMalloc().  Note that this
  32:..\..\..\FreeRTOS\FreeRTOS-Kernel\portable\MemMang/heap_1.c ****  * implementation does NOT allow allocated memory to be freed again.
  33:..\..\..\FreeRTOS\FreeRTOS-Kernel\portable\MemMang/heap_1.c ****  *
  34:..\..\..\FreeRTOS\FreeRTOS-Kernel\portable\MemMang/heap_1.c ****  * See heap_2.c, heap_3.c and heap_4.c for alternative implementations, and the
  35:..\..\..\FreeRTOS\FreeRTOS-Kernel\portable\MemMang/heap_1.c ****  * memory management pages of https://www.FreeRTOS.org for more information.
  36:..\..\..\FreeRTOS\FreeRTOS-Kernel\portable\MemMang/heap_1.c ****  */
  37:..\..\..\FreeRTOS\FreeRTOS-Kernel\portable\MemMang/heap_1.c **** #include <stdlib.h>
  38:..\..\..\FreeRTOS\FreeRTOS-Kernel\portable\MemMang/heap_1.c **** 
  39:..\..\..\FreeRTOS\FreeRTOS-Kernel\portable\MemMang/heap_1.c **** /* Defining MPU_WRAPPERS_INCLUDED_FROM_API_FILE prevents task.h from redefining
  40:..\..\..\FreeRTOS\FreeRTOS-Kernel\portable\MemMang/heap_1.c ****  * all the API functions to use the MPU wrappers.  That should only be done when
  41:..\..\..\FreeRTOS\FreeRTOS-Kernel\portable\MemMang/heap_1.c ****  * task.h is included from an application file. */
  42:..\..\..\FreeRTOS\FreeRTOS-Kernel\portable\MemMang/heap_1.c **** #define MPU_WRAPPERS_INCLUDED_FROM_API_FILE
  43:..\..\..\FreeRTOS\FreeRTOS-Kernel\portable\MemMang/heap_1.c **** 
  44:..\..\..\FreeRTOS\FreeRTOS-Kernel\portable\MemMang/heap_1.c **** #include "FreeRTOS.h"
  45:..\..\..\FreeRTOS\FreeRTOS-Kernel\portable\MemMang/heap_1.c **** #include "task.h"
  46:..\..\..\FreeRTOS\FreeRTOS-Kernel\portable\MemMang/heap_1.c **** 
  47:..\..\..\FreeRTOS\FreeRTOS-Kernel\portable\MemMang/heap_1.c **** #undef MPU_WRAPPERS_INCLUDED_FROM_API_FILE
  48:..\..\..\FreeRTOS\FreeRTOS-Kernel\portable\MemMang/heap_1.c **** 
  49:..\..\..\FreeRTOS\FreeRTOS-Kernel\portable\MemMang/heap_1.c **** #if ( configSUPPORT_DYNAMIC_ALLOCATION == 0 )
  50:..\..\..\FreeRTOS\FreeRTOS-Kernel\portable\MemMang/heap_1.c ****     #error This file must not be used if configSUPPORT_DYNAMIC_ALLOCATION is 0
  51:..\..\..\FreeRTOS\FreeRTOS-Kernel\portable\MemMang/heap_1.c **** #endif
  52:..\..\..\FreeRTOS\FreeRTOS-Kernel\portable\MemMang/heap_1.c **** 
  53:..\..\..\FreeRTOS\FreeRTOS-Kernel\portable\MemMang/heap_1.c **** /* A few bytes might be lost to byte aligning the heap start address. */
  54:..\..\..\FreeRTOS\FreeRTOS-Kernel\portable\MemMang/heap_1.c **** #define configADJUSTED_HEAP_SIZE    ( configTOTAL_HEAP_SIZE - portBYTE_ALIGNMENT )
  55:..\..\..\FreeRTOS\FreeRTOS-Kernel\portable\MemMang/heap_1.c **** 
  56:..\..\..\FreeRTOS\FreeRTOS-Kernel\portable\MemMang/heap_1.c **** /* Allocate the memory for the heap. */
  57:..\..\..\FreeRTOS\FreeRTOS-Kernel\portable\MemMang/heap_1.c **** #if ( configAPPLICATION_ALLOCATED_HEAP == 1 )
  58:..\..\..\FreeRTOS\FreeRTOS-Kernel\portable\MemMang/heap_1.c **** 
  59:..\..\..\FreeRTOS\FreeRTOS-Kernel\portable\MemMang/heap_1.c **** /* The application writer has already defined the array used for the RTOS
  60:..\..\..\FreeRTOS\FreeRTOS-Kernel\portable\MemMang/heap_1.c **** * heap - probably so it can be placed in a special segment or address. */
  61:..\..\..\FreeRTOS\FreeRTOS-Kernel\portable\MemMang/heap_1.c ****     extern uint8_t ucHeap[ configTOTAL_HEAP_SIZE ];
  62:..\..\..\FreeRTOS\FreeRTOS-Kernel\portable\MemMang/heap_1.c **** #else
  63:..\..\..\FreeRTOS\FreeRTOS-Kernel\portable\MemMang/heap_1.c ****     static uint8_t ucHeap[ configTOTAL_HEAP_SIZE ];
  64:..\..\..\FreeRTOS\FreeRTOS-Kernel\portable\MemMang/heap_1.c **** #endif /* configAPPLICATION_ALLOCATED_HEAP */
  65:..\..\..\FreeRTOS\FreeRTOS-Kernel\portable\MemMang/heap_1.c **** 
  66:..\..\..\FreeRTOS\FreeRTOS-Kernel\portable\MemMang/heap_1.c **** /* Index into the ucHeap array. */
  67:..\..\..\FreeRTOS\FreeRTOS-Kernel\portable\MemMang/heap_1.c **** static size_t xNextFreeByte = ( size_t ) 0;
  68:..\..\..\FreeRTOS\FreeRTOS-Kernel\portable\MemMang/heap_1.c **** 
  69:..\..\..\FreeRTOS\FreeRTOS-Kernel\portable\MemMang/heap_1.c **** /*-----------------------------------------------------------*/
  70:..\..\..\FreeRTOS\FreeRTOS-Kernel\portable\MemMang/heap_1.c **** 
  71:..\..\..\FreeRTOS\FreeRTOS-Kernel\portable\MemMang/heap_1.c **** void * pvPortMalloc( size_t xWantedSize )
  72:..\..\..\FreeRTOS\FreeRTOS-Kernel\portable\MemMang/heap_1.c **** {
  28              		.loc 1 72 0
  29              		.cfi_startproc
  30              		@ args = 0, pretend = 0, frame = 0
  31              		@ frame_needed = 0, uses_anonymous_args = 0
  32              	.LVL0:
  33 0000 38B5     		push	{r3, r4, r5, lr}
  34              		.cfi_def_cfa_offset 16
  35              		.cfi_offset 3, -16
  36              		.cfi_offset 4, -12
  37              		.cfi_offset 5, -8
  38              		.cfi_offset 14, -4
  39 0002 0446     		mov	r4, r0
  40              	.LVL1:
  73:..\..\..\FreeRTOS\FreeRTOS-Kernel\portable\MemMang/heap_1.c ****     void * pvReturn = NULL;
  74:..\..\..\FreeRTOS\FreeRTOS-Kernel\portable\MemMang/heap_1.c ****     static uint8_t * pucAlignedHeap = NULL;
ARM GAS  C:\Users\bchir\AppData\Local\Temp\ccGiojEd.s 			page 3


  75:..\..\..\FreeRTOS\FreeRTOS-Kernel\portable\MemMang/heap_1.c **** 
  76:..\..\..\FreeRTOS\FreeRTOS-Kernel\portable\MemMang/heap_1.c ****     /* Ensure that blocks are always aligned. */
  77:..\..\..\FreeRTOS\FreeRTOS-Kernel\portable\MemMang/heap_1.c ****     #if ( portBYTE_ALIGNMENT != 1 )
  78:..\..\..\FreeRTOS\FreeRTOS-Kernel\portable\MemMang/heap_1.c ****     {
  79:..\..\..\FreeRTOS\FreeRTOS-Kernel\portable\MemMang/heap_1.c ****         if( xWantedSize & portBYTE_ALIGNMENT_MASK )
  41              		.loc 1 79 0
  42 0004 10F0070F 		tst	r0, #7
  43 0008 07D0     		beq	.L2
  80:..\..\..\FreeRTOS\FreeRTOS-Kernel\portable\MemMang/heap_1.c ****         {
  81:..\..\..\FreeRTOS\FreeRTOS-Kernel\portable\MemMang/heap_1.c ****             /* Byte alignment required. Check for overflow. */
  82:..\..\..\FreeRTOS\FreeRTOS-Kernel\portable\MemMang/heap_1.c ****             if( ( xWantedSize + ( portBYTE_ALIGNMENT - ( xWantedSize & portBYTE_ALIGNMENT_MASK ) ) 
  44              		.loc 1 82 0
  45 000a 20F00703 		bic	r3, r0, #7
  46 000e 0833     		adds	r3, r3, #8
  47 0010 9842     		cmp	r0, r3
  48 0012 01D3     		bcc	.L5
  83:..\..\..\FreeRTOS\FreeRTOS-Kernel\portable\MemMang/heap_1.c ****             {
  84:..\..\..\FreeRTOS\FreeRTOS-Kernel\portable\MemMang/heap_1.c ****                 xWantedSize += ( portBYTE_ALIGNMENT - ( xWantedSize & portBYTE_ALIGNMENT_MASK ) );
  85:..\..\..\FreeRTOS\FreeRTOS-Kernel\portable\MemMang/heap_1.c ****             }
  86:..\..\..\FreeRTOS\FreeRTOS-Kernel\portable\MemMang/heap_1.c ****             else
  87:..\..\..\FreeRTOS\FreeRTOS-Kernel\portable\MemMang/heap_1.c ****             {
  88:..\..\..\FreeRTOS\FreeRTOS-Kernel\portable\MemMang/heap_1.c ****                 xWantedSize = 0;
  49              		.loc 1 88 0
  50 0014 0024     		movs	r4, #0
  51 0016 00E0     		b	.L2
  52              	.L5:
  84:..\..\..\FreeRTOS\FreeRTOS-Kernel\portable\MemMang/heap_1.c ****             }
  53              		.loc 1 84 0
  54 0018 1C46     		mov	r4, r3
  55              	.L2:
  56              	.LVL2:
  89:..\..\..\FreeRTOS\FreeRTOS-Kernel\portable\MemMang/heap_1.c ****             }
  90:..\..\..\FreeRTOS\FreeRTOS-Kernel\portable\MemMang/heap_1.c ****         }
  91:..\..\..\FreeRTOS\FreeRTOS-Kernel\portable\MemMang/heap_1.c ****     }
  92:..\..\..\FreeRTOS\FreeRTOS-Kernel\portable\MemMang/heap_1.c ****     #endif /* if ( portBYTE_ALIGNMENT != 1 ) */
  93:..\..\..\FreeRTOS\FreeRTOS-Kernel\portable\MemMang/heap_1.c **** 
  94:..\..\..\FreeRTOS\FreeRTOS-Kernel\portable\MemMang/heap_1.c ****     vTaskSuspendAll();
  57              		.loc 1 94 0
  58 001a FFF7FEFF 		bl	vTaskSuspendAll
  59              	.LVL3:
  95:..\..\..\FreeRTOS\FreeRTOS-Kernel\portable\MemMang/heap_1.c ****     {
  96:..\..\..\FreeRTOS\FreeRTOS-Kernel\portable\MemMang/heap_1.c ****         if( pucAlignedHeap == NULL )
  60              		.loc 1 96 0
  61 001e 124B     		ldr	r3, .L10
  62 0020 1B68     		ldr	r3, [r3]
  63 0022 2BB9     		cbnz	r3, .L3
  97:..\..\..\FreeRTOS\FreeRTOS-Kernel\portable\MemMang/heap_1.c ****         {
  98:..\..\..\FreeRTOS\FreeRTOS-Kernel\portable\MemMang/heap_1.c ****             /* Ensure the heap starts on a correctly aligned boundary. */
  99:..\..\..\FreeRTOS\FreeRTOS-Kernel\portable\MemMang/heap_1.c ****             pucAlignedHeap = ( uint8_t * ) ( ( ( portPOINTER_SIZE_TYPE ) & ucHeap[ portBYTE_ALIGNME
  64              		.loc 1 99 0
  65 0024 104A     		ldr	r2, .L10
  66 0026 02F10B03 		add	r3, r2, #11
  67 002a 23F00703 		bic	r3, r3, #7
  68 002e 1360     		str	r3, [r2]
  69              	.L3:
 100:..\..\..\FreeRTOS\FreeRTOS-Kernel\portable\MemMang/heap_1.c ****         }
 101:..\..\..\FreeRTOS\FreeRTOS-Kernel\portable\MemMang/heap_1.c **** 
ARM GAS  C:\Users\bchir\AppData\Local\Temp\ccGiojEd.s 			page 4


 102:..\..\..\FreeRTOS\FreeRTOS-Kernel\portable\MemMang/heap_1.c ****         /* Check there is enough room left for the allocation and. */
 103:..\..\..\FreeRTOS\FreeRTOS-Kernel\portable\MemMang/heap_1.c ****         if( ( xWantedSize > 0 ) &&                                /* valid size */
  70              		.loc 1 103 0
  71 0030 84B1     		cbz	r4, .L6
 104:..\..\..\FreeRTOS\FreeRTOS-Kernel\portable\MemMang/heap_1.c ****             ( ( xNextFreeByte + xWantedSize ) < configADJUSTED_HEAP_SIZE ) &&
  72              		.loc 1 104 0 discriminator 1
  73 0032 0E4B     		ldr	r3, .L10+4
  74 0034 D3F83C39 		ldr	r3, [r3, #2364]
  75 0038 1C44     		add	r4, r4, r3
  76              	.LVL4:
 103:..\..\..\FreeRTOS\FreeRTOS-Kernel\portable\MemMang/heap_1.c ****             ( ( xNextFreeByte + xWantedSize ) < configADJUSTED_HEAP_SIZE ) &&
  77              		.loc 1 103 0 discriminator 1
  78 003a 47F6F772 		movw	r2, #32759
  79 003e 9442     		cmp	r4, r2
  80 0040 0AD8     		bhi	.L7
  81              		.loc 1 104 0
  82 0042 A342     		cmp	r3, r4
  83 0044 0AD2     		bcs	.L8
 105:..\..\..\FreeRTOS\FreeRTOS-Kernel\portable\MemMang/heap_1.c ****             ( ( xNextFreeByte + xWantedSize ) > xNextFreeByte ) ) /* Check for overflow. */
 106:..\..\..\FreeRTOS\FreeRTOS-Kernel\portable\MemMang/heap_1.c ****         {
 107:..\..\..\FreeRTOS\FreeRTOS-Kernel\portable\MemMang/heap_1.c ****             /* Return the next free byte then increment the index past this
 108:..\..\..\FreeRTOS\FreeRTOS-Kernel\portable\MemMang/heap_1.c ****              * block. */
 109:..\..\..\FreeRTOS\FreeRTOS-Kernel\portable\MemMang/heap_1.c ****             pvReturn = pucAlignedHeap + xNextFreeByte;
  84              		.loc 1 109 0
  85 0046 084A     		ldr	r2, .L10
  86 0048 1568     		ldr	r5, [r2]
  87 004a 1D44     		add	r5, r5, r3
  88              	.LVL5:
 110:..\..\..\FreeRTOS\FreeRTOS-Kernel\portable\MemMang/heap_1.c ****             xNextFreeByte += xWantedSize;
  89              		.loc 1 110 0
  90 004c 074B     		ldr	r3, .L10+4
  91 004e C3F83C49 		str	r4, [r3, #2364]
  92 0052 04E0     		b	.L4
  93              	.LVL6:
  94              	.L6:
  73:..\..\..\FreeRTOS\FreeRTOS-Kernel\portable\MemMang/heap_1.c ****     static uint8_t * pucAlignedHeap = NULL;
  95              		.loc 1 73 0
  96 0054 0025     		movs	r5, #0
  97 0056 02E0     		b	.L4
  98              	.LVL7:
  99              	.L7:
 100 0058 0025     		movs	r5, #0
 101 005a 00E0     		b	.L4
 102              	.L8:
 103 005c 0025     		movs	r5, #0
 104              	.LVL8:
 105              	.L4:
 111:..\..\..\FreeRTOS\FreeRTOS-Kernel\portable\MemMang/heap_1.c ****         }
 112:..\..\..\FreeRTOS\FreeRTOS-Kernel\portable\MemMang/heap_1.c **** 
 113:..\..\..\FreeRTOS\FreeRTOS-Kernel\portable\MemMang/heap_1.c ****         traceMALLOC( pvReturn, xWantedSize );
 114:..\..\..\FreeRTOS\FreeRTOS-Kernel\portable\MemMang/heap_1.c ****     }
 115:..\..\..\FreeRTOS\FreeRTOS-Kernel\portable\MemMang/heap_1.c ****     ( void ) xTaskResumeAll();
 106              		.loc 1 115 0
 107 005e FFF7FEFF 		bl	xTaskResumeAll
 108              	.LVL9:
 116:..\..\..\FreeRTOS\FreeRTOS-Kernel\portable\MemMang/heap_1.c **** 
 117:..\..\..\FreeRTOS\FreeRTOS-Kernel\portable\MemMang/heap_1.c ****     #if ( configUSE_MALLOC_FAILED_HOOK == 1 )
ARM GAS  C:\Users\bchir\AppData\Local\Temp\ccGiojEd.s 			page 5


 118:..\..\..\FreeRTOS\FreeRTOS-Kernel\portable\MemMang/heap_1.c ****     {
 119:..\..\..\FreeRTOS\FreeRTOS-Kernel\portable\MemMang/heap_1.c ****         if( pvReturn == NULL )
 120:..\..\..\FreeRTOS\FreeRTOS-Kernel\portable\MemMang/heap_1.c ****         {
 121:..\..\..\FreeRTOS\FreeRTOS-Kernel\portable\MemMang/heap_1.c ****             vApplicationMallocFailedHook();
 122:..\..\..\FreeRTOS\FreeRTOS-Kernel\portable\MemMang/heap_1.c ****         }
 123:..\..\..\FreeRTOS\FreeRTOS-Kernel\portable\MemMang/heap_1.c ****     }
 124:..\..\..\FreeRTOS\FreeRTOS-Kernel\portable\MemMang/heap_1.c ****     #endif
 125:..\..\..\FreeRTOS\FreeRTOS-Kernel\portable\MemMang/heap_1.c **** 
 126:..\..\..\FreeRTOS\FreeRTOS-Kernel\portable\MemMang/heap_1.c ****     return pvReturn;
 127:..\..\..\FreeRTOS\FreeRTOS-Kernel\portable\MemMang/heap_1.c **** }
 109              		.loc 1 127 0
 110 0062 2846     		mov	r0, r5
 111 0064 38BD     		pop	{r3, r4, r5, pc}
 112              	.LVL10:
 113              	.L11:
 114 0066 00BF     		.align	2
 115              	.L10:
 116 0068 00000000 		.word	.LANCHOR0
 117 006c C8760000 		.word	.LANCHOR1
 118              		.cfi_endproc
 119              	.LFE68:
 120              		.size	pvPortMalloc, .-pvPortMalloc
 121              		.section	.text.vPortFree,"ax",%progbits
 122              		.align	2
 123              		.global	vPortFree
 124              		.thumb
 125              		.thumb_func
 126              		.type	vPortFree, %function
 127              	vPortFree:
 128              	.LFB69:
 128:..\..\..\FreeRTOS\FreeRTOS-Kernel\portable\MemMang/heap_1.c **** /*-----------------------------------------------------------*/
 129:..\..\..\FreeRTOS\FreeRTOS-Kernel\portable\MemMang/heap_1.c **** 
 130:..\..\..\FreeRTOS\FreeRTOS-Kernel\portable\MemMang/heap_1.c **** void vPortFree( void * pv )
 131:..\..\..\FreeRTOS\FreeRTOS-Kernel\portable\MemMang/heap_1.c **** {
 129              		.loc 1 131 0
 130              		.cfi_startproc
 131              		@ args = 0, pretend = 0, frame = 0
 132              		@ frame_needed = 0, uses_anonymous_args = 0
 133              		@ link register save eliminated.
 134              	.LVL11:
 135 0000 7047     		bx	lr
 136              		.cfi_endproc
 137              	.LFE69:
 138              		.size	vPortFree, .-vPortFree
 139 0002 00BF     		.section	.text.vPortInitialiseBlocks,"ax",%progbits
 140              		.align	2
 141              		.global	vPortInitialiseBlocks
 142              		.thumb
 143              		.thumb_func
 144              		.type	vPortInitialiseBlocks, %function
 145              	vPortInitialiseBlocks:
 146              	.LFB70:
 132:..\..\..\FreeRTOS\FreeRTOS-Kernel\portable\MemMang/heap_1.c ****     /* Memory cannot be freed using this scheme.  See heap_2.c, heap_3.c and
 133:..\..\..\FreeRTOS\FreeRTOS-Kernel\portable\MemMang/heap_1.c ****      * heap_4.c for alternative implementations, and the memory management pages of
 134:..\..\..\FreeRTOS\FreeRTOS-Kernel\portable\MemMang/heap_1.c ****      * https://www.FreeRTOS.org for more information. */
 135:..\..\..\FreeRTOS\FreeRTOS-Kernel\portable\MemMang/heap_1.c ****     ( void ) pv;
 136:..\..\..\FreeRTOS\FreeRTOS-Kernel\portable\MemMang/heap_1.c **** 
ARM GAS  C:\Users\bchir\AppData\Local\Temp\ccGiojEd.s 			page 6


 137:..\..\..\FreeRTOS\FreeRTOS-Kernel\portable\MemMang/heap_1.c ****     /* Force an assert as it is invalid to call this function. */
 138:..\..\..\FreeRTOS\FreeRTOS-Kernel\portable\MemMang/heap_1.c ****     configASSERT( pv == NULL );
 139:..\..\..\FreeRTOS\FreeRTOS-Kernel\portable\MemMang/heap_1.c **** }
 140:..\..\..\FreeRTOS\FreeRTOS-Kernel\portable\MemMang/heap_1.c **** /*-----------------------------------------------------------*/
 141:..\..\..\FreeRTOS\FreeRTOS-Kernel\portable\MemMang/heap_1.c **** 
 142:..\..\..\FreeRTOS\FreeRTOS-Kernel\portable\MemMang/heap_1.c **** void vPortInitialiseBlocks( void )
 143:..\..\..\FreeRTOS\FreeRTOS-Kernel\portable\MemMang/heap_1.c **** {
 147              		.loc 1 143 0
 148              		.cfi_startproc
 149              		@ args = 0, pretend = 0, frame = 0
 150              		@ frame_needed = 0, uses_anonymous_args = 0
 151              		@ link register save eliminated.
 144:..\..\..\FreeRTOS\FreeRTOS-Kernel\portable\MemMang/heap_1.c ****     /* Only required when static memory is not cleared. */
 145:..\..\..\FreeRTOS\FreeRTOS-Kernel\portable\MemMang/heap_1.c ****     xNextFreeByte = ( size_t ) 0;
 152              		.loc 1 145 0
 153 0000 0022     		movs	r2, #0
 154 0002 024B     		ldr	r3, .L14
 155 0004 C3F83C29 		str	r2, [r3, #2364]
 156 0008 7047     		bx	lr
 157              	.L15:
 158 000a 00BF     		.align	2
 159              	.L14:
 160 000c C8760000 		.word	.LANCHOR1
 161              		.cfi_endproc
 162              	.LFE70:
 163              		.size	vPortInitialiseBlocks, .-vPortInitialiseBlocks
 164              		.section	.text.xPortGetFreeHeapSize,"ax",%progbits
 165              		.align	2
 166              		.global	xPortGetFreeHeapSize
 167              		.thumb
 168              		.thumb_func
 169              		.type	xPortGetFreeHeapSize, %function
 170              	xPortGetFreeHeapSize:
 171              	.LFB71:
 146:..\..\..\FreeRTOS\FreeRTOS-Kernel\portable\MemMang/heap_1.c **** }
 147:..\..\..\FreeRTOS\FreeRTOS-Kernel\portable\MemMang/heap_1.c **** /*-----------------------------------------------------------*/
 148:..\..\..\FreeRTOS\FreeRTOS-Kernel\portable\MemMang/heap_1.c **** 
 149:..\..\..\FreeRTOS\FreeRTOS-Kernel\portable\MemMang/heap_1.c **** size_t xPortGetFreeHeapSize( void )
 150:..\..\..\FreeRTOS\FreeRTOS-Kernel\portable\MemMang/heap_1.c **** {
 172              		.loc 1 150 0
 173              		.cfi_startproc
 174              		@ args = 0, pretend = 0, frame = 0
 175              		@ frame_needed = 0, uses_anonymous_args = 0
 176              		@ link register save eliminated.
 151:..\..\..\FreeRTOS\FreeRTOS-Kernel\portable\MemMang/heap_1.c ****     return( configADJUSTED_HEAP_SIZE - xNextFreeByte );
 177              		.loc 1 151 0
 178 0000 034B     		ldr	r3, .L17
 179 0002 D3F83C09 		ldr	r0, [r3, #2364]
 152:..\..\..\FreeRTOS\FreeRTOS-Kernel\portable\MemMang/heap_1.c **** }
 180              		.loc 1 152 0
 181 0006 C0F5FF40 		rsb	r0, r0, #32640
 182 000a 7830     		adds	r0, r0, #120
 183 000c 7047     		bx	lr
 184              	.L18:
 185 000e 00BF     		.align	2
 186              	.L17:
 187 0010 C8760000 		.word	.LANCHOR1
ARM GAS  C:\Users\bchir\AppData\Local\Temp\ccGiojEd.s 			page 7


 188              		.cfi_endproc
 189              	.LFE71:
 190              		.size	xPortGetFreeHeapSize, .-xPortGetFreeHeapSize
 191              		.bss
 192              		.align	2
 193              		.set	.LANCHOR0,. + 0
 194              		.set	.LANCHOR1,. + 30408
 195              		.type	pucAlignedHeap.7196, %object
 196              		.size	pucAlignedHeap.7196, 4
 197              	pucAlignedHeap.7196:
 198 0000 00000000 		.space	4
 199              		.type	ucHeap, %object
 200              		.size	ucHeap, 32768
 201              	ucHeap:
 202 0004 00000000 		.space	32768
 202      00000000 
 202      00000000 
 202      00000000 
 202      00000000 
 203              		.type	xNextFreeByte, %object
 204              		.size	xNextFreeByte, 4
 205              	xNextFreeByte:
 206 8004 00000000 		.space	4
 207              		.text
 208              	.Letext0:
 209              		.file 2 "c:\\program files (x86)\\cypress\\psoc creator\\4.4\\psoc creator\\import\\gnu\\arm\\5.4.
 210              		.file 3 "c:\\program files (x86)\\cypress\\psoc creator\\4.4\\psoc creator\\import\\gnu\\arm\\5.4.
 211              		.file 4 "c:\\program files (x86)\\cypress\\psoc creator\\4.4\\psoc creator\\import\\gnu\\arm\\5.4.
 212              		.file 5 "..\\..\\..\\FreeRTOS\\FreeRTOS-Kernel\\include/task.h"
 213              		.file 6 "Generated_Source\\PSoC5/core_cm3.h"