ARM GAS  C:\Users\bchir\AppData\Local\Temp\cceQytf2.s 			page 1


   1              		.syntax unified
   2              		.cpu cortex-m3
   3              		.fpu softvfp
   4              		.eabi_attribute 20, 1
   5              		.eabi_attribute 21, 1
   6              		.eabi_attribute 23, 3
   7              		.eabi_attribute 24, 1
   8              		.eabi_attribute 25, 1
   9              		.eabi_attribute 26, 1
  10              		.eabi_attribute 30, 1
  11              		.eabi_attribute 34, 1
  12              		.eabi_attribute 18, 4
  13              		.thumb
  14              		.syntax unified
  15              		.file	"IntBluetoothUART_1.c"
  16              		.text
  17              	.Ltext0:
  18              		.cfi_sections	.debug_frame
  19              		.section	.text.IntBluetoothUART_1_Interrupt,"ax",%progbits
  20              		.align	2
  21              		.global	IntBluetoothUART_1_Interrupt
  22              		.thumb
  23              		.thumb_func
  24              		.type	IntBluetoothUART_1_Interrupt, %function
  25              	IntBluetoothUART_1_Interrupt:
  26              	.LFB3:
  27              		.file 1 "Generated_Source\\PSoC5\\IntBluetoothUART_1.c"
   1:Generated_Source\PSoC5/IntBluetoothUART_1.c **** /*******************************************************************************
   2:Generated_Source\PSoC5/IntBluetoothUART_1.c **** * File Name: IntBluetoothUART_1.c  
   3:Generated_Source\PSoC5/IntBluetoothUART_1.c **** * Version 1.71
   4:Generated_Source\PSoC5/IntBluetoothUART_1.c **** *
   5:Generated_Source\PSoC5/IntBluetoothUART_1.c **** *  Description:
   6:Generated_Source\PSoC5/IntBluetoothUART_1.c **** *   API for controlling the state of an interrupt.
   7:Generated_Source\PSoC5/IntBluetoothUART_1.c **** *
   8:Generated_Source\PSoC5/IntBluetoothUART_1.c **** *
   9:Generated_Source\PSoC5/IntBluetoothUART_1.c **** *  Note:
  10:Generated_Source\PSoC5/IntBluetoothUART_1.c **** *
  11:Generated_Source\PSoC5/IntBluetoothUART_1.c **** ********************************************************************************
  12:Generated_Source\PSoC5/IntBluetoothUART_1.c **** * Copyright 2008-2015, Cypress Semiconductor Corporation.  All rights reserved.
  13:Generated_Source\PSoC5/IntBluetoothUART_1.c **** * You may use this file only in accordance with the license, terms, conditions, 
  14:Generated_Source\PSoC5/IntBluetoothUART_1.c **** * disclaimers, and limitations in the end user license agreement accompanying 
  15:Generated_Source\PSoC5/IntBluetoothUART_1.c **** * the software package with which this file was provided.
  16:Generated_Source\PSoC5/IntBluetoothUART_1.c **** *******************************************************************************/
  17:Generated_Source\PSoC5/IntBluetoothUART_1.c **** 
  18:Generated_Source\PSoC5/IntBluetoothUART_1.c **** 
  19:Generated_Source\PSoC5/IntBluetoothUART_1.c **** #include <cydevice_trm.h>
  20:Generated_Source\PSoC5/IntBluetoothUART_1.c **** #include <CyLib.h>
  21:Generated_Source\PSoC5/IntBluetoothUART_1.c **** #include <IntBluetoothUART_1.h>
  22:Generated_Source\PSoC5/IntBluetoothUART_1.c **** #include "cyapicallbacks.h"
  23:Generated_Source\PSoC5/IntBluetoothUART_1.c **** 
  24:Generated_Source\PSoC5/IntBluetoothUART_1.c **** #if !defined(IntBluetoothUART_1__REMOVED) /* Check for removal by optimization */
  25:Generated_Source\PSoC5/IntBluetoothUART_1.c **** 
  26:Generated_Source\PSoC5/IntBluetoothUART_1.c **** /*******************************************************************************
  27:Generated_Source\PSoC5/IntBluetoothUART_1.c **** *  Place your includes, defines and code here 
  28:Generated_Source\PSoC5/IntBluetoothUART_1.c **** ********************************************************************************/
  29:Generated_Source\PSoC5/IntBluetoothUART_1.c **** /* `#START IntBluetoothUART_1_intc` */
  30:Generated_Source\PSoC5/IntBluetoothUART_1.c **** 
ARM GAS  C:\Users\bchir\AppData\Local\Temp\cceQytf2.s 			page 2


  31:Generated_Source\PSoC5/IntBluetoothUART_1.c **** #include "Counter_1.h"
  32:Generated_Source\PSoC5/IntBluetoothUART_1.c **** /* `#END` */
  33:Generated_Source\PSoC5/IntBluetoothUART_1.c **** 
  34:Generated_Source\PSoC5/IntBluetoothUART_1.c **** #ifndef CYINT_IRQ_BASE
  35:Generated_Source\PSoC5/IntBluetoothUART_1.c **** #define CYINT_IRQ_BASE      16
  36:Generated_Source\PSoC5/IntBluetoothUART_1.c **** #endif /* CYINT_IRQ_BASE */
  37:Generated_Source\PSoC5/IntBluetoothUART_1.c **** #ifndef CYINT_VECT_TABLE
  38:Generated_Source\PSoC5/IntBluetoothUART_1.c **** #define CYINT_VECT_TABLE    ((cyisraddress **) CYREG_NVIC_VECT_OFFSET)
  39:Generated_Source\PSoC5/IntBluetoothUART_1.c **** #endif /* CYINT_VECT_TABLE */
  40:Generated_Source\PSoC5/IntBluetoothUART_1.c **** 
  41:Generated_Source\PSoC5/IntBluetoothUART_1.c **** /* Declared in startup, used to set unused interrupts to. */
  42:Generated_Source\PSoC5/IntBluetoothUART_1.c **** CY_ISR_PROTO(IntDefaultHandler);
  43:Generated_Source\PSoC5/IntBluetoothUART_1.c **** 
  44:Generated_Source\PSoC5/IntBluetoothUART_1.c **** 
  45:Generated_Source\PSoC5/IntBluetoothUART_1.c **** /*******************************************************************************
  46:Generated_Source\PSoC5/IntBluetoothUART_1.c **** * Function Name: IntBluetoothUART_1_Start
  47:Generated_Source\PSoC5/IntBluetoothUART_1.c **** ********************************************************************************
  48:Generated_Source\PSoC5/IntBluetoothUART_1.c **** *
  49:Generated_Source\PSoC5/IntBluetoothUART_1.c **** * Summary:
  50:Generated_Source\PSoC5/IntBluetoothUART_1.c **** *  Set up the interrupt and enable it. This function disables the interrupt, 
  51:Generated_Source\PSoC5/IntBluetoothUART_1.c **** *  sets the default interrupt vector, sets the priority from the value in the
  52:Generated_Source\PSoC5/IntBluetoothUART_1.c **** *  Design Wide Resources Interrupt Editor, then enables the interrupt to the 
  53:Generated_Source\PSoC5/IntBluetoothUART_1.c **** *  interrupt controller.
  54:Generated_Source\PSoC5/IntBluetoothUART_1.c **** *
  55:Generated_Source\PSoC5/IntBluetoothUART_1.c **** * Parameters:  
  56:Generated_Source\PSoC5/IntBluetoothUART_1.c **** *   None
  57:Generated_Source\PSoC5/IntBluetoothUART_1.c **** *
  58:Generated_Source\PSoC5/IntBluetoothUART_1.c **** * Return:
  59:Generated_Source\PSoC5/IntBluetoothUART_1.c **** *   None
  60:Generated_Source\PSoC5/IntBluetoothUART_1.c **** *
  61:Generated_Source\PSoC5/IntBluetoothUART_1.c **** *******************************************************************************/
  62:Generated_Source\PSoC5/IntBluetoothUART_1.c **** void IntBluetoothUART_1_Start(void)
  63:Generated_Source\PSoC5/IntBluetoothUART_1.c **** {
  64:Generated_Source\PSoC5/IntBluetoothUART_1.c ****     /* For all we know the interrupt is active. */
  65:Generated_Source\PSoC5/IntBluetoothUART_1.c ****     IntBluetoothUART_1_Disable();
  66:Generated_Source\PSoC5/IntBluetoothUART_1.c **** 
  67:Generated_Source\PSoC5/IntBluetoothUART_1.c ****     /* Set the ISR to point to the IntBluetoothUART_1 Interrupt. */
  68:Generated_Source\PSoC5/IntBluetoothUART_1.c ****     IntBluetoothUART_1_SetVector(&IntBluetoothUART_1_Interrupt);
  69:Generated_Source\PSoC5/IntBluetoothUART_1.c **** 
  70:Generated_Source\PSoC5/IntBluetoothUART_1.c ****     /* Set the priority. */
  71:Generated_Source\PSoC5/IntBluetoothUART_1.c ****     IntBluetoothUART_1_SetPriority((uint8)IntBluetoothUART_1_INTC_PRIOR_NUMBER);
  72:Generated_Source\PSoC5/IntBluetoothUART_1.c **** 
  73:Generated_Source\PSoC5/IntBluetoothUART_1.c ****     /* Enable it. */
  74:Generated_Source\PSoC5/IntBluetoothUART_1.c ****     IntBluetoothUART_1_Enable();
  75:Generated_Source\PSoC5/IntBluetoothUART_1.c **** }
  76:Generated_Source\PSoC5/IntBluetoothUART_1.c **** 
  77:Generated_Source\PSoC5/IntBluetoothUART_1.c **** 
  78:Generated_Source\PSoC5/IntBluetoothUART_1.c **** /*******************************************************************************
  79:Generated_Source\PSoC5/IntBluetoothUART_1.c **** * Function Name: IntBluetoothUART_1_StartEx
  80:Generated_Source\PSoC5/IntBluetoothUART_1.c **** ********************************************************************************
  81:Generated_Source\PSoC5/IntBluetoothUART_1.c **** *
  82:Generated_Source\PSoC5/IntBluetoothUART_1.c **** * Summary:
  83:Generated_Source\PSoC5/IntBluetoothUART_1.c **** *  Sets up the interrupt and enables it. This function disables the interrupt,
  84:Generated_Source\PSoC5/IntBluetoothUART_1.c **** *  sets the interrupt vector based on the address passed in, sets the priority 
  85:Generated_Source\PSoC5/IntBluetoothUART_1.c **** *  from the value in the Design Wide Resources Interrupt Editor, then enables 
  86:Generated_Source\PSoC5/IntBluetoothUART_1.c **** *  the interrupt to the interrupt controller.
  87:Generated_Source\PSoC5/IntBluetoothUART_1.c **** *  
ARM GAS  C:\Users\bchir\AppData\Local\Temp\cceQytf2.s 			page 3


  88:Generated_Source\PSoC5/IntBluetoothUART_1.c **** *  When defining ISR functions, the CY_ISR and CY_ISR_PROTO macros should be 
  89:Generated_Source\PSoC5/IntBluetoothUART_1.c **** *  used to provide consistent definition across compilers:
  90:Generated_Source\PSoC5/IntBluetoothUART_1.c **** *  
  91:Generated_Source\PSoC5/IntBluetoothUART_1.c **** *  Function definition example:
  92:Generated_Source\PSoC5/IntBluetoothUART_1.c **** *   CY_ISR(MyISR)
  93:Generated_Source\PSoC5/IntBluetoothUART_1.c **** *   {
  94:Generated_Source\PSoC5/IntBluetoothUART_1.c **** *   }
  95:Generated_Source\PSoC5/IntBluetoothUART_1.c **** *   Function prototype example:
  96:Generated_Source\PSoC5/IntBluetoothUART_1.c **** *   CY_ISR_PROTO(MyISR);
  97:Generated_Source\PSoC5/IntBluetoothUART_1.c **** *
  98:Generated_Source\PSoC5/IntBluetoothUART_1.c **** * Parameters:  
  99:Generated_Source\PSoC5/IntBluetoothUART_1.c **** *   address: Address of the ISR to set in the interrupt vector table.
 100:Generated_Source\PSoC5/IntBluetoothUART_1.c **** *
 101:Generated_Source\PSoC5/IntBluetoothUART_1.c **** * Return:
 102:Generated_Source\PSoC5/IntBluetoothUART_1.c **** *   None
 103:Generated_Source\PSoC5/IntBluetoothUART_1.c **** *
 104:Generated_Source\PSoC5/IntBluetoothUART_1.c **** *******************************************************************************/
 105:Generated_Source\PSoC5/IntBluetoothUART_1.c **** void IntBluetoothUART_1_StartEx(cyisraddress address)
 106:Generated_Source\PSoC5/IntBluetoothUART_1.c **** {
 107:Generated_Source\PSoC5/IntBluetoothUART_1.c ****     /* For all we know the interrupt is active. */
 108:Generated_Source\PSoC5/IntBluetoothUART_1.c ****     IntBluetoothUART_1_Disable();
 109:Generated_Source\PSoC5/IntBluetoothUART_1.c **** 
 110:Generated_Source\PSoC5/IntBluetoothUART_1.c ****     /* Set the ISR to point to the IntBluetoothUART_1 Interrupt. */
 111:Generated_Source\PSoC5/IntBluetoothUART_1.c ****     IntBluetoothUART_1_SetVector(address);
 112:Generated_Source\PSoC5/IntBluetoothUART_1.c **** 
 113:Generated_Source\PSoC5/IntBluetoothUART_1.c ****     /* Set the priority. */
 114:Generated_Source\PSoC5/IntBluetoothUART_1.c ****     IntBluetoothUART_1_SetPriority((uint8)IntBluetoothUART_1_INTC_PRIOR_NUMBER);
 115:Generated_Source\PSoC5/IntBluetoothUART_1.c **** 
 116:Generated_Source\PSoC5/IntBluetoothUART_1.c ****     /* Enable it. */
 117:Generated_Source\PSoC5/IntBluetoothUART_1.c ****     IntBluetoothUART_1_Enable();
 118:Generated_Source\PSoC5/IntBluetoothUART_1.c **** }
 119:Generated_Source\PSoC5/IntBluetoothUART_1.c **** 
 120:Generated_Source\PSoC5/IntBluetoothUART_1.c **** 
 121:Generated_Source\PSoC5/IntBluetoothUART_1.c **** /*******************************************************************************
 122:Generated_Source\PSoC5/IntBluetoothUART_1.c **** * Function Name: IntBluetoothUART_1_Stop
 123:Generated_Source\PSoC5/IntBluetoothUART_1.c **** ********************************************************************************
 124:Generated_Source\PSoC5/IntBluetoothUART_1.c **** *
 125:Generated_Source\PSoC5/IntBluetoothUART_1.c **** * Summary:
 126:Generated_Source\PSoC5/IntBluetoothUART_1.c **** *   Disables and removes the interrupt.
 127:Generated_Source\PSoC5/IntBluetoothUART_1.c **** *
 128:Generated_Source\PSoC5/IntBluetoothUART_1.c **** * Parameters:  
 129:Generated_Source\PSoC5/IntBluetoothUART_1.c **** *   None
 130:Generated_Source\PSoC5/IntBluetoothUART_1.c **** *
 131:Generated_Source\PSoC5/IntBluetoothUART_1.c **** * Return:
 132:Generated_Source\PSoC5/IntBluetoothUART_1.c **** *   None
 133:Generated_Source\PSoC5/IntBluetoothUART_1.c **** *
 134:Generated_Source\PSoC5/IntBluetoothUART_1.c **** *******************************************************************************/
 135:Generated_Source\PSoC5/IntBluetoothUART_1.c **** void IntBluetoothUART_1_Stop(void)
 136:Generated_Source\PSoC5/IntBluetoothUART_1.c **** {
 137:Generated_Source\PSoC5/IntBluetoothUART_1.c ****     /* Disable this interrupt. */
 138:Generated_Source\PSoC5/IntBluetoothUART_1.c ****     IntBluetoothUART_1_Disable();
 139:Generated_Source\PSoC5/IntBluetoothUART_1.c **** 
 140:Generated_Source\PSoC5/IntBluetoothUART_1.c ****     /* Set the ISR to point to the passive one. */
 141:Generated_Source\PSoC5/IntBluetoothUART_1.c ****     IntBluetoothUART_1_SetVector(&IntDefaultHandler);
 142:Generated_Source\PSoC5/IntBluetoothUART_1.c **** }
 143:Generated_Source\PSoC5/IntBluetoothUART_1.c **** 
 144:Generated_Source\PSoC5/IntBluetoothUART_1.c **** 
ARM GAS  C:\Users\bchir\AppData\Local\Temp\cceQytf2.s 			page 4


 145:Generated_Source\PSoC5/IntBluetoothUART_1.c **** /*******************************************************************************
 146:Generated_Source\PSoC5/IntBluetoothUART_1.c **** * Function Name: IntBluetoothUART_1_Interrupt
 147:Generated_Source\PSoC5/IntBluetoothUART_1.c **** ********************************************************************************
 148:Generated_Source\PSoC5/IntBluetoothUART_1.c **** *
 149:Generated_Source\PSoC5/IntBluetoothUART_1.c **** * Summary:
 150:Generated_Source\PSoC5/IntBluetoothUART_1.c **** *   The default Interrupt Service Routine for IntBluetoothUART_1.
 151:Generated_Source\PSoC5/IntBluetoothUART_1.c **** *
 152:Generated_Source\PSoC5/IntBluetoothUART_1.c **** *   Add custom code between the coments to keep the next version of this file
 153:Generated_Source\PSoC5/IntBluetoothUART_1.c **** *   from over writting your code.
 154:Generated_Source\PSoC5/IntBluetoothUART_1.c **** *
 155:Generated_Source\PSoC5/IntBluetoothUART_1.c **** * Parameters:  
 156:Generated_Source\PSoC5/IntBluetoothUART_1.c **** *
 157:Generated_Source\PSoC5/IntBluetoothUART_1.c **** * Return:
 158:Generated_Source\PSoC5/IntBluetoothUART_1.c **** *   None
 159:Generated_Source\PSoC5/IntBluetoothUART_1.c **** *
 160:Generated_Source\PSoC5/IntBluetoothUART_1.c **** *******************************************************************************/
 161:Generated_Source\PSoC5/IntBluetoothUART_1.c **** CY_ISR(IntBluetoothUART_1_Interrupt)
 162:Generated_Source\PSoC5/IntBluetoothUART_1.c **** {
  28              		.loc 1 162 0
  29              		.cfi_startproc
  30              		@ args = 0, pretend = 0, frame = 0
  31              		@ frame_needed = 0, uses_anonymous_args = 0
  32 0000 08B5     		push	{r3, lr}
  33              		.cfi_def_cfa_offset 8
  34              		.cfi_offset 3, -8
  35              		.cfi_offset 14, -4
 163:Generated_Source\PSoC5/IntBluetoothUART_1.c ****     #ifdef IntBluetoothUART_1_INTERRUPT_INTERRUPT_CALLBACK
 164:Generated_Source\PSoC5/IntBluetoothUART_1.c ****         IntBluetoothUART_1_Interrupt_InterruptCallback();
 165:Generated_Source\PSoC5/IntBluetoothUART_1.c ****     #endif /* IntBluetoothUART_1_INTERRUPT_INTERRUPT_CALLBACK */ 
 166:Generated_Source\PSoC5/IntBluetoothUART_1.c **** 
 167:Generated_Source\PSoC5/IntBluetoothUART_1.c ****     /*  Place your Interrupt code here. */
 168:Generated_Source\PSoC5/IntBluetoothUART_1.c ****     /* `#START IntBluetoothUART_1_Interrupt` */
 169:Generated_Source\PSoC5/IntBluetoothUART_1.c ****         static volatile int x = 0;
 170:Generated_Source\PSoC5/IntBluetoothUART_1.c ****         Counter_1_ReadStatusRegister();
  36              		.loc 1 170 0
  37 0002 FFF7FEFF 		bl	Counter_1_ReadStatusRegister
  38              	.LVL0:
 171:Generated_Source\PSoC5/IntBluetoothUART_1.c ****     
 172:Generated_Source\PSoC5/IntBluetoothUART_1.c ****         x++;
  39              		.loc 1 172 0
  40 0006 024A     		ldr	r2, .L3
  41 0008 1368     		ldr	r3, [r2]
  42 000a 0133     		adds	r3, r3, #1
  43 000c 1360     		str	r3, [r2]
  44 000e 08BD     		pop	{r3, pc}
  45              	.L4:
  46              		.align	2
  47              	.L3:
  48 0010 00000000 		.word	.LANCHOR0
  49              		.cfi_endproc
  50              	.LFE3:
  51              		.size	IntBluetoothUART_1_Interrupt, .-IntBluetoothUART_1_Interrupt
  52              		.section	.text.IntBluetoothUART_1_SetVector,"ax",%progbits
  53              		.align	2
  54              		.global	IntBluetoothUART_1_SetVector
  55              		.thumb
  56              		.thumb_func
ARM GAS  C:\Users\bchir\AppData\Local\Temp\cceQytf2.s 			page 5


  57              		.type	IntBluetoothUART_1_SetVector, %function
  58              	IntBluetoothUART_1_SetVector:
  59              	.LFB4:
 173:Generated_Source\PSoC5/IntBluetoothUART_1.c ****     /* `#END` */
 174:Generated_Source\PSoC5/IntBluetoothUART_1.c **** }
 175:Generated_Source\PSoC5/IntBluetoothUART_1.c **** 
 176:Generated_Source\PSoC5/IntBluetoothUART_1.c **** 
 177:Generated_Source\PSoC5/IntBluetoothUART_1.c **** /*******************************************************************************
 178:Generated_Source\PSoC5/IntBluetoothUART_1.c **** * Function Name: IntBluetoothUART_1_SetVector
 179:Generated_Source\PSoC5/IntBluetoothUART_1.c **** ********************************************************************************
 180:Generated_Source\PSoC5/IntBluetoothUART_1.c **** *
 181:Generated_Source\PSoC5/IntBluetoothUART_1.c **** * Summary:
 182:Generated_Source\PSoC5/IntBluetoothUART_1.c **** *   Change the ISR vector for the Interrupt. Note calling IntBluetoothUART_1_Start
 183:Generated_Source\PSoC5/IntBluetoothUART_1.c **** *   will override any effect this method would have had. To set the vector 
 184:Generated_Source\PSoC5/IntBluetoothUART_1.c **** *   before the component has been started use IntBluetoothUART_1_StartEx instead.
 185:Generated_Source\PSoC5/IntBluetoothUART_1.c **** * 
 186:Generated_Source\PSoC5/IntBluetoothUART_1.c **** *   When defining ISR functions, the CY_ISR and CY_ISR_PROTO macros should be 
 187:Generated_Source\PSoC5/IntBluetoothUART_1.c **** *   used to provide consistent definition across compilers:
 188:Generated_Source\PSoC5/IntBluetoothUART_1.c **** *
 189:Generated_Source\PSoC5/IntBluetoothUART_1.c **** *   Function definition example:
 190:Generated_Source\PSoC5/IntBluetoothUART_1.c **** *   CY_ISR(MyISR)
 191:Generated_Source\PSoC5/IntBluetoothUART_1.c **** *   {
 192:Generated_Source\PSoC5/IntBluetoothUART_1.c **** *   }
 193:Generated_Source\PSoC5/IntBluetoothUART_1.c **** *
 194:Generated_Source\PSoC5/IntBluetoothUART_1.c **** *   Function prototype example:
 195:Generated_Source\PSoC5/IntBluetoothUART_1.c **** *     CY_ISR_PROTO(MyISR);
 196:Generated_Source\PSoC5/IntBluetoothUART_1.c **** *
 197:Generated_Source\PSoC5/IntBluetoothUART_1.c **** * Parameters:
 198:Generated_Source\PSoC5/IntBluetoothUART_1.c **** *   address: Address of the ISR to set in the interrupt vector table.
 199:Generated_Source\PSoC5/IntBluetoothUART_1.c **** *
 200:Generated_Source\PSoC5/IntBluetoothUART_1.c **** * Return:
 201:Generated_Source\PSoC5/IntBluetoothUART_1.c **** *   None
 202:Generated_Source\PSoC5/IntBluetoothUART_1.c **** *
 203:Generated_Source\PSoC5/IntBluetoothUART_1.c **** *******************************************************************************/
 204:Generated_Source\PSoC5/IntBluetoothUART_1.c **** void IntBluetoothUART_1_SetVector(cyisraddress address)
 205:Generated_Source\PSoC5/IntBluetoothUART_1.c **** {
  60              		.loc 1 205 0
  61              		.cfi_startproc
  62              		@ args = 0, pretend = 0, frame = 0
  63              		@ frame_needed = 0, uses_anonymous_args = 0
  64              		@ link register save eliminated.
  65              	.LVL1:
 206:Generated_Source\PSoC5/IntBluetoothUART_1.c ****     cyisraddress * ramVectorTable;
 207:Generated_Source\PSoC5/IntBluetoothUART_1.c **** 
 208:Generated_Source\PSoC5/IntBluetoothUART_1.c ****     ramVectorTable = (cyisraddress *) *CYINT_VECT_TABLE;
  66              		.loc 1 208 0
  67 0000 014B     		ldr	r3, .L6
  68 0002 1B68     		ldr	r3, [r3]
  69              	.LVL2:
 209:Generated_Source\PSoC5/IntBluetoothUART_1.c **** 
 210:Generated_Source\PSoC5/IntBluetoothUART_1.c ****     ramVectorTable[CYINT_IRQ_BASE + (uint32)IntBluetoothUART_1__INTC_NUMBER] = address;
  70              		.loc 1 210 0
  71 0004 5864     		str	r0, [r3, #68]
  72 0006 7047     		bx	lr
  73              	.L7:
  74              		.align	2
  75              	.L6:
ARM GAS  C:\Users\bchir\AppData\Local\Temp\cceQytf2.s 			page 6


  76 0008 08ED00E0 		.word	-536810232
  77              		.cfi_endproc
  78              	.LFE4:
  79              		.size	IntBluetoothUART_1_SetVector, .-IntBluetoothUART_1_SetVector
  80              		.section	.text.IntBluetoothUART_1_GetVector,"ax",%progbits
  81              		.align	2
  82              		.global	IntBluetoothUART_1_GetVector
  83              		.thumb
  84              		.thumb_func
  85              		.type	IntBluetoothUART_1_GetVector, %function
  86              	IntBluetoothUART_1_GetVector:
  87              	.LFB5:
 211:Generated_Source\PSoC5/IntBluetoothUART_1.c **** }
 212:Generated_Source\PSoC5/IntBluetoothUART_1.c **** 
 213:Generated_Source\PSoC5/IntBluetoothUART_1.c **** 
 214:Generated_Source\PSoC5/IntBluetoothUART_1.c **** /*******************************************************************************
 215:Generated_Source\PSoC5/IntBluetoothUART_1.c **** * Function Name: IntBluetoothUART_1_GetVector
 216:Generated_Source\PSoC5/IntBluetoothUART_1.c **** ********************************************************************************
 217:Generated_Source\PSoC5/IntBluetoothUART_1.c **** *
 218:Generated_Source\PSoC5/IntBluetoothUART_1.c **** * Summary:
 219:Generated_Source\PSoC5/IntBluetoothUART_1.c **** *   Gets the "address" of the current ISR vector for the Interrupt.
 220:Generated_Source\PSoC5/IntBluetoothUART_1.c **** *
 221:Generated_Source\PSoC5/IntBluetoothUART_1.c **** * Parameters:
 222:Generated_Source\PSoC5/IntBluetoothUART_1.c **** *   None
 223:Generated_Source\PSoC5/IntBluetoothUART_1.c **** *
 224:Generated_Source\PSoC5/IntBluetoothUART_1.c **** * Return:
 225:Generated_Source\PSoC5/IntBluetoothUART_1.c **** *   Address of the ISR in the interrupt vector table.
 226:Generated_Source\PSoC5/IntBluetoothUART_1.c **** *
 227:Generated_Source\PSoC5/IntBluetoothUART_1.c **** *******************************************************************************/
 228:Generated_Source\PSoC5/IntBluetoothUART_1.c **** cyisraddress IntBluetoothUART_1_GetVector(void)
 229:Generated_Source\PSoC5/IntBluetoothUART_1.c **** {
  88              		.loc 1 229 0
  89              		.cfi_startproc
  90              		@ args = 0, pretend = 0, frame = 0
  91              		@ frame_needed = 0, uses_anonymous_args = 0
  92              		@ link register save eliminated.
 230:Generated_Source\PSoC5/IntBluetoothUART_1.c ****     cyisraddress * ramVectorTable;
 231:Generated_Source\PSoC5/IntBluetoothUART_1.c **** 
 232:Generated_Source\PSoC5/IntBluetoothUART_1.c ****     ramVectorTable = (cyisraddress *) *CYINT_VECT_TABLE;
  93              		.loc 1 232 0
  94 0000 014B     		ldr	r3, .L9
  95 0002 1B68     		ldr	r3, [r3]
  96              	.LVL3:
 233:Generated_Source\PSoC5/IntBluetoothUART_1.c **** 
 234:Generated_Source\PSoC5/IntBluetoothUART_1.c ****     return ramVectorTable[CYINT_IRQ_BASE + (uint32)IntBluetoothUART_1__INTC_NUMBER];
 235:Generated_Source\PSoC5/IntBluetoothUART_1.c **** }
  97              		.loc 1 235 0
  98 0004 586C     		ldr	r0, [r3, #68]
  99 0006 7047     		bx	lr
 100              	.L10:
 101              		.align	2
 102              	.L9:
 103 0008 08ED00E0 		.word	-536810232
 104              		.cfi_endproc
 105              	.LFE5:
 106              		.size	IntBluetoothUART_1_GetVector, .-IntBluetoothUART_1_GetVector
 107              		.section	.text.IntBluetoothUART_1_SetPriority,"ax",%progbits
ARM GAS  C:\Users\bchir\AppData\Local\Temp\cceQytf2.s 			page 7


 108              		.align	2
 109              		.global	IntBluetoothUART_1_SetPriority
 110              		.thumb
 111              		.thumb_func
 112              		.type	IntBluetoothUART_1_SetPriority, %function
 113              	IntBluetoothUART_1_SetPriority:
 114              	.LFB6:
 236:Generated_Source\PSoC5/IntBluetoothUART_1.c **** 
 237:Generated_Source\PSoC5/IntBluetoothUART_1.c **** 
 238:Generated_Source\PSoC5/IntBluetoothUART_1.c **** /*******************************************************************************
 239:Generated_Source\PSoC5/IntBluetoothUART_1.c **** * Function Name: IntBluetoothUART_1_SetPriority
 240:Generated_Source\PSoC5/IntBluetoothUART_1.c **** ********************************************************************************
 241:Generated_Source\PSoC5/IntBluetoothUART_1.c **** *
 242:Generated_Source\PSoC5/IntBluetoothUART_1.c **** * Summary:
 243:Generated_Source\PSoC5/IntBluetoothUART_1.c **** *   Sets the Priority of the Interrupt. 
 244:Generated_Source\PSoC5/IntBluetoothUART_1.c **** *
 245:Generated_Source\PSoC5/IntBluetoothUART_1.c **** *   Note calling IntBluetoothUART_1_Start or IntBluetoothUART_1_StartEx will 
 246:Generated_Source\PSoC5/IntBluetoothUART_1.c **** *   override any effect this API would have had. This API should only be called
 247:Generated_Source\PSoC5/IntBluetoothUART_1.c **** *   after IntBluetoothUART_1_Start or IntBluetoothUART_1_StartEx has been called. 
 248:Generated_Source\PSoC5/IntBluetoothUART_1.c **** *   To set the initial priority for the component, use the Design-Wide Resources
 249:Generated_Source\PSoC5/IntBluetoothUART_1.c **** *   Interrupt Editor.
 250:Generated_Source\PSoC5/IntBluetoothUART_1.c **** *
 251:Generated_Source\PSoC5/IntBluetoothUART_1.c **** *   Note This API has no effect on Non-maskable interrupt NMI).
 252:Generated_Source\PSoC5/IntBluetoothUART_1.c **** *
 253:Generated_Source\PSoC5/IntBluetoothUART_1.c **** * Parameters:
 254:Generated_Source\PSoC5/IntBluetoothUART_1.c **** *   priority: Priority of the interrupt, 0 being the highest priority
 255:Generated_Source\PSoC5/IntBluetoothUART_1.c **** *             PSoC 3 and PSoC 5LP: Priority is from 0 to 7.
 256:Generated_Source\PSoC5/IntBluetoothUART_1.c **** *             PSoC 4: Priority is from 0 to 3.
 257:Generated_Source\PSoC5/IntBluetoothUART_1.c **** *
 258:Generated_Source\PSoC5/IntBluetoothUART_1.c **** * Return:
 259:Generated_Source\PSoC5/IntBluetoothUART_1.c **** *   None
 260:Generated_Source\PSoC5/IntBluetoothUART_1.c **** *
 261:Generated_Source\PSoC5/IntBluetoothUART_1.c **** *******************************************************************************/
 262:Generated_Source\PSoC5/IntBluetoothUART_1.c **** void IntBluetoothUART_1_SetPriority(uint8 priority)
 263:Generated_Source\PSoC5/IntBluetoothUART_1.c **** {
 115              		.loc 1 263 0
 116              		.cfi_startproc
 117              		@ args = 0, pretend = 0, frame = 0
 118              		@ frame_needed = 0, uses_anonymous_args = 0
 119              		@ link register save eliminated.
 120              	.LVL4:
 264:Generated_Source\PSoC5/IntBluetoothUART_1.c ****     *IntBluetoothUART_1_INTC_PRIOR = priority << 5;
 121              		.loc 1 264 0
 122 0000 4001     		lsls	r0, r0, #5
 123              	.LVL5:
 124 0002 C0B2     		uxtb	r0, r0
 125 0004 014B     		ldr	r3, .L12
 126 0006 1870     		strb	r0, [r3]
 127 0008 7047     		bx	lr
 128              	.L13:
 129 000a 00BF     		.align	2
 130              	.L12:
 131 000c 01E400E0 		.word	-536812543
 132              		.cfi_endproc
 133              	.LFE6:
 134              		.size	IntBluetoothUART_1_SetPriority, .-IntBluetoothUART_1_SetPriority
 135              		.section	.text.IntBluetoothUART_1_GetPriority,"ax",%progbits
ARM GAS  C:\Users\bchir\AppData\Local\Temp\cceQytf2.s 			page 8


 136              		.align	2
 137              		.global	IntBluetoothUART_1_GetPriority
 138              		.thumb
 139              		.thumb_func
 140              		.type	IntBluetoothUART_1_GetPriority, %function
 141              	IntBluetoothUART_1_GetPriority:
 142              	.LFB7:
 265:Generated_Source\PSoC5/IntBluetoothUART_1.c **** }
 266:Generated_Source\PSoC5/IntBluetoothUART_1.c **** 
 267:Generated_Source\PSoC5/IntBluetoothUART_1.c **** 
 268:Generated_Source\PSoC5/IntBluetoothUART_1.c **** /*******************************************************************************
 269:Generated_Source\PSoC5/IntBluetoothUART_1.c **** * Function Name: IntBluetoothUART_1_GetPriority
 270:Generated_Source\PSoC5/IntBluetoothUART_1.c **** ********************************************************************************
 271:Generated_Source\PSoC5/IntBluetoothUART_1.c **** *
 272:Generated_Source\PSoC5/IntBluetoothUART_1.c **** * Summary:
 273:Generated_Source\PSoC5/IntBluetoothUART_1.c **** *   Gets the Priority of the Interrupt.
 274:Generated_Source\PSoC5/IntBluetoothUART_1.c **** *
 275:Generated_Source\PSoC5/IntBluetoothUART_1.c **** * Parameters:
 276:Generated_Source\PSoC5/IntBluetoothUART_1.c **** *   None
 277:Generated_Source\PSoC5/IntBluetoothUART_1.c **** *
 278:Generated_Source\PSoC5/IntBluetoothUART_1.c **** * Return:
 279:Generated_Source\PSoC5/IntBluetoothUART_1.c **** *   Priority of the interrupt, 0 being the highest priority
 280:Generated_Source\PSoC5/IntBluetoothUART_1.c **** *    PSoC 3 and PSoC 5LP: Priority is from 0 to 7.
 281:Generated_Source\PSoC5/IntBluetoothUART_1.c **** *    PSoC 4: Priority is from 0 to 3.
 282:Generated_Source\PSoC5/IntBluetoothUART_1.c **** *
 283:Generated_Source\PSoC5/IntBluetoothUART_1.c **** *******************************************************************************/
 284:Generated_Source\PSoC5/IntBluetoothUART_1.c **** uint8 IntBluetoothUART_1_GetPriority(void)
 285:Generated_Source\PSoC5/IntBluetoothUART_1.c **** {
 143              		.loc 1 285 0
 144              		.cfi_startproc
 145              		@ args = 0, pretend = 0, frame = 0
 146              		@ frame_needed = 0, uses_anonymous_args = 0
 147              		@ link register save eliminated.
 286:Generated_Source\PSoC5/IntBluetoothUART_1.c ****     uint8 priority;
 287:Generated_Source\PSoC5/IntBluetoothUART_1.c **** 
 288:Generated_Source\PSoC5/IntBluetoothUART_1.c **** 
 289:Generated_Source\PSoC5/IntBluetoothUART_1.c ****     priority = *IntBluetoothUART_1_INTC_PRIOR >> 5;
 148              		.loc 1 289 0
 149 0000 014B     		ldr	r3, .L15
 150 0002 1878     		ldrb	r0, [r3]	@ zero_extendqisi2
 151              	.LVL6:
 290:Generated_Source\PSoC5/IntBluetoothUART_1.c **** 
 291:Generated_Source\PSoC5/IntBluetoothUART_1.c ****     return priority;
 292:Generated_Source\PSoC5/IntBluetoothUART_1.c **** }
 152              		.loc 1 292 0
 153 0004 4009     		lsrs	r0, r0, #5
 154              	.LVL7:
 155 0006 7047     		bx	lr
 156              	.L16:
 157              		.align	2
 158              	.L15:
 159 0008 01E400E0 		.word	-536812543
 160              		.cfi_endproc
 161              	.LFE7:
 162              		.size	IntBluetoothUART_1_GetPriority, .-IntBluetoothUART_1_GetPriority
 163              		.section	.text.IntBluetoothUART_1_Enable,"ax",%progbits
 164              		.align	2
ARM GAS  C:\Users\bchir\AppData\Local\Temp\cceQytf2.s 			page 9


 165              		.global	IntBluetoothUART_1_Enable
 166              		.thumb
 167              		.thumb_func
 168              		.type	IntBluetoothUART_1_Enable, %function
 169              	IntBluetoothUART_1_Enable:
 170              	.LFB8:
 293:Generated_Source\PSoC5/IntBluetoothUART_1.c **** 
 294:Generated_Source\PSoC5/IntBluetoothUART_1.c **** 
 295:Generated_Source\PSoC5/IntBluetoothUART_1.c **** /*******************************************************************************
 296:Generated_Source\PSoC5/IntBluetoothUART_1.c **** * Function Name: IntBluetoothUART_1_Enable
 297:Generated_Source\PSoC5/IntBluetoothUART_1.c **** ********************************************************************************
 298:Generated_Source\PSoC5/IntBluetoothUART_1.c **** *
 299:Generated_Source\PSoC5/IntBluetoothUART_1.c **** * Summary:
 300:Generated_Source\PSoC5/IntBluetoothUART_1.c **** *   Enables the interrupt to the interrupt controller. Do not call this function
 301:Generated_Source\PSoC5/IntBluetoothUART_1.c **** *   unless ISR_Start() has been called or the functionality of the ISR_Start() 
 302:Generated_Source\PSoC5/IntBluetoothUART_1.c **** *   function, which sets the vector and the priority, has been called.
 303:Generated_Source\PSoC5/IntBluetoothUART_1.c **** *
 304:Generated_Source\PSoC5/IntBluetoothUART_1.c **** * Parameters:
 305:Generated_Source\PSoC5/IntBluetoothUART_1.c **** *   None
 306:Generated_Source\PSoC5/IntBluetoothUART_1.c **** *
 307:Generated_Source\PSoC5/IntBluetoothUART_1.c **** * Return:
 308:Generated_Source\PSoC5/IntBluetoothUART_1.c **** *   None
 309:Generated_Source\PSoC5/IntBluetoothUART_1.c **** *
 310:Generated_Source\PSoC5/IntBluetoothUART_1.c **** *******************************************************************************/
 311:Generated_Source\PSoC5/IntBluetoothUART_1.c **** void IntBluetoothUART_1_Enable(void)
 312:Generated_Source\PSoC5/IntBluetoothUART_1.c **** {
 171              		.loc 1 312 0
 172              		.cfi_startproc
 173              		@ args = 0, pretend = 0, frame = 0
 174              		@ frame_needed = 0, uses_anonymous_args = 0
 175              		@ link register save eliminated.
 313:Generated_Source\PSoC5/IntBluetoothUART_1.c ****     /* Enable the general interrupt. */
 314:Generated_Source\PSoC5/IntBluetoothUART_1.c ****     *IntBluetoothUART_1_INTC_SET_EN = IntBluetoothUART_1__INTC_MASK;
 176              		.loc 1 314 0
 177 0000 0222     		movs	r2, #2
 178 0002 014B     		ldr	r3, .L18
 179 0004 1A60     		str	r2, [r3]
 180 0006 7047     		bx	lr
 181              	.L19:
 182              		.align	2
 183              	.L18:
 184 0008 00E100E0 		.word	-536813312
 185              		.cfi_endproc
 186              	.LFE8:
 187              		.size	IntBluetoothUART_1_Enable, .-IntBluetoothUART_1_Enable
 188              		.section	.text.IntBluetoothUART_1_GetState,"ax",%progbits
 189              		.align	2
 190              		.global	IntBluetoothUART_1_GetState
 191              		.thumb
 192              		.thumb_func
 193              		.type	IntBluetoothUART_1_GetState, %function
 194              	IntBluetoothUART_1_GetState:
 195              	.LFB9:
 315:Generated_Source\PSoC5/IntBluetoothUART_1.c **** }
 316:Generated_Source\PSoC5/IntBluetoothUART_1.c **** 
 317:Generated_Source\PSoC5/IntBluetoothUART_1.c **** 
 318:Generated_Source\PSoC5/IntBluetoothUART_1.c **** /*******************************************************************************
ARM GAS  C:\Users\bchir\AppData\Local\Temp\cceQytf2.s 			page 10


 319:Generated_Source\PSoC5/IntBluetoothUART_1.c **** * Function Name: IntBluetoothUART_1_GetState
 320:Generated_Source\PSoC5/IntBluetoothUART_1.c **** ********************************************************************************
 321:Generated_Source\PSoC5/IntBluetoothUART_1.c **** *
 322:Generated_Source\PSoC5/IntBluetoothUART_1.c **** * Summary:
 323:Generated_Source\PSoC5/IntBluetoothUART_1.c **** *   Gets the state (enabled, disabled) of the Interrupt.
 324:Generated_Source\PSoC5/IntBluetoothUART_1.c **** *
 325:Generated_Source\PSoC5/IntBluetoothUART_1.c **** * Parameters:
 326:Generated_Source\PSoC5/IntBluetoothUART_1.c **** *   None
 327:Generated_Source\PSoC5/IntBluetoothUART_1.c **** *
 328:Generated_Source\PSoC5/IntBluetoothUART_1.c **** * Return:
 329:Generated_Source\PSoC5/IntBluetoothUART_1.c **** *   1 if enabled, 0 if disabled.
 330:Generated_Source\PSoC5/IntBluetoothUART_1.c **** *
 331:Generated_Source\PSoC5/IntBluetoothUART_1.c **** *******************************************************************************/
 332:Generated_Source\PSoC5/IntBluetoothUART_1.c **** uint8 IntBluetoothUART_1_GetState(void)
 333:Generated_Source\PSoC5/IntBluetoothUART_1.c **** {
 196              		.loc 1 333 0
 197              		.cfi_startproc
 198              		@ args = 0, pretend = 0, frame = 0
 199              		@ frame_needed = 0, uses_anonymous_args = 0
 200              		@ link register save eliminated.
 334:Generated_Source\PSoC5/IntBluetoothUART_1.c ****     /* Get the state of the general interrupt. */
 335:Generated_Source\PSoC5/IntBluetoothUART_1.c ****     return ((*IntBluetoothUART_1_INTC_SET_EN & (uint32)IntBluetoothUART_1__INTC_MASK) != 0u) ? 1u:0
 201              		.loc 1 335 0
 202 0000 044B     		ldr	r3, .L23
 203 0002 1B68     		ldr	r3, [r3]
 204 0004 13F0020F 		tst	r3, #2
 205 0008 01D0     		beq	.L22
 206 000a 0120     		movs	r0, #1
 207 000c 7047     		bx	lr
 208              	.L22:
 209 000e 0020     		movs	r0, #0
 336:Generated_Source\PSoC5/IntBluetoothUART_1.c **** }
 210              		.loc 1 336 0
 211 0010 7047     		bx	lr
 212              	.L24:
 213 0012 00BF     		.align	2
 214              	.L23:
 215 0014 00E100E0 		.word	-536813312
 216              		.cfi_endproc
 217              	.LFE9:
 218              		.size	IntBluetoothUART_1_GetState, .-IntBluetoothUART_1_GetState
 219              		.section	.text.IntBluetoothUART_1_Disable,"ax",%progbits
 220              		.align	2
 221              		.global	IntBluetoothUART_1_Disable
 222              		.thumb
 223              		.thumb_func
 224              		.type	IntBluetoothUART_1_Disable, %function
 225              	IntBluetoothUART_1_Disable:
 226              	.LFB10:
 337:Generated_Source\PSoC5/IntBluetoothUART_1.c **** 
 338:Generated_Source\PSoC5/IntBluetoothUART_1.c **** 
 339:Generated_Source\PSoC5/IntBluetoothUART_1.c **** /*******************************************************************************
 340:Generated_Source\PSoC5/IntBluetoothUART_1.c **** * Function Name: IntBluetoothUART_1_Disable
 341:Generated_Source\PSoC5/IntBluetoothUART_1.c **** ********************************************************************************
 342:Generated_Source\PSoC5/IntBluetoothUART_1.c **** *
 343:Generated_Source\PSoC5/IntBluetoothUART_1.c **** * Summary:
 344:Generated_Source\PSoC5/IntBluetoothUART_1.c **** *   Disables the Interrupt in the interrupt controller.
ARM GAS  C:\Users\bchir\AppData\Local\Temp\cceQytf2.s 			page 11


 345:Generated_Source\PSoC5/IntBluetoothUART_1.c **** *
 346:Generated_Source\PSoC5/IntBluetoothUART_1.c **** * Parameters:
 347:Generated_Source\PSoC5/IntBluetoothUART_1.c **** *   None
 348:Generated_Source\PSoC5/IntBluetoothUART_1.c **** *
 349:Generated_Source\PSoC5/IntBluetoothUART_1.c **** * Return:
 350:Generated_Source\PSoC5/IntBluetoothUART_1.c **** *   None
 351:Generated_Source\PSoC5/IntBluetoothUART_1.c **** *
 352:Generated_Source\PSoC5/IntBluetoothUART_1.c **** *******************************************************************************/
 353:Generated_Source\PSoC5/IntBluetoothUART_1.c **** void IntBluetoothUART_1_Disable(void)
 354:Generated_Source\PSoC5/IntBluetoothUART_1.c **** {
 227              		.loc 1 354 0
 228              		.cfi_startproc
 229              		@ args = 0, pretend = 0, frame = 0
 230              		@ frame_needed = 0, uses_anonymous_args = 0
 231              		@ link register save eliminated.
 355:Generated_Source\PSoC5/IntBluetoothUART_1.c ****     /* Disable the general interrupt. */
 356:Generated_Source\PSoC5/IntBluetoothUART_1.c ****     *IntBluetoothUART_1_INTC_CLR_EN = IntBluetoothUART_1__INTC_MASK;
 232              		.loc 1 356 0
 233 0000 0222     		movs	r2, #2
 234 0002 014B     		ldr	r3, .L26
 235 0004 1A60     		str	r2, [r3]
 236 0006 7047     		bx	lr
 237              	.L27:
 238              		.align	2
 239              	.L26:
 240 0008 80E100E0 		.word	-536813184
 241              		.cfi_endproc
 242              	.LFE10:
 243              		.size	IntBluetoothUART_1_Disable, .-IntBluetoothUART_1_Disable
 244              		.section	.text.IntBluetoothUART_1_Start,"ax",%progbits
 245              		.align	2
 246              		.global	IntBluetoothUART_1_Start
 247              		.thumb
 248              		.thumb_func
 249              		.type	IntBluetoothUART_1_Start, %function
 250              	IntBluetoothUART_1_Start:
 251              	.LFB0:
  63:Generated_Source\PSoC5/IntBluetoothUART_1.c ****     /* For all we know the interrupt is active. */
 252              		.loc 1 63 0
 253              		.cfi_startproc
 254              		@ args = 0, pretend = 0, frame = 0
 255              		@ frame_needed = 0, uses_anonymous_args = 0
 256 0000 08B5     		push	{r3, lr}
 257              		.cfi_def_cfa_offset 8
 258              		.cfi_offset 3, -8
 259              		.cfi_offset 14, -4
  65:Generated_Source\PSoC5/IntBluetoothUART_1.c **** 
 260              		.loc 1 65 0
 261 0002 FFF7FEFF 		bl	IntBluetoothUART_1_Disable
 262              	.LVL8:
  68:Generated_Source\PSoC5/IntBluetoothUART_1.c **** 
 263              		.loc 1 68 0
 264 0006 0448     		ldr	r0, .L30
 265 0008 FFF7FEFF 		bl	IntBluetoothUART_1_SetVector
 266              	.LVL9:
  71:Generated_Source\PSoC5/IntBluetoothUART_1.c **** 
 267              		.loc 1 71 0
ARM GAS  C:\Users\bchir\AppData\Local\Temp\cceQytf2.s 			page 12


 268 000c 0720     		movs	r0, #7
 269 000e FFF7FEFF 		bl	IntBluetoothUART_1_SetPriority
 270              	.LVL10:
  74:Generated_Source\PSoC5/IntBluetoothUART_1.c **** }
 271              		.loc 1 74 0
 272 0012 FFF7FEFF 		bl	IntBluetoothUART_1_Enable
 273              	.LVL11:
 274 0016 08BD     		pop	{r3, pc}
 275              	.L31:
 276              		.align	2
 277              	.L30:
 278 0018 00000000 		.word	IntBluetoothUART_1_Interrupt
 279              		.cfi_endproc
 280              	.LFE0:
 281              		.size	IntBluetoothUART_1_Start, .-IntBluetoothUART_1_Start
 282              		.section	.text.IntBluetoothUART_1_StartEx,"ax",%progbits
 283              		.align	2
 284              		.global	IntBluetoothUART_1_StartEx
 285              		.thumb
 286              		.thumb_func
 287              		.type	IntBluetoothUART_1_StartEx, %function
 288              	IntBluetoothUART_1_StartEx:
 289              	.LFB1:
 106:Generated_Source\PSoC5/IntBluetoothUART_1.c ****     /* For all we know the interrupt is active. */
 290              		.loc 1 106 0
 291              		.cfi_startproc
 292              		@ args = 0, pretend = 0, frame = 0
 293              		@ frame_needed = 0, uses_anonymous_args = 0
 294              	.LVL12:
 295 0000 10B5     		push	{r4, lr}
 296              		.cfi_def_cfa_offset 8
 297              		.cfi_offset 4, -8
 298              		.cfi_offset 14, -4
 299 0002 0446     		mov	r4, r0
 108:Generated_Source\PSoC5/IntBluetoothUART_1.c **** 
 300              		.loc 1 108 0
 301 0004 FFF7FEFF 		bl	IntBluetoothUART_1_Disable
 302              	.LVL13:
 111:Generated_Source\PSoC5/IntBluetoothUART_1.c **** 
 303              		.loc 1 111 0
 304 0008 2046     		mov	r0, r4
 305 000a FFF7FEFF 		bl	IntBluetoothUART_1_SetVector
 306              	.LVL14:
 114:Generated_Source\PSoC5/IntBluetoothUART_1.c **** 
 307              		.loc 1 114 0
 308 000e 0720     		movs	r0, #7
 309 0010 FFF7FEFF 		bl	IntBluetoothUART_1_SetPriority
 310              	.LVL15:
 117:Generated_Source\PSoC5/IntBluetoothUART_1.c **** }
 311              		.loc 1 117 0
 312 0014 FFF7FEFF 		bl	IntBluetoothUART_1_Enable
 313              	.LVL16:
 314 0018 10BD     		pop	{r4, pc}
 315              		.cfi_endproc
 316              	.LFE1:
 317              		.size	IntBluetoothUART_1_StartEx, .-IntBluetoothUART_1_StartEx
 318 001a 00BF     		.section	.text.IntBluetoothUART_1_Stop,"ax",%progbits
ARM GAS  C:\Users\bchir\AppData\Local\Temp\cceQytf2.s 			page 13


 319              		.align	2
 320              		.global	IntBluetoothUART_1_Stop
 321              		.thumb
 322              		.thumb_func
 323              		.type	IntBluetoothUART_1_Stop, %function
 324              	IntBluetoothUART_1_Stop:
 325              	.LFB2:
 136:Generated_Source\PSoC5/IntBluetoothUART_1.c ****     /* Disable this interrupt. */
 326              		.loc 1 136 0
 327              		.cfi_startproc
 328              		@ args = 0, pretend = 0, frame = 0
 329              		@ frame_needed = 0, uses_anonymous_args = 0
 330 0000 08B5     		push	{r3, lr}
 331              		.cfi_def_cfa_offset 8
 332              		.cfi_offset 3, -8
 333              		.cfi_offset 14, -4
 138:Generated_Source\PSoC5/IntBluetoothUART_1.c **** 
 334              		.loc 1 138 0
 335 0002 FFF7FEFF 		bl	IntBluetoothUART_1_Disable
 336              	.LVL17:
 141:Generated_Source\PSoC5/IntBluetoothUART_1.c **** }
 337              		.loc 1 141 0
 338 0006 0248     		ldr	r0, .L36
 339 0008 FFF7FEFF 		bl	IntBluetoothUART_1_SetVector
 340              	.LVL18:
 341 000c 08BD     		pop	{r3, pc}
 342              	.L37:
 343 000e 00BF     		.align	2
 344              	.L36:
 345 0010 00000000 		.word	IntDefaultHandler
 346              		.cfi_endproc
 347              	.LFE2:
 348              		.size	IntBluetoothUART_1_Stop, .-IntBluetoothUART_1_Stop
 349              		.section	.text.IntBluetoothUART_1_SetPending,"ax",%progbits
 350              		.align	2
 351              		.global	IntBluetoothUART_1_SetPending
 352              		.thumb
 353              		.thumb_func
 354              		.type	IntBluetoothUART_1_SetPending, %function
 355              	IntBluetoothUART_1_SetPending:
 356              	.LFB11:
 357:Generated_Source\PSoC5/IntBluetoothUART_1.c **** }
 358:Generated_Source\PSoC5/IntBluetoothUART_1.c **** 
 359:Generated_Source\PSoC5/IntBluetoothUART_1.c **** 
 360:Generated_Source\PSoC5/IntBluetoothUART_1.c **** /*******************************************************************************
 361:Generated_Source\PSoC5/IntBluetoothUART_1.c **** * Function Name: IntBluetoothUART_1_SetPending
 362:Generated_Source\PSoC5/IntBluetoothUART_1.c **** ********************************************************************************
 363:Generated_Source\PSoC5/IntBluetoothUART_1.c **** *
 364:Generated_Source\PSoC5/IntBluetoothUART_1.c **** * Summary:
 365:Generated_Source\PSoC5/IntBluetoothUART_1.c **** *   Causes the Interrupt to enter the pending state, a software method of
 366:Generated_Source\PSoC5/IntBluetoothUART_1.c **** *   generating the interrupt.
 367:Generated_Source\PSoC5/IntBluetoothUART_1.c **** *
 368:Generated_Source\PSoC5/IntBluetoothUART_1.c **** * Parameters:
 369:Generated_Source\PSoC5/IntBluetoothUART_1.c **** *   None
 370:Generated_Source\PSoC5/IntBluetoothUART_1.c **** *
 371:Generated_Source\PSoC5/IntBluetoothUART_1.c **** * Return:
 372:Generated_Source\PSoC5/IntBluetoothUART_1.c **** *   None
ARM GAS  C:\Users\bchir\AppData\Local\Temp\cceQytf2.s 			page 14


 373:Generated_Source\PSoC5/IntBluetoothUART_1.c **** *
 374:Generated_Source\PSoC5/IntBluetoothUART_1.c **** * Side Effects:
 375:Generated_Source\PSoC5/IntBluetoothUART_1.c **** *   If interrupts are enabled and the interrupt is set up properly, the ISR is
 376:Generated_Source\PSoC5/IntBluetoothUART_1.c **** *   entered (depending on the priority of this interrupt and other pending 
 377:Generated_Source\PSoC5/IntBluetoothUART_1.c **** *   interrupts).
 378:Generated_Source\PSoC5/IntBluetoothUART_1.c **** *
 379:Generated_Source\PSoC5/IntBluetoothUART_1.c **** *******************************************************************************/
 380:Generated_Source\PSoC5/IntBluetoothUART_1.c **** void IntBluetoothUART_1_SetPending(void)
 381:Generated_Source\PSoC5/IntBluetoothUART_1.c **** {
 357              		.loc 1 381 0
 358              		.cfi_startproc
 359              		@ args = 0, pretend = 0, frame = 0
 360              		@ frame_needed = 0, uses_anonymous_args = 0
 361              		@ link register save eliminated.
 382:Generated_Source\PSoC5/IntBluetoothUART_1.c ****     *IntBluetoothUART_1_INTC_SET_PD = IntBluetoothUART_1__INTC_MASK;
 362              		.loc 1 382 0
 363 0000 0222     		movs	r2, #2
 364 0002 014B     		ldr	r3, .L39
 365 0004 1A60     		str	r2, [r3]
 366 0006 7047     		bx	lr
 367              	.L40:
 368              		.align	2
 369              	.L39:
 370 0008 00E200E0 		.word	-536813056
 371              		.cfi_endproc
 372              	.LFE11:
 373              		.size	IntBluetoothUART_1_SetPending, .-IntBluetoothUART_1_SetPending
 374              		.section	.text.IntBluetoothUART_1_ClearPending,"ax",%progbits
 375              		.align	2
 376              		.global	IntBluetoothUART_1_ClearPending
 377              		.thumb
 378              		.thumb_func
 379              		.type	IntBluetoothUART_1_ClearPending, %function
 380              	IntBluetoothUART_1_ClearPending:
 381              	.LFB12:
 383:Generated_Source\PSoC5/IntBluetoothUART_1.c **** }
 384:Generated_Source\PSoC5/IntBluetoothUART_1.c **** 
 385:Generated_Source\PSoC5/IntBluetoothUART_1.c **** 
 386:Generated_Source\PSoC5/IntBluetoothUART_1.c **** /*******************************************************************************
 387:Generated_Source\PSoC5/IntBluetoothUART_1.c **** * Function Name: IntBluetoothUART_1_ClearPending
 388:Generated_Source\PSoC5/IntBluetoothUART_1.c **** ********************************************************************************
 389:Generated_Source\PSoC5/IntBluetoothUART_1.c **** *
 390:Generated_Source\PSoC5/IntBluetoothUART_1.c **** * Summary:
 391:Generated_Source\PSoC5/IntBluetoothUART_1.c **** *   Clears a pending interrupt in the interrupt controller.
 392:Generated_Source\PSoC5/IntBluetoothUART_1.c **** *
 393:Generated_Source\PSoC5/IntBluetoothUART_1.c **** *   Note Some interrupt sources are clear-on-read and require the block 
 394:Generated_Source\PSoC5/IntBluetoothUART_1.c **** *   interrupt/status register to be read/cleared with the appropriate block API 
 395:Generated_Source\PSoC5/IntBluetoothUART_1.c **** *   (GPIO, UART, and so on). Otherwise the ISR will continue to remain in 
 396:Generated_Source\PSoC5/IntBluetoothUART_1.c **** *   pending state even though the interrupt itself is cleared using this API.
 397:Generated_Source\PSoC5/IntBluetoothUART_1.c **** *
 398:Generated_Source\PSoC5/IntBluetoothUART_1.c **** * Parameters:
 399:Generated_Source\PSoC5/IntBluetoothUART_1.c **** *   None
 400:Generated_Source\PSoC5/IntBluetoothUART_1.c **** *
 401:Generated_Source\PSoC5/IntBluetoothUART_1.c **** * Return:
 402:Generated_Source\PSoC5/IntBluetoothUART_1.c **** *   None
 403:Generated_Source\PSoC5/IntBluetoothUART_1.c **** *
 404:Generated_Source\PSoC5/IntBluetoothUART_1.c **** *******************************************************************************/
ARM GAS  C:\Users\bchir\AppData\Local\Temp\cceQytf2.s 			page 15


 405:Generated_Source\PSoC5/IntBluetoothUART_1.c **** void IntBluetoothUART_1_ClearPending(void)
 406:Generated_Source\PSoC5/IntBluetoothUART_1.c **** {
 382              		.loc 1 406 0
 383              		.cfi_startproc
 384              		@ args = 0, pretend = 0, frame = 0
 385              		@ frame_needed = 0, uses_anonymous_args = 0
 386              		@ link register save eliminated.
 407:Generated_Source\PSoC5/IntBluetoothUART_1.c ****     *IntBluetoothUART_1_INTC_CLR_PD = IntBluetoothUART_1__INTC_MASK;
 387              		.loc 1 407 0
 388 0000 0222     		movs	r2, #2
 389 0002 014B     		ldr	r3, .L42
 390 0004 1A60     		str	r2, [r3]
 391 0006 7047     		bx	lr
 392              	.L43:
 393              		.align	2
 394              	.L42:
 395 0008 80E200E0 		.word	-536812928
 396              		.cfi_endproc
 397              	.LFE12:
 398              		.size	IntBluetoothUART_1_ClearPending, .-IntBluetoothUART_1_ClearPending
 399              		.bss
 400              		.align	2
 401              		.set	.LANCHOR0,. + 0
 402              		.type	x.5016, %object
 403              		.size	x.5016, 4
 404              	x.5016:
 405 0000 00000000 		.space	4
 406              		.text
 407              	.Letext0:
 408              		.file 2 "Generated_Source\\PSoC5/cytypes.h"
 409              		.file 3 "Generated_Source\\PSoC5\\Counter_1.h"