ARM GAS  C:\Users\bchir\AppData\Local\Temp\ccELuvJK.s 			page 1


   1              		.syntax unified
   2              		.cpu cortex-m3
   3              		.fpu softvfp
   4              		.eabi_attribute 20, 1
   5              		.eabi_attribute 21, 1
   6              		.eabi_attribute 23, 3
   7              		.eabi_attribute 24, 1
   8              		.eabi_attribute 25, 1
   9              		.eabi_attribute 26, 1
  10              		.eabi_attribute 30, 1
  11              		.eabi_attribute 34, 1
  12              		.eabi_attribute 18, 4
  13              		.thumb
  14              		.syntax unified
  15              		.file	"main.c"
  16              		.text
  17              	.Ltext0:
  18              		.cfi_sections	.debug_frame
  19              		.section	.text.prvHardwareSetup,"ax",%progbits
  20              		.align	2
  21              		.thumb
  22              		.thumb_func
  23              		.type	prvHardwareSetup, %function
  24              	prvHardwareSetup:
  25              	.LFB69:
  26              		.file 1 "main.c"
   1:main.c        **** /* ========================================
   2:main.c        **** 	*
   3:main.c        **** 	* Copyright YOUR COMPANY, THE YEAR
   4:main.c        **** 	* All Rights Reserved
   5:main.c        **** 	* UNPUBLISHED, LICENSED SOFTWARE.
   6:main.c        **** 	*
   7:main.c        **** 	* CONFIDENTIAL AND PROPRIETARY INFORMATION
   8:main.c        **** 	* WHICH IS THE PROPERTY OF your company.
   9:main.c        **** 	*
  10:main.c        **** 	* ========================================
  11:main.c        **** */
  12:main.c        **** #include "project.h"
  13:main.c        **** #include "FreeRTOS.h"
  14:main.c        **** #include "task.h"
  15:main.c        **** 
  16:main.c        **** #include "BluetoothComms.h"
  17:main.c        **** #include "UserButtonControl.h"
  18:main.c        **** #include "VehicleBatteryVoltage.h"
  19:main.c        **** #include "SystemMessenger.h"
  20:main.c        **** #include "PowerMonitoringAndControl.h"
  21:main.c        **** 
  22:main.c        **** static void prvHardwareSetup( void );
  23:main.c        **** 
  24:main.c        **** 
  25:main.c        **** 
  26:main.c        **** static void startSystemTasks();
  27:main.c        **** 
  28:main.c        **** int main(void)
  29:main.c        **** 
  30:main.c        **** 
  31:main.c        **** {
ARM GAS  C:\Users\bchir\AppData\Local\Temp\ccELuvJK.s 			page 2


  32:main.c        ****     CyDelay(500);
  33:main.c        ****     
  34:main.c        ****     BlueLedd_Write(1);
  35:main.c        ****     
  36:main.c        **** 	CyGlobalIntEnable; /* Enable global interrupts. */
  37:main.c        **** 	
  38:main.c        **** 	prvHardwareSetup();
  39:main.c        **** 	
  40:main.c        ****     /*Place all stasts to run in this function*/
  41:main.c        ****     startSystemTasks();
  42:main.c        **** 	
  43:main.c        **** 	vTaskStartScheduler();
  44:main.c        **** 	
  45:main.c        **** 	
  46:main.c        **** 	for(;;)
  47:main.c        **** 	
  48:main.c        **** 	{
  49:main.c        **** 		/* Place your application code here. */
  50:main.c        **** 		
  51:main.c        **** 	}
  52:main.c        **** }
  53:main.c        **** 
  54:main.c        **** static void prvHardwareSetup( void )
  55:main.c        **** {
  27              		.loc 1 55 0
  28              		.cfi_startproc
  29              		@ args = 0, pretend = 0, frame = 0
  30              		@ frame_needed = 0, uses_anonymous_args = 0
  31              		@ link register save eliminated.
  56:main.c        **** 	
  57:main.c        **** 	/* Port layer functions that need to be copied into the vector table. */
  58:main.c        **** 	
  59:main.c        **** 	extern void xPortPendSVHandler( void );
  60:main.c        **** 	extern void xPortSysTickHandler( void );
  61:main.c        **** 	extern void vPortSVCHandler( void );
  62:main.c        **** 	extern cyisraddress CyRamVectors[];
  63:main.c        **** 	
  64:main.c        **** 	/* Install the OS Interrupt Handlers. */
  65:main.c        **** 	CyRamVectors[ 11 ] = ( cyisraddress ) vPortSVCHandler;
  32              		.loc 1 65 0
  33 0000 034B     		ldr	r3, .L2
  34 0002 044A     		ldr	r2, .L2+4
  35 0004 DA62     		str	r2, [r3, #44]
  66:main.c        **** 	CyRamVectors[ 14 ] = ( cyisraddress ) xPortPendSVHandler;
  36              		.loc 1 66 0
  37 0006 044A     		ldr	r2, .L2+8
  38 0008 9A63     		str	r2, [r3, #56]
  67:main.c        **** 	CyRamVectors[ 15 ] = ( cyisraddress ) xPortSysTickHandler;
  39              		.loc 1 67 0
  40 000a 044A     		ldr	r2, .L2+12
  41 000c DA63     		str	r2, [r3, #60]
  42 000e 7047     		bx	lr
  43              	.L3:
  44              		.align	2
  45              	.L2:
  46 0010 00000000 		.word	CyRamVectors
  47 0014 00000000 		.word	vPortSVCHandler
ARM GAS  C:\Users\bchir\AppData\Local\Temp\ccELuvJK.s 			page 3


  48 0018 00000000 		.word	xPortPendSVHandler
  49 001c 00000000 		.word	xPortSysTickHandler
  50              		.cfi_endproc
  51              	.LFE69:
  52              		.size	prvHardwareSetup, .-prvHardwareSetup
  53              		.section	.text.startSystemTasks,"ax",%progbits
  54              		.align	2
  55              		.thumb
  56              		.thumb_func
  57              		.type	startSystemTasks, %function
  58              	startSystemTasks:
  59              	.LFB71:
  68:main.c        **** 	
  69:main.c        **** 	/* Start-up the peripherals. */
  70:main.c        **** 	
  71:main.c        **** 	
  72:main.c        **** }
  73:main.c        **** /*---------------------------------------------------------------------------*/
  74:main.c        **** 
  75:main.c        **** void vApplicationStackOverflowHook( TaskHandle_t pxTask, char *pcTaskName )
  76:main.c        **** {
  77:main.c        **** 	/* The stack space has been exceeded for a task, considering allocating more. */
  78:main.c        **** 	taskDISABLE_INTERRUPTS();
  79:main.c        **** 	for( ;; );
  80:main.c        **** }
  81:main.c        **** /*---------------------------------------------------------------------------*/
  82:main.c        **** 
  83:main.c        **** 
  84:main.c        **** static void startSystemTasks()
  85:main.c        **** {
  60              		.loc 1 85 0
  61              		.cfi_startproc
  62              		@ args = 0, pretend = 0, frame = 0
  63              		@ frame_needed = 0, uses_anonymous_args = 0
  64 0000 08B5     		push	{r3, lr}
  65              		.cfi_def_cfa_offset 8
  66              		.cfi_offset 3, -8
  67              		.cfi_offset 14, -4
  86:main.c        ****     startTaskBluetoothComms();
  68              		.loc 1 86 0
  69 0002 FFF7FEFF 		bl	startTaskBluetoothComms
  70              	.LVL0:
  87:main.c        ****     startTaskUserButtonControl();
  71              		.loc 1 87 0
  72 0006 FFF7FEFF 		bl	startTaskUserButtonControl
  73              	.LVL1:
  88:main.c        ****     startTaskVehicleBatteryVoltage();
  74              		.loc 1 88 0
  75 000a FFF7FEFF 		bl	startTaskVehicleBatteryVoltage
  76              	.LVL2:
  89:main.c        ****     startTaskSystemMessenger();
  77              		.loc 1 89 0
  78 000e FFF7FEFF 		bl	startTaskSystemMessenger
  79              	.LVL3:
  90:main.c        ****     startTaskPowerMonitoringAndControl();
  80              		.loc 1 90 0
  81 0012 FFF7FEFF 		bl	startTaskPowerMonitoringAndControl
ARM GAS  C:\Users\bchir\AppData\Local\Temp\ccELuvJK.s 			page 4


  82              	.LVL4:
  83 0016 08BD     		pop	{r3, pc}
  84              		.cfi_endproc
  85              	.LFE71:
  86              		.size	startSystemTasks, .-startSystemTasks
  87              		.section	.text.main,"ax",%progbits
  88              		.align	2
  89              		.global	main
  90              		.thumb
  91              		.thumb_func
  92              		.type	main, %function
  93              	main:
  94              	.LFB68:
  31:main.c        ****     CyDelay(500);
  95              		.loc 1 31 0
  96              		.cfi_startproc
  97              		@ Volatile: function does not return.
  98              		@ args = 0, pretend = 0, frame = 0
  99              		@ frame_needed = 0, uses_anonymous_args = 0
 100 0000 08B5     		push	{r3, lr}
 101              		.cfi_def_cfa_offset 8
 102              		.cfi_offset 3, -8
 103              		.cfi_offset 14, -4
  32:main.c        ****     
 104              		.loc 1 32 0
 105 0002 4FF4FA70 		mov	r0, #500
 106 0006 FFF7FEFF 		bl	CyDelay
 107              	.LVL5:
  34:main.c        ****     
 108              		.loc 1 34 0
 109 000a 0120     		movs	r0, #1
 110 000c FFF7FEFF 		bl	BlueLedd_Write
 111              	.LVL6:
  36:main.c        **** 	
 112              		.loc 1 36 0
 113              		.syntax unified
 114              	@ 36 "main.c" 1
 115 0010 62B6     		CPSIE   i
 116              	@ 0 "" 2
  38:main.c        **** 	
 117              		.loc 1 38 0
 118              		.thumb
 119              		.syntax unified
 120 0012 FFF7FEFF 		bl	prvHardwareSetup
 121              	.LVL7:
  41:main.c        **** 	
 122              		.loc 1 41 0
 123 0016 FFF7FEFF 		bl	startSystemTasks
 124              	.LVL8:
  43:main.c        **** 	
 125              		.loc 1 43 0
 126 001a FFF7FEFF 		bl	vTaskStartScheduler
 127              	.LVL9:
 128              	.L7:
 129 001e FEE7     		b	.L7
 130              		.cfi_endproc
 131              	.LFE68:
ARM GAS  C:\Users\bchir\AppData\Local\Temp\ccELuvJK.s 			page 5


 132              		.size	main, .-main
 133              		.section	.text.vApplicationStackOverflowHook,"ax",%progbits
 134              		.align	2
 135              		.global	vApplicationStackOverflowHook
 136              		.thumb
 137              		.thumb_func
 138              		.type	vApplicationStackOverflowHook, %function
 139              	vApplicationStackOverflowHook:
 140              	.LFB70:
  76:main.c        **** 	/* The stack space has been exceeded for a task, considering allocating more. */
 141              		.loc 1 76 0
 142              		.cfi_startproc
 143              		@ Volatile: function does not return.
 144              		@ args = 0, pretend = 0, frame = 0
 145              		@ frame_needed = 0, uses_anonymous_args = 0
 146              		@ link register save eliminated.
 147              	.LVL10:
 148              	.LBB4:
 149              	.LBB5:
 150              		.file 2 "..\\..\\..\\FreeRTOS\\FreeRTOS-Kernel\\portable\\GCC\\ARM_CM3/portmacro.h"
   1:..\..\..\FreeRTOS\FreeRTOS-Kernel\portable\GCC\ARM_CM3/portmacro.h **** /*
   2:..\..\..\FreeRTOS\FreeRTOS-Kernel\portable\GCC\ARM_CM3/portmacro.h ****  * FreeRTOS Kernel <DEVELOPMENT BRANCH>
   3:..\..\..\FreeRTOS\FreeRTOS-Kernel\portable\GCC\ARM_CM3/portmacro.h ****  * Copyright (C) 2021 Amazon.com, Inc. or its affiliates.  All Rights Reserved.
   4:..\..\..\FreeRTOS\FreeRTOS-Kernel\portable\GCC\ARM_CM3/portmacro.h ****  *
   5:..\..\..\FreeRTOS\FreeRTOS-Kernel\portable\GCC\ARM_CM3/portmacro.h ****  * SPDX-License-Identifier: MIT
   6:..\..\..\FreeRTOS\FreeRTOS-Kernel\portable\GCC\ARM_CM3/portmacro.h ****  *
   7:..\..\..\FreeRTOS\FreeRTOS-Kernel\portable\GCC\ARM_CM3/portmacro.h ****  * Permission is hereby granted, free of charge, to any person obtaining a copy of
   8:..\..\..\FreeRTOS\FreeRTOS-Kernel\portable\GCC\ARM_CM3/portmacro.h ****  * this software and associated documentation files (the "Software"), to deal in
   9:..\..\..\FreeRTOS\FreeRTOS-Kernel\portable\GCC\ARM_CM3/portmacro.h ****  * the Software without restriction, including without limitation the rights to
  10:..\..\..\FreeRTOS\FreeRTOS-Kernel\portable\GCC\ARM_CM3/portmacro.h ****  * use, copy, modify, merge, publish, distribute, sublicense, and/or sell copies of
  11:..\..\..\FreeRTOS\FreeRTOS-Kernel\portable\GCC\ARM_CM3/portmacro.h ****  * the Software, and to permit persons to whom the Software is furnished to do so,
  12:..\..\..\FreeRTOS\FreeRTOS-Kernel\portable\GCC\ARM_CM3/portmacro.h ****  * subject to the following conditions:
  13:..\..\..\FreeRTOS\FreeRTOS-Kernel\portable\GCC\ARM_CM3/portmacro.h ****  *
  14:..\..\..\FreeRTOS\FreeRTOS-Kernel\portable\GCC\ARM_CM3/portmacro.h ****  * The above copyright notice and this permission notice shall be included in all
  15:..\..\..\FreeRTOS\FreeRTOS-Kernel\portable\GCC\ARM_CM3/portmacro.h ****  * copies or substantial portions of the Software.
  16:..\..\..\FreeRTOS\FreeRTOS-Kernel\portable\GCC\ARM_CM3/portmacro.h ****  *
  17:..\..\..\FreeRTOS\FreeRTOS-Kernel\portable\GCC\ARM_CM3/portmacro.h ****  * THE SOFTWARE IS PROVIDED "AS IS", WITHOUT WARRANTY OF ANY KIND, EXPRESS OR
  18:..\..\..\FreeRTOS\FreeRTOS-Kernel\portable\GCC\ARM_CM3/portmacro.h ****  * IMPLIED, INCLUDING BUT NOT LIMITED TO THE WARRANTIES OF MERCHANTABILITY, FITNESS
  19:..\..\..\FreeRTOS\FreeRTOS-Kernel\portable\GCC\ARM_CM3/portmacro.h ****  * FOR A PARTICULAR PURPOSE AND NONINFRINGEMENT. IN NO EVENT SHALL THE AUTHORS OR
  20:..\..\..\FreeRTOS\FreeRTOS-Kernel\portable\GCC\ARM_CM3/portmacro.h ****  * COPYRIGHT HOLDERS BE LIABLE FOR ANY CLAIM, DAMAGES OR OTHER LIABILITY, WHETHER
  21:..\..\..\FreeRTOS\FreeRTOS-Kernel\portable\GCC\ARM_CM3/portmacro.h ****  * IN AN ACTION OF CONTRACT, TORT OR OTHERWISE, ARISING FROM, OUT OF OR IN
  22:..\..\..\FreeRTOS\FreeRTOS-Kernel\portable\GCC\ARM_CM3/portmacro.h ****  * CONNECTION WITH THE SOFTWARE OR THE USE OR OTHER DEALINGS IN THE SOFTWARE.
  23:..\..\..\FreeRTOS\FreeRTOS-Kernel\portable\GCC\ARM_CM3/portmacro.h ****  *
  24:..\..\..\FreeRTOS\FreeRTOS-Kernel\portable\GCC\ARM_CM3/portmacro.h ****  * https://www.FreeRTOS.org
  25:..\..\..\FreeRTOS\FreeRTOS-Kernel\portable\GCC\ARM_CM3/portmacro.h ****  * https://github.com/FreeRTOS
  26:..\..\..\FreeRTOS\FreeRTOS-Kernel\portable\GCC\ARM_CM3/portmacro.h ****  *
  27:..\..\..\FreeRTOS\FreeRTOS-Kernel\portable\GCC\ARM_CM3/portmacro.h ****  */
  28:..\..\..\FreeRTOS\FreeRTOS-Kernel\portable\GCC\ARM_CM3/portmacro.h **** 
  29:..\..\..\FreeRTOS\FreeRTOS-Kernel\portable\GCC\ARM_CM3/portmacro.h **** 
  30:..\..\..\FreeRTOS\FreeRTOS-Kernel\portable\GCC\ARM_CM3/portmacro.h **** #ifndef PORTMACRO_H
  31:..\..\..\FreeRTOS\FreeRTOS-Kernel\portable\GCC\ARM_CM3/portmacro.h ****     #define PORTMACRO_H
  32:..\..\..\FreeRTOS\FreeRTOS-Kernel\portable\GCC\ARM_CM3/portmacro.h **** 
  33:..\..\..\FreeRTOS\FreeRTOS-Kernel\portable\GCC\ARM_CM3/portmacro.h **** /* *INDENT-OFF* */
  34:..\..\..\FreeRTOS\FreeRTOS-Kernel\portable\GCC\ARM_CM3/portmacro.h **** #ifdef __cplusplus
  35:..\..\..\FreeRTOS\FreeRTOS-Kernel\portable\GCC\ARM_CM3/portmacro.h ****     extern "C" {
  36:..\..\..\FreeRTOS\FreeRTOS-Kernel\portable\GCC\ARM_CM3/portmacro.h **** #endif
  37:..\..\..\FreeRTOS\FreeRTOS-Kernel\portable\GCC\ARM_CM3/portmacro.h **** /* *INDENT-ON* */
ARM GAS  C:\Users\bchir\AppData\Local\Temp\ccELuvJK.s 			page 6


  38:..\..\..\FreeRTOS\FreeRTOS-Kernel\portable\GCC\ARM_CM3/portmacro.h **** 
  39:..\..\..\FreeRTOS\FreeRTOS-Kernel\portable\GCC\ARM_CM3/portmacro.h **** /*-----------------------------------------------------------
  40:..\..\..\FreeRTOS\FreeRTOS-Kernel\portable\GCC\ARM_CM3/portmacro.h ****  * Port specific definitions.
  41:..\..\..\FreeRTOS\FreeRTOS-Kernel\portable\GCC\ARM_CM3/portmacro.h ****  *
  42:..\..\..\FreeRTOS\FreeRTOS-Kernel\portable\GCC\ARM_CM3/portmacro.h ****  * The settings in this file configure FreeRTOS correctly for the
  43:..\..\..\FreeRTOS\FreeRTOS-Kernel\portable\GCC\ARM_CM3/portmacro.h ****  * given hardware and compiler.
  44:..\..\..\FreeRTOS\FreeRTOS-Kernel\portable\GCC\ARM_CM3/portmacro.h ****  *
  45:..\..\..\FreeRTOS\FreeRTOS-Kernel\portable\GCC\ARM_CM3/portmacro.h ****  * These settings should not be altered.
  46:..\..\..\FreeRTOS\FreeRTOS-Kernel\portable\GCC\ARM_CM3/portmacro.h ****  *-----------------------------------------------------------
  47:..\..\..\FreeRTOS\FreeRTOS-Kernel\portable\GCC\ARM_CM3/portmacro.h ****  */
  48:..\..\..\FreeRTOS\FreeRTOS-Kernel\portable\GCC\ARM_CM3/portmacro.h **** 
  49:..\..\..\FreeRTOS\FreeRTOS-Kernel\portable\GCC\ARM_CM3/portmacro.h **** /* Type definitions. */
  50:..\..\..\FreeRTOS\FreeRTOS-Kernel\portable\GCC\ARM_CM3/portmacro.h ****     #define portCHAR          char
  51:..\..\..\FreeRTOS\FreeRTOS-Kernel\portable\GCC\ARM_CM3/portmacro.h ****     #define portFLOAT         float
  52:..\..\..\FreeRTOS\FreeRTOS-Kernel\portable\GCC\ARM_CM3/portmacro.h ****     #define portDOUBLE        double
  53:..\..\..\FreeRTOS\FreeRTOS-Kernel\portable\GCC\ARM_CM3/portmacro.h ****     #define portLONG          long
  54:..\..\..\FreeRTOS\FreeRTOS-Kernel\portable\GCC\ARM_CM3/portmacro.h ****     #define portSHORT         short
  55:..\..\..\FreeRTOS\FreeRTOS-Kernel\portable\GCC\ARM_CM3/portmacro.h ****     #define portSTACK_TYPE    uint32_t
  56:..\..\..\FreeRTOS\FreeRTOS-Kernel\portable\GCC\ARM_CM3/portmacro.h ****     #define portBASE_TYPE     long
  57:..\..\..\FreeRTOS\FreeRTOS-Kernel\portable\GCC\ARM_CM3/portmacro.h **** 
  58:..\..\..\FreeRTOS\FreeRTOS-Kernel\portable\GCC\ARM_CM3/portmacro.h ****     typedef portSTACK_TYPE   StackType_t;
  59:..\..\..\FreeRTOS\FreeRTOS-Kernel\portable\GCC\ARM_CM3/portmacro.h ****     typedef long             BaseType_t;
  60:..\..\..\FreeRTOS\FreeRTOS-Kernel\portable\GCC\ARM_CM3/portmacro.h ****     typedef unsigned long    UBaseType_t;
  61:..\..\..\FreeRTOS\FreeRTOS-Kernel\portable\GCC\ARM_CM3/portmacro.h **** 
  62:..\..\..\FreeRTOS\FreeRTOS-Kernel\portable\GCC\ARM_CM3/portmacro.h ****     #if ( configTICK_TYPE_WIDTH_IN_BITS == TICK_TYPE_WIDTH_16_BITS )
  63:..\..\..\FreeRTOS\FreeRTOS-Kernel\portable\GCC\ARM_CM3/portmacro.h ****         typedef uint16_t     TickType_t;
  64:..\..\..\FreeRTOS\FreeRTOS-Kernel\portable\GCC\ARM_CM3/portmacro.h ****         #define portMAX_DELAY              ( TickType_t ) 0xffff
  65:..\..\..\FreeRTOS\FreeRTOS-Kernel\portable\GCC\ARM_CM3/portmacro.h ****     #elif ( configTICK_TYPE_WIDTH_IN_BITS == TICK_TYPE_WIDTH_32_BITS )
  66:..\..\..\FreeRTOS\FreeRTOS-Kernel\portable\GCC\ARM_CM3/portmacro.h ****         typedef uint32_t     TickType_t;
  67:..\..\..\FreeRTOS\FreeRTOS-Kernel\portable\GCC\ARM_CM3/portmacro.h ****         #define portMAX_DELAY              ( TickType_t ) 0xffffffffUL
  68:..\..\..\FreeRTOS\FreeRTOS-Kernel\portable\GCC\ARM_CM3/portmacro.h **** 
  69:..\..\..\FreeRTOS\FreeRTOS-Kernel\portable\GCC\ARM_CM3/portmacro.h **** /* 32-bit tick type on a 32-bit architecture, so reads of the tick count do
  70:..\..\..\FreeRTOS\FreeRTOS-Kernel\portable\GCC\ARM_CM3/portmacro.h ****  * not need to be guarded with a critical section. */
  71:..\..\..\FreeRTOS\FreeRTOS-Kernel\portable\GCC\ARM_CM3/portmacro.h ****         #define portTICK_TYPE_IS_ATOMIC    1
  72:..\..\..\FreeRTOS\FreeRTOS-Kernel\portable\GCC\ARM_CM3/portmacro.h ****     #else
  73:..\..\..\FreeRTOS\FreeRTOS-Kernel\portable\GCC\ARM_CM3/portmacro.h ****         #error configTICK_TYPE_WIDTH_IN_BITS set to unsupported tick type width.
  74:..\..\..\FreeRTOS\FreeRTOS-Kernel\portable\GCC\ARM_CM3/portmacro.h ****     #endif
  75:..\..\..\FreeRTOS\FreeRTOS-Kernel\portable\GCC\ARM_CM3/portmacro.h **** /*-----------------------------------------------------------*/
  76:..\..\..\FreeRTOS\FreeRTOS-Kernel\portable\GCC\ARM_CM3/portmacro.h **** 
  77:..\..\..\FreeRTOS\FreeRTOS-Kernel\portable\GCC\ARM_CM3/portmacro.h **** /* Architecture specifics. */
  78:..\..\..\FreeRTOS\FreeRTOS-Kernel\portable\GCC\ARM_CM3/portmacro.h ****     #define portSTACK_GROWTH      ( -1 )
  79:..\..\..\FreeRTOS\FreeRTOS-Kernel\portable\GCC\ARM_CM3/portmacro.h ****     #define portTICK_PERIOD_MS    ( ( TickType_t ) 1000 / configTICK_RATE_HZ )
  80:..\..\..\FreeRTOS\FreeRTOS-Kernel\portable\GCC\ARM_CM3/portmacro.h ****     #define portBYTE_ALIGNMENT    8
  81:..\..\..\FreeRTOS\FreeRTOS-Kernel\portable\GCC\ARM_CM3/portmacro.h ****     #define portDONT_DISCARD      __attribute__( ( used ) )
  82:..\..\..\FreeRTOS\FreeRTOS-Kernel\portable\GCC\ARM_CM3/portmacro.h **** /*-----------------------------------------------------------*/
  83:..\..\..\FreeRTOS\FreeRTOS-Kernel\portable\GCC\ARM_CM3/portmacro.h **** 
  84:..\..\..\FreeRTOS\FreeRTOS-Kernel\portable\GCC\ARM_CM3/portmacro.h **** /* Scheduler utilities. */
  85:..\..\..\FreeRTOS\FreeRTOS-Kernel\portable\GCC\ARM_CM3/portmacro.h ****     #define portYIELD()                                 \
  86:..\..\..\FreeRTOS\FreeRTOS-Kernel\portable\GCC\ARM_CM3/portmacro.h ****     {                                                   \
  87:..\..\..\FreeRTOS\FreeRTOS-Kernel\portable\GCC\ARM_CM3/portmacro.h ****         /* Set a PendSV to request a context switch. */ \
  88:..\..\..\FreeRTOS\FreeRTOS-Kernel\portable\GCC\ARM_CM3/portmacro.h ****         portNVIC_INT_CTRL_REG = portNVIC_PENDSVSET_BIT; \
  89:..\..\..\FreeRTOS\FreeRTOS-Kernel\portable\GCC\ARM_CM3/portmacro.h ****                                                         \
  90:..\..\..\FreeRTOS\FreeRTOS-Kernel\portable\GCC\ARM_CM3/portmacro.h ****         /* Barriers are normally not required but do ensure the code is completely \
  91:..\..\..\FreeRTOS\FreeRTOS-Kernel\portable\GCC\ARM_CM3/portmacro.h ****          * within the specified behaviour for the architecture. */ \
  92:..\..\..\FreeRTOS\FreeRTOS-Kernel\portable\GCC\ARM_CM3/portmacro.h ****         __asm volatile ( "dsb" ::: "memory" );                     \
  93:..\..\..\FreeRTOS\FreeRTOS-Kernel\portable\GCC\ARM_CM3/portmacro.h ****         __asm volatile ( "isb" );                                  \
  94:..\..\..\FreeRTOS\FreeRTOS-Kernel\portable\GCC\ARM_CM3/portmacro.h ****     }
ARM GAS  C:\Users\bchir\AppData\Local\Temp\ccELuvJK.s 			page 7


  95:..\..\..\FreeRTOS\FreeRTOS-Kernel\portable\GCC\ARM_CM3/portmacro.h **** 
  96:..\..\..\FreeRTOS\FreeRTOS-Kernel\portable\GCC\ARM_CM3/portmacro.h ****     #define portNVIC_INT_CTRL_REG     ( *( ( volatile uint32_t * ) 0xe000ed04 ) )
  97:..\..\..\FreeRTOS\FreeRTOS-Kernel\portable\GCC\ARM_CM3/portmacro.h ****     #define portNVIC_PENDSVSET_BIT    ( 1UL << 28UL )
  98:..\..\..\FreeRTOS\FreeRTOS-Kernel\portable\GCC\ARM_CM3/portmacro.h ****     #define portEND_SWITCHING_ISR( xSwitchRequired )    do { if( xSwitchRequired != pdFALSE ) portY
  99:..\..\..\FreeRTOS\FreeRTOS-Kernel\portable\GCC\ARM_CM3/portmacro.h ****     #define portYIELD_FROM_ISR( x )                     portEND_SWITCHING_ISR( x )
 100:..\..\..\FreeRTOS\FreeRTOS-Kernel\portable\GCC\ARM_CM3/portmacro.h **** /*-----------------------------------------------------------*/
 101:..\..\..\FreeRTOS\FreeRTOS-Kernel\portable\GCC\ARM_CM3/portmacro.h **** 
 102:..\..\..\FreeRTOS\FreeRTOS-Kernel\portable\GCC\ARM_CM3/portmacro.h **** /* Critical section management. */
 103:..\..\..\FreeRTOS\FreeRTOS-Kernel\portable\GCC\ARM_CM3/portmacro.h ****     extern void vPortEnterCritical( void );
 104:..\..\..\FreeRTOS\FreeRTOS-Kernel\portable\GCC\ARM_CM3/portmacro.h ****     extern void vPortExitCritical( void );
 105:..\..\..\FreeRTOS\FreeRTOS-Kernel\portable\GCC\ARM_CM3/portmacro.h ****     #define portSET_INTERRUPT_MASK_FROM_ISR()         ulPortRaiseBASEPRI()
 106:..\..\..\FreeRTOS\FreeRTOS-Kernel\portable\GCC\ARM_CM3/portmacro.h ****     #define portCLEAR_INTERRUPT_MASK_FROM_ISR( x )    vPortSetBASEPRI( x )
 107:..\..\..\FreeRTOS\FreeRTOS-Kernel\portable\GCC\ARM_CM3/portmacro.h ****     #define portDISABLE_INTERRUPTS()                  vPortRaiseBASEPRI()
 108:..\..\..\FreeRTOS\FreeRTOS-Kernel\portable\GCC\ARM_CM3/portmacro.h ****     #define portENABLE_INTERRUPTS()                   vPortSetBASEPRI( 0 )
 109:..\..\..\FreeRTOS\FreeRTOS-Kernel\portable\GCC\ARM_CM3/portmacro.h ****     #define portENTER_CRITICAL()                      vPortEnterCritical()
 110:..\..\..\FreeRTOS\FreeRTOS-Kernel\portable\GCC\ARM_CM3/portmacro.h ****     #define portEXIT_CRITICAL()                       vPortExitCritical()
 111:..\..\..\FreeRTOS\FreeRTOS-Kernel\portable\GCC\ARM_CM3/portmacro.h **** 
 112:..\..\..\FreeRTOS\FreeRTOS-Kernel\portable\GCC\ARM_CM3/portmacro.h **** /*-----------------------------------------------------------*/
 113:..\..\..\FreeRTOS\FreeRTOS-Kernel\portable\GCC\ARM_CM3/portmacro.h **** 
 114:..\..\..\FreeRTOS\FreeRTOS-Kernel\portable\GCC\ARM_CM3/portmacro.h **** /* Task function macros as described on the FreeRTOS.org WEB site.  These are
 115:..\..\..\FreeRTOS\FreeRTOS-Kernel\portable\GCC\ARM_CM3/portmacro.h ****  * not necessary for to use this port.  They are defined so the common demo files
 116:..\..\..\FreeRTOS\FreeRTOS-Kernel\portable\GCC\ARM_CM3/portmacro.h ****  * (which build with all the ports) will build. */
 117:..\..\..\FreeRTOS\FreeRTOS-Kernel\portable\GCC\ARM_CM3/portmacro.h ****     #define portTASK_FUNCTION_PROTO( vFunction, pvParameters )    void vFunction( void * pvParamete
 118:..\..\..\FreeRTOS\FreeRTOS-Kernel\portable\GCC\ARM_CM3/portmacro.h ****     #define portTASK_FUNCTION( vFunction, pvParameters )          void vFunction( void * pvParamete
 119:..\..\..\FreeRTOS\FreeRTOS-Kernel\portable\GCC\ARM_CM3/portmacro.h **** /*-----------------------------------------------------------*/
 120:..\..\..\FreeRTOS\FreeRTOS-Kernel\portable\GCC\ARM_CM3/portmacro.h **** 
 121:..\..\..\FreeRTOS\FreeRTOS-Kernel\portable\GCC\ARM_CM3/portmacro.h **** /* Tickless idle/low power functionality. */
 122:..\..\..\FreeRTOS\FreeRTOS-Kernel\portable\GCC\ARM_CM3/portmacro.h ****     #ifndef portSUPPRESS_TICKS_AND_SLEEP
 123:..\..\..\FreeRTOS\FreeRTOS-Kernel\portable\GCC\ARM_CM3/portmacro.h ****         extern void vPortSuppressTicksAndSleep( TickType_t xExpectedIdleTime );
 124:..\..\..\FreeRTOS\FreeRTOS-Kernel\portable\GCC\ARM_CM3/portmacro.h ****         #define portSUPPRESS_TICKS_AND_SLEEP( xExpectedIdleTime )    vPortSuppressTicksAndSleep( xE
 125:..\..\..\FreeRTOS\FreeRTOS-Kernel\portable\GCC\ARM_CM3/portmacro.h ****     #endif
 126:..\..\..\FreeRTOS\FreeRTOS-Kernel\portable\GCC\ARM_CM3/portmacro.h **** /*-----------------------------------------------------------*/
 127:..\..\..\FreeRTOS\FreeRTOS-Kernel\portable\GCC\ARM_CM3/portmacro.h **** 
 128:..\..\..\FreeRTOS\FreeRTOS-Kernel\portable\GCC\ARM_CM3/portmacro.h **** /* Architecture specific optimisations. */
 129:..\..\..\FreeRTOS\FreeRTOS-Kernel\portable\GCC\ARM_CM3/portmacro.h ****     #ifndef configUSE_PORT_OPTIMISED_TASK_SELECTION
 130:..\..\..\FreeRTOS\FreeRTOS-Kernel\portable\GCC\ARM_CM3/portmacro.h ****         #define configUSE_PORT_OPTIMISED_TASK_SELECTION    1
 131:..\..\..\FreeRTOS\FreeRTOS-Kernel\portable\GCC\ARM_CM3/portmacro.h ****     #endif
 132:..\..\..\FreeRTOS\FreeRTOS-Kernel\portable\GCC\ARM_CM3/portmacro.h **** 
 133:..\..\..\FreeRTOS\FreeRTOS-Kernel\portable\GCC\ARM_CM3/portmacro.h ****     #if configUSE_PORT_OPTIMISED_TASK_SELECTION == 1
 134:..\..\..\FreeRTOS\FreeRTOS-Kernel\portable\GCC\ARM_CM3/portmacro.h **** 
 135:..\..\..\FreeRTOS\FreeRTOS-Kernel\portable\GCC\ARM_CM3/portmacro.h **** /* Generic helper function. */
 136:..\..\..\FreeRTOS\FreeRTOS-Kernel\portable\GCC\ARM_CM3/portmacro.h ****         __attribute__( ( always_inline ) ) static inline uint8_t ucPortCountLeadingZeros( uint32_t 
 137:..\..\..\FreeRTOS\FreeRTOS-Kernel\portable\GCC\ARM_CM3/portmacro.h ****         {
 138:..\..\..\FreeRTOS\FreeRTOS-Kernel\portable\GCC\ARM_CM3/portmacro.h ****             uint8_t ucReturn;
 139:..\..\..\FreeRTOS\FreeRTOS-Kernel\portable\GCC\ARM_CM3/portmacro.h **** 
 140:..\..\..\FreeRTOS\FreeRTOS-Kernel\portable\GCC\ARM_CM3/portmacro.h ****             __asm volatile ( "clz %0, %1" : "=r" ( ucReturn ) : "r" ( ulBitmap ) : "memory" );
 141:..\..\..\FreeRTOS\FreeRTOS-Kernel\portable\GCC\ARM_CM3/portmacro.h **** 
 142:..\..\..\FreeRTOS\FreeRTOS-Kernel\portable\GCC\ARM_CM3/portmacro.h ****             return ucReturn;
 143:..\..\..\FreeRTOS\FreeRTOS-Kernel\portable\GCC\ARM_CM3/portmacro.h ****         }
 144:..\..\..\FreeRTOS\FreeRTOS-Kernel\portable\GCC\ARM_CM3/portmacro.h **** 
 145:..\..\..\FreeRTOS\FreeRTOS-Kernel\portable\GCC\ARM_CM3/portmacro.h **** /* Check the configuration. */
 146:..\..\..\FreeRTOS\FreeRTOS-Kernel\portable\GCC\ARM_CM3/portmacro.h ****         #if ( configMAX_PRIORITIES > 32 )
 147:..\..\..\FreeRTOS\FreeRTOS-Kernel\portable\GCC\ARM_CM3/portmacro.h ****             #error configUSE_PORT_OPTIMISED_TASK_SELECTION can only be set to 1 when configMAX_PRIO
 148:..\..\..\FreeRTOS\FreeRTOS-Kernel\portable\GCC\ARM_CM3/portmacro.h ****         #endif
 149:..\..\..\FreeRTOS\FreeRTOS-Kernel\portable\GCC\ARM_CM3/portmacro.h **** 
 150:..\..\..\FreeRTOS\FreeRTOS-Kernel\portable\GCC\ARM_CM3/portmacro.h **** /* Store/clear the ready priorities in a bit map. */
 151:..\..\..\FreeRTOS\FreeRTOS-Kernel\portable\GCC\ARM_CM3/portmacro.h ****         #define portRECORD_READY_PRIORITY( uxPriority, uxReadyPriorities )    ( uxReadyPriorities )
ARM GAS  C:\Users\bchir\AppData\Local\Temp\ccELuvJK.s 			page 8


 152:..\..\..\FreeRTOS\FreeRTOS-Kernel\portable\GCC\ARM_CM3/portmacro.h ****         #define portRESET_READY_PRIORITY( uxPriority, uxReadyPriorities )     ( uxReadyPriorities )
 153:..\..\..\FreeRTOS\FreeRTOS-Kernel\portable\GCC\ARM_CM3/portmacro.h **** 
 154:..\..\..\FreeRTOS\FreeRTOS-Kernel\portable\GCC\ARM_CM3/portmacro.h **** /*-----------------------------------------------------------*/
 155:..\..\..\FreeRTOS\FreeRTOS-Kernel\portable\GCC\ARM_CM3/portmacro.h **** 
 156:..\..\..\FreeRTOS\FreeRTOS-Kernel\portable\GCC\ARM_CM3/portmacro.h ****         #define portGET_HIGHEST_PRIORITY( uxTopPriority, uxReadyPriorities )    uxTopPriority = ( 3
 157:..\..\..\FreeRTOS\FreeRTOS-Kernel\portable\GCC\ARM_CM3/portmacro.h **** 
 158:..\..\..\FreeRTOS\FreeRTOS-Kernel\portable\GCC\ARM_CM3/portmacro.h ****     #endif /* configUSE_PORT_OPTIMISED_TASK_SELECTION */
 159:..\..\..\FreeRTOS\FreeRTOS-Kernel\portable\GCC\ARM_CM3/portmacro.h **** 
 160:..\..\..\FreeRTOS\FreeRTOS-Kernel\portable\GCC\ARM_CM3/portmacro.h **** /*-----------------------------------------------------------*/
 161:..\..\..\FreeRTOS\FreeRTOS-Kernel\portable\GCC\ARM_CM3/portmacro.h **** 
 162:..\..\..\FreeRTOS\FreeRTOS-Kernel\portable\GCC\ARM_CM3/portmacro.h ****     #ifdef configASSERT
 163:..\..\..\FreeRTOS\FreeRTOS-Kernel\portable\GCC\ARM_CM3/portmacro.h ****         void vPortValidateInterruptPriority( void );
 164:..\..\..\FreeRTOS\FreeRTOS-Kernel\portable\GCC\ARM_CM3/portmacro.h ****         #define portASSERT_IF_INTERRUPT_PRIORITY_INVALID()    vPortValidateInterruptPriority()
 165:..\..\..\FreeRTOS\FreeRTOS-Kernel\portable\GCC\ARM_CM3/portmacro.h ****     #endif
 166:..\..\..\FreeRTOS\FreeRTOS-Kernel\portable\GCC\ARM_CM3/portmacro.h **** 
 167:..\..\..\FreeRTOS\FreeRTOS-Kernel\portable\GCC\ARM_CM3/portmacro.h **** /* portNOP() is not required by this port. */
 168:..\..\..\FreeRTOS\FreeRTOS-Kernel\portable\GCC\ARM_CM3/portmacro.h ****     #define portNOP()
 169:..\..\..\FreeRTOS\FreeRTOS-Kernel\portable\GCC\ARM_CM3/portmacro.h **** 
 170:..\..\..\FreeRTOS\FreeRTOS-Kernel\portable\GCC\ARM_CM3/portmacro.h ****     #define portINLINE              __inline
 171:..\..\..\FreeRTOS\FreeRTOS-Kernel\portable\GCC\ARM_CM3/portmacro.h **** 
 172:..\..\..\FreeRTOS\FreeRTOS-Kernel\portable\GCC\ARM_CM3/portmacro.h ****     #ifndef portFORCE_INLINE
 173:..\..\..\FreeRTOS\FreeRTOS-Kernel\portable\GCC\ARM_CM3/portmacro.h ****         #define portFORCE_INLINE    inline __attribute__( ( always_inline ) )
 174:..\..\..\FreeRTOS\FreeRTOS-Kernel\portable\GCC\ARM_CM3/portmacro.h ****     #endif
 175:..\..\..\FreeRTOS\FreeRTOS-Kernel\portable\GCC\ARM_CM3/portmacro.h **** 
 176:..\..\..\FreeRTOS\FreeRTOS-Kernel\portable\GCC\ARM_CM3/portmacro.h **** /*-----------------------------------------------------------*/
 177:..\..\..\FreeRTOS\FreeRTOS-Kernel\portable\GCC\ARM_CM3/portmacro.h **** 
 178:..\..\..\FreeRTOS\FreeRTOS-Kernel\portable\GCC\ARM_CM3/portmacro.h ****     portFORCE_INLINE static BaseType_t xPortIsInsideInterrupt( void )
 179:..\..\..\FreeRTOS\FreeRTOS-Kernel\portable\GCC\ARM_CM3/portmacro.h ****     {
 180:..\..\..\FreeRTOS\FreeRTOS-Kernel\portable\GCC\ARM_CM3/portmacro.h ****         uint32_t ulCurrentInterrupt;
 181:..\..\..\FreeRTOS\FreeRTOS-Kernel\portable\GCC\ARM_CM3/portmacro.h ****         BaseType_t xReturn;
 182:..\..\..\FreeRTOS\FreeRTOS-Kernel\portable\GCC\ARM_CM3/portmacro.h **** 
 183:..\..\..\FreeRTOS\FreeRTOS-Kernel\portable\GCC\ARM_CM3/portmacro.h ****         /* Obtain the number of the currently executing interrupt. */
 184:..\..\..\FreeRTOS\FreeRTOS-Kernel\portable\GCC\ARM_CM3/portmacro.h ****         __asm volatile ( "mrs %0, ipsr" : "=r" ( ulCurrentInterrupt )::"memory" );
 185:..\..\..\FreeRTOS\FreeRTOS-Kernel\portable\GCC\ARM_CM3/portmacro.h **** 
 186:..\..\..\FreeRTOS\FreeRTOS-Kernel\portable\GCC\ARM_CM3/portmacro.h ****         if( ulCurrentInterrupt == 0 )
 187:..\..\..\FreeRTOS\FreeRTOS-Kernel\portable\GCC\ARM_CM3/portmacro.h ****         {
 188:..\..\..\FreeRTOS\FreeRTOS-Kernel\portable\GCC\ARM_CM3/portmacro.h ****             xReturn = pdFALSE;
 189:..\..\..\FreeRTOS\FreeRTOS-Kernel\portable\GCC\ARM_CM3/portmacro.h ****         }
 190:..\..\..\FreeRTOS\FreeRTOS-Kernel\portable\GCC\ARM_CM3/portmacro.h ****         else
 191:..\..\..\FreeRTOS\FreeRTOS-Kernel\portable\GCC\ARM_CM3/portmacro.h ****         {
 192:..\..\..\FreeRTOS\FreeRTOS-Kernel\portable\GCC\ARM_CM3/portmacro.h ****             xReturn = pdTRUE;
 193:..\..\..\FreeRTOS\FreeRTOS-Kernel\portable\GCC\ARM_CM3/portmacro.h ****         }
 194:..\..\..\FreeRTOS\FreeRTOS-Kernel\portable\GCC\ARM_CM3/portmacro.h **** 
 195:..\..\..\FreeRTOS\FreeRTOS-Kernel\portable\GCC\ARM_CM3/portmacro.h ****         return xReturn;
 196:..\..\..\FreeRTOS\FreeRTOS-Kernel\portable\GCC\ARM_CM3/portmacro.h ****     }
 197:..\..\..\FreeRTOS\FreeRTOS-Kernel\portable\GCC\ARM_CM3/portmacro.h **** 
 198:..\..\..\FreeRTOS\FreeRTOS-Kernel\portable\GCC\ARM_CM3/portmacro.h **** /*-----------------------------------------------------------*/
 199:..\..\..\FreeRTOS\FreeRTOS-Kernel\portable\GCC\ARM_CM3/portmacro.h **** 
 200:..\..\..\FreeRTOS\FreeRTOS-Kernel\portable\GCC\ARM_CM3/portmacro.h ****     portFORCE_INLINE static void vPortRaiseBASEPRI( void )
 201:..\..\..\FreeRTOS\FreeRTOS-Kernel\portable\GCC\ARM_CM3/portmacro.h ****     {
 202:..\..\..\FreeRTOS\FreeRTOS-Kernel\portable\GCC\ARM_CM3/portmacro.h ****         uint32_t ulNewBASEPRI;
 203:..\..\..\FreeRTOS\FreeRTOS-Kernel\portable\GCC\ARM_CM3/portmacro.h **** 
 204:..\..\..\FreeRTOS\FreeRTOS-Kernel\portable\GCC\ARM_CM3/portmacro.h ****         __asm volatile
 151              		.loc 2 204 0
 152              		.syntax unified
 153              	@ 204 "..\..\..\FreeRTOS\FreeRTOS-Kernel\portable\GCC\ARM_CM3/portmacro.h" 1
 154 0000 4FF0A003 		   mov r3, #160                                              
ARM GAS  C:\Users\bchir\AppData\Local\Temp\ccELuvJK.s 			page 9


 155 0004 83F31188 	   msr basepri, r3                                         
 156 0008 BFF36F8F 	   isb                                                     
 157 000c BFF34F8F 	   dsb                                                     
 158              	
 159              	@ 0 "" 2
 160              	.LVL11:
 161              		.thumb
 162              		.syntax unified
 163              	.L10:
 164 0010 FEE7     		b	.L10
 165              	.LBE5:
 166              	.LBE4:
 167              		.cfi_endproc
 168              	.LFE70:
 169              		.size	vApplicationStackOverflowHook, .-vApplicationStackOverflowHook
 170              		.comm	powerMonConMessegesQ,4,4
 171              		.comm	taskMessegesQ,4,4
 172 0012 00BF     		.text
 173              	.Letext0:
 174              		.file 3 "c:\\program files (x86)\\cypress\\psoc creator\\4.4\\psoc creator\\import\\gnu\\arm\\5.4.
 175              		.file 4 "c:\\program files (x86)\\cypress\\psoc creator\\4.4\\psoc creator\\import\\gnu\\arm\\5.4.
 176              		.file 5 "Generated_Source\\PSoC5/cytypes.h"
 177              		.file 6 "..\\..\\..\\FreeRTOS\\FreeRTOS-Kernel\\include/task.h"
 178              		.file 7 "..\\..\\..\\FreeRTOS\\FreeRTOS-Kernel\\include/queue.h"
 179              		.file 8 "Generated_Source\\PSoC5/core_cm3.h"
 180              		.file 9 "SystemMessenger.h"
 181              		.file 10 "BluetoothComms.h"
 182              		.file 11 "UserButtonControl.h"
 183              		.file 12 "VehicleBatteryVoltage.h"
 184              		.file 13 "PowerMonitoringAndControl.h"
 185              		.file 14 "Generated_Source\\PSoC5/CyLib.h"
 186              		.file 15 "Generated_Source\\PSoC5/BlueLedd.h"