ARM GAS  C:\Users\bchir\AppData\Local\Temp\ccZHhjud.s 			page 1


   1              		.syntax unified
   2              		.cpu cortex-m3
   3              		.fpu softvfp
   4              		.eabi_attribute 20, 1
   5              		.eabi_attribute 21, 1
   6              		.eabi_attribute 23, 3
   7              		.eabi_attribute 24, 1
   8              		.eabi_attribute 25, 1
   9              		.eabi_attribute 26, 1
  10              		.eabi_attribute 30, 1
  11              		.eabi_attribute 34, 1
  12              		.eabi_attribute 18, 4
  13              		.thumb
  14              		.syntax unified
  15              		.file	"SystemMessenger.c"
  16              		.text
  17              	.Ltext0:
  18              		.cfi_sections	.debug_frame
  19              		.section	.text.TaskSystemMessenger,"ax",%progbits
  20              		.align	2
  21              		.thumb
  22              		.thumb_func
  23              		.type	TaskSystemMessenger, %function
  24              	TaskSystemMessenger:
  25              	.LFB68:
  26              		.file 1 "SystemMessenger.c"
   1:SystemMessenger.c **** /* ========================================
   2:SystemMessenger.c ****  *
   3:SystemMessenger.c ****  * Copyright YOUR COMPANY, THE YEAR
   4:SystemMessenger.c ****  * All Rights Reserved
   5:SystemMessenger.c ****  * UNPUBLISHED, LICENSED SOFTWARE.
   6:SystemMessenger.c ****  *
   7:SystemMessenger.c ****  * CONFIDENTIAL AND PROPRIETARY INFORMATION
   8:SystemMessenger.c ****  * WHICH IS THE PROPERTY OF your company.
   9:SystemMessenger.c ****  *
  10:SystemMessenger.c ****  * ========================================
  11:SystemMessenger.c **** */
  12:SystemMessenger.c **** 
  13:SystemMessenger.c **** #include "SystemMessenger.h"
  14:SystemMessenger.c **** #include "BluetoothComms.h"
  15:SystemMessenger.c **** #include "UserButtonControl.h"
  16:SystemMessenger.c **** #include "VehicleBatteryVoltage.h"
  17:SystemMessenger.c **** #include "SystemMessenger.h"
  18:SystemMessenger.c **** #include "PowerMonitoringAndControl.h"
  19:SystemMessenger.c **** 
  20:SystemMessenger.c **** QueueHandle_t sysMessegesQ;
  21:SystemMessenger.c **** 
  22:SystemMessenger.c **** volatile uint8_t sysQSize = 20;
  23:SystemMessenger.c **** uint8_t taskMessageQSize = 5;
  24:SystemMessenger.c **** 
  25:SystemMessenger.c **** const uint8_t msgStartSeq[2] = {0xF, 0xA};
  26:SystemMessenger.c **** const uint8_t msgEndSeq[2] =  {0xC, 0xE};
  27:SystemMessenger.c **** 
  28:SystemMessenger.c **** systemMessagePacket_t msgPacket;
  29:SystemMessenger.c **** 
  30:SystemMessenger.c **** powerMoConDataPacket_t pwrMonControlPacket;
  31:SystemMessenger.c **** 
ARM GAS  C:\Users\bchir\AppData\Local\Temp\ccZHhjud.s 			page 2


  32:SystemMessenger.c **** 
  33:SystemMessenger.c **** static void TaskSystemMessenger( void *pvParameters )
  34:SystemMessenger.c **** {
  27              		.loc 1 34 0
  28              		.cfi_startproc
  29              		@ args = 0, pretend = 0, frame = 0
  30              		@ frame_needed = 0, uses_anonymous_args = 0
  31              	.LVL0:
  32 0000 10B5     		push	{r4, lr}
  33              		.cfi_def_cfa_offset 8
  34              		.cfi_offset 4, -8
  35              		.cfi_offset 14, -4
  36 0002 82B0     		sub	sp, sp, #8
  37              		.cfi_def_cfa_offset 16
  38              	.LVL1:
  35:SystemMessenger.c **** 	
  36:SystemMessenger.c ****     (void)pvParameters;
  37:SystemMessenger.c ****     
  38:SystemMessenger.c ****     BaseType_t xHigherPriorityTaskWoken = pdFALSE;  
  39:SystemMessenger.c ****   
  40:SystemMessenger.c ****     xTaskHandle temp;
  41:SystemMessenger.c ****       
  42:SystemMessenger.c ****     sysMessegesQ = xQueueCreate( sysQSize, sizeof( systemMessagePacket_t ) );
  39              		.loc 1 42 0
  40 0004 1C4C     		ldr	r4, .L6
  41 0006 2078     		ldrb	r0, [r4]	@ zero_extendqisi2
  42              	.LVL2:
  43 0008 0022     		movs	r2, #0
  44 000a 4021     		movs	r1, #64
  45 000c FFF7FEFF 		bl	xQueueGenericCreate
  46              	.LVL3:
  47 0010 1A4B     		ldr	r3, .L6+4
  48 0012 1860     		str	r0, [r3]
  43:SystemMessenger.c ****     taskMessegesQ = xQueueCreate( sysQSize, sizeof( systemMessagePacket_t ) );
  49              		.loc 1 43 0
  50 0014 2078     		ldrb	r0, [r4]	@ zero_extendqisi2
  51 0016 0022     		movs	r2, #0
  52 0018 4021     		movs	r1, #64
  53 001a FFF7FEFF 		bl	xQueueGenericCreate
  54              	.LVL4:
  55 001e 184B     		ldr	r3, .L6+8
  56 0020 1860     		str	r0, [r3]
  44:SystemMessenger.c ****     powerMonConMessegesQ = xQueueCreate( taskMessageQSize, sizeof( powerMoConDataPacket_t ) );
  57              		.loc 1 44 0
  58 0022 0022     		movs	r2, #0
  59 0024 0421     		movs	r1, #4
  60 0026 6078     		ldrb	r0, [r4, #1]	@ zero_extendqisi2
  61 0028 FFF7FEFF 		bl	xQueueGenericCreate
  62              	.LVL5:
  63 002c 154B     		ldr	r3, .L6+12
  64 002e 1860     		str	r0, [r3]
  65              	.L4:
  45:SystemMessenger.c **** 
  46:SystemMessenger.c ****        
  47:SystemMessenger.c **** 	for( ;; )
  48:SystemMessenger.c **** 	{
  49:SystemMessenger.c **** 		
ARM GAS  C:\Users\bchir\AppData\Local\Temp\ccZHhjud.s 			page 3


  50:SystemMessenger.c ****         
  51:SystemMessenger.c ****         xQueueReceive( sysMessegesQ, &msgPacket, portMAX_DELAY);
  66              		.loc 1 51 0
  67 0030 154C     		ldr	r4, .L6+16
  68 0032 4FF0FF32 		mov	r2, #-1
  69 0036 2146     		mov	r1, r4
  70 0038 104B     		ldr	r3, .L6+4
  71 003a 1868     		ldr	r0, [r3]
  72 003c FFF7FEFF 		bl	xQueueReceive
  73              	.LVL6:
  52:SystemMessenger.c ****         
  53:SystemMessenger.c ****         switch(msgPacket.sourceTaskAdd)
  74              		.loc 1 53 0
  75 0040 237B     		ldrb	r3, [r4, #12]	@ zero_extendqisi2
  76 0042 052B     		cmp	r3, #5
  77 0044 11D1     		bne	.L2
  54:SystemMessenger.c ****         {
  55:SystemMessenger.c ****             
  56:SystemMessenger.c ****             case BLUETOOTH_COMMS_ID:
  57:SystemMessenger.c ****             
  58:SystemMessenger.c ****             break;
  59:SystemMessenger.c ****             
  60:SystemMessenger.c ****             case CANBUS_MESSAGE_READ_ID: 
  61:SystemMessenger.c ****             
  62:SystemMessenger.c ****             
  63:SystemMessenger.c ****             break;
  64:SystemMessenger.c ****             
  65:SystemMessenger.c ****             case SYSTEM_MESSENGER_ID:
  66:SystemMessenger.c ****             
  67:SystemMessenger.c ****             break;
  68:SystemMessenger.c ****             
  69:SystemMessenger.c ****             case USER_BUTTON_CONTROL:
  70:SystemMessenger.c ****             
  71:SystemMessenger.c ****             
  72:SystemMessenger.c ****             break;
  73:SystemMessenger.c ****             case VEHICLE_BATT_VOLTAGE_ID:
  74:SystemMessenger.c ****             
  75:SystemMessenger.c ****             //memcpy( &pwrMonControlPacket, msgPacket.payload, sizeof(powerMoConDataPacket_t));
  76:SystemMessenger.c ****             
  77:SystemMessenger.c ****             pwrMonControlPacket = *(powerMoConDataPacket_t*)&msgPacket.payload;
  78              		.loc 1 77 0
  79 0046 1149     		ldr	r1, .L6+20
  80 0048 D4F80E30 		ldr	r3, [r4, #14]	@ unaligned
  81 004c 0B60     		str	r3, [r1]	@ float
  78:SystemMessenger.c ****            
  79:SystemMessenger.c ****             xQueueSendToFront(powerMonConMessegesQ, &pwrMonControlPacket, 10);
  82              		.loc 1 79 0
  83 004e 0123     		movs	r3, #1
  84 0050 0A22     		movs	r2, #10
  85 0052 0C48     		ldr	r0, .L6+12
  86 0054 0068     		ldr	r0, [r0]
  87 0056 FFF7FEFF 		bl	xQueueGenericSend
  88              	.LVL7:
  80:SystemMessenger.c ****             
  81:SystemMessenger.c ****             temp = getPowerMonitoringAndControlTaskHandle();
  89              		.loc 1 81 0
  90 005a FFF7FEFF 		bl	getPowerMonitoringAndControlTaskHandle
ARM GAS  C:\Users\bchir\AppData\Local\Temp\ccZHhjud.s 			page 4


  91              	.LVL8:
  82:SystemMessenger.c ****             
  83:SystemMessenger.c ****             
  84:SystemMessenger.c ****  
  85:SystemMessenger.c ****             xTaskNotifyGive(temp);
  92              		.loc 1 85 0
  93 005e 0021     		movs	r1, #0
  94 0060 0091     		str	r1, [sp]
  95 0062 0223     		movs	r3, #2
  96 0064 0A46     		mov	r2, r1
  97 0066 FFF7FEFF 		bl	xTaskGenericNotify
  98              	.LVL9:
  99              	.L2:
  86:SystemMessenger.c ****             
  87:SystemMessenger.c ****             break;
  88:SystemMessenger.c ****             
  89:SystemMessenger.c ****             default:
  90:SystemMessenger.c ****             
  91:SystemMessenger.c ****             break;
  92:SystemMessenger.c ****             
  93:SystemMessenger.c ****             
  94:SystemMessenger.c ****             
  95:SystemMessenger.c ****         }
  96:SystemMessenger.c ****         
  97:SystemMessenger.c ****         temp = getBluetoothCommsTaskHandle();
 100              		.loc 1 97 0
 101 006a FFF7FEFF 		bl	getBluetoothCommsTaskHandle
 102              	.LVL10:
  98:SystemMessenger.c ****         
  99:SystemMessenger.c ****         
 100:SystemMessenger.c ****         vTaskDelay(1);
 103              		.loc 1 100 0
 104 006e 0120     		movs	r0, #1
 105 0070 FFF7FEFF 		bl	vTaskDelay
 106              	.LVL11:
 101:SystemMessenger.c **** 	}
 107              		.loc 1 101 0
 108 0074 DCE7     		b	.L4
 109              	.L7:
 110 0076 00BF     		.align	2
 111              	.L6:
 112 0078 00000000 		.word	.LANCHOR0
 113 007c 00000000 		.word	sysMessegesQ
 114 0080 00000000 		.word	taskMessegesQ
 115 0084 00000000 		.word	powerMonConMessegesQ
 116 0088 00000000 		.word	msgPacket
 117 008c 00000000 		.word	pwrMonControlPacket
 118              		.cfi_endproc
 119              	.LFE68:
 120              		.size	TaskSystemMessenger, .-TaskSystemMessenger
 121              		.section	.text.createSystemMsgPacket,"ax",%progbits
 122              		.align	2
 123              		.global	createSystemMsgPacket
 124              		.thumb
 125              		.thumb_func
 126              		.type	createSystemMsgPacket, %function
 127              	createSystemMsgPacket:
ARM GAS  C:\Users\bchir\AppData\Local\Temp\ccZHhjud.s 			page 5


 128              	.LFB69:
 102:SystemMessenger.c **** 	
 103:SystemMessenger.c **** }
 104:SystemMessenger.c **** 
 105:SystemMessenger.c **** uint64_t createSystemMsgPacket( systemMessagePacket_t * msg, void* payload , uint8_t size, uint8_t 
 106:SystemMessenger.c **** {
 129              		.loc 1 106 0
 130              		.cfi_startproc
 131              		@ args = 20, pretend = 0, frame = 0
 132              		@ frame_needed = 0, uses_anonymous_args = 0
 133              	.LVL12:
 107:SystemMessenger.c ****     
 108:SystemMessenger.c ****     
 109:SystemMessenger.c ****     
 110:SystemMessenger.c ****     if( msg == NULL || payload == NULL  ) return ( 0 );
 134              		.loc 1 110 0
 135 0000 20B3     		cbz	r0, .L11
 106:SystemMessenger.c ****     
 136              		.loc 1 106 0 discriminator 2
 137 0002 38B5     		push	{r3, r4, r5, lr}
 138              		.cfi_def_cfa_offset 16
 139              		.cfi_offset 3, -16
 140              		.cfi_offset 4, -12
 141              		.cfi_offset 5, -8
 142              		.cfi_offset 14, -4
 143 0004 0446     		mov	r4, r0
 144              		.loc 1 110 0 discriminator 2
 145 0006 21B3     		cbz	r1, .L12
 146 0008 1D46     		mov	r5, r3
 111:SystemMessenger.c ****     
 112:SystemMessenger.c ****     memcpy( msg->payload, payload, size );
 147              		.loc 1 112 0
 148 000a 0E30     		adds	r0, r0, #14
 149              	.LVL13:
 150 000c FFF7FEFF 		bl	memcpy
 151              	.LVL14:
 113:SystemMessenger.c **** 
 114:SystemMessenger.c ****     if(msgID == 0)
 152              		.loc 1 114 0
 153 0010 DDE90623 		ldrd	r2, [sp, #24]
 154 0014 1343     		orrs	r3, r2, r3
 155 0016 04D1     		bne	.L10
 115:SystemMessenger.c ****     {
 116:SystemMessenger.c ****         
 117:SystemMessenger.c ****         msg->packetId = rand();
 156              		.loc 1 117 0
 157 0018 FFF7FEFF 		bl	rand
 158              	.LVL15:
 159 001c C317     		asrs	r3, r0, #31
 160 001e 6060     		str	r0, [r4, #4]	@ unaligned
 161 0020 A360     		str	r3, [r4, #8]	@ unaligned
 162              	.L10:
 118:SystemMessenger.c ****     }
 119:SystemMessenger.c ****     
 120:SystemMessenger.c ****     memcpy(msg->startSeq, msgStartSeq, sizeof(msgStartSeq) / sizeof(msgStartSeq[0]));
 163              		.loc 1 120 0
 164 0022 0D4A     		ldr	r2, .L14
ARM GAS  C:\Users\bchir\AppData\Local\Temp\ccZHhjud.s 			page 6


 165 0024 32F8043B 		ldrh	r3, [r2], #4	@ unaligned
 166 0028 2380     		strh	r3, [r4]	@ unaligned
 121:SystemMessenger.c ****     memcpy(msg->endSeq, msgEndSeq, sizeof(msgEndSeq) / sizeof(msgEndSeq[0]));
 167              		.loc 1 121 0
 168 002a 1388     		ldrh	r3, [r2]	@ unaligned
 169 002c 6380     		strh	r3, [r4, #2]	@ unaligned
 122:SystemMessenger.c ****     msg->packetCount = pcktCount;
 170              		.loc 1 122 0
 171 002e 9DF81030 		ldrb	r3, [sp, #16]	@ zero_extendqisi2
 172 0032 84F83E30 		strb	r3, [r4, #62]
 123:SystemMessenger.c ****     msg->packetPos = pcktPos;
 173              		.loc 1 123 0
 174 0036 9DF81430 		ldrb	r3, [sp, #20]	@ zero_extendqisi2
 175 003a 84F83F30 		strb	r3, [r4, #63]
 124:SystemMessenger.c ****     msg->sourceTaskAdd = srcID;
 176              		.loc 1 124 0
 177 003e 2573     		strb	r5, [r4, #12]
 125:SystemMessenger.c ****     msg->payloadpPriority = priority;
 178              		.loc 1 125 0
 179 0040 9DF82030 		ldrb	r3, [sp, #32]	@ zero_extendqisi2
 180 0044 6373     		strb	r3, [r4, #13]
 126:SystemMessenger.c ****     
 127:SystemMessenger.c ****     return msg->packetId;
 181              		.loc 1 127 0
 182 0046 6068     		ldr	r0, [r4, #4]	@ unaligned
 183 0048 A168     		ldr	r1, [r4, #8]	@ unaligned
 184 004a 38BD     		pop	{r3, r4, r5, pc}
 185              	.LVL16:
 186              	.L11:
 187              		.cfi_def_cfa_offset 0
 188              		.cfi_restore 3
 189              		.cfi_restore 4
 190              		.cfi_restore 5
 191              		.cfi_restore 14
 110:SystemMessenger.c ****     
 192              		.loc 1 110 0
 193 004c 0020     		movs	r0, #0
 194              	.LVL17:
 195 004e 0146     		mov	r1, r0
 196              	.LVL18:
 128:SystemMessenger.c **** }
 197              		.loc 1 128 0
 198 0050 7047     		bx	lr
 199              	.LVL19:
 200              	.L12:
 201              		.cfi_def_cfa_offset 16
 202              		.cfi_offset 3, -16
 203              		.cfi_offset 4, -12
 204              		.cfi_offset 5, -8
 205              		.cfi_offset 14, -4
 110:SystemMessenger.c ****     
 206              		.loc 1 110 0
 207 0052 0020     		movs	r0, #0
 208              	.LVL20:
 209 0054 0146     		mov	r1, r0
 210              	.LVL21:
 211              		.loc 1 128 0
ARM GAS  C:\Users\bchir\AppData\Local\Temp\ccZHhjud.s 			page 7


 212 0056 38BD     		pop	{r3, r4, r5, pc}
 213              	.LVL22:
 214              	.L15:
 215              		.align	2
 216              	.L14:
 217 0058 00000000 		.word	.LANCHOR1
 218              		.cfi_endproc
 219              	.LFE69:
 220              		.size	createSystemMsgPacket, .-createSystemMsgPacket
 221              		.section	.text.getSysMessegesgQ,"ax",%progbits
 222              		.align	2
 223              		.global	getSysMessegesgQ
 224              		.thumb
 225              		.thumb_func
 226              		.type	getSysMessegesgQ, %function
 227              	getSysMessegesgQ:
 228              	.LFB70:
 129:SystemMessenger.c **** 
 130:SystemMessenger.c **** QueueHandle_t getSysMessegesgQ()
 131:SystemMessenger.c **** {
 229              		.loc 1 131 0
 230              		.cfi_startproc
 231              		@ args = 0, pretend = 0, frame = 0
 232              		@ frame_needed = 0, uses_anonymous_args = 0
 233              		@ link register save eliminated.
 132:SystemMessenger.c **** 
 133:SystemMessenger.c ****     return sysMessegesQ;
 134:SystemMessenger.c **** 
 135:SystemMessenger.c **** }
 234              		.loc 1 135 0
 235 0000 014B     		ldr	r3, .L17
 236 0002 1868     		ldr	r0, [r3]
 237 0004 7047     		bx	lr
 238              	.L18:
 239 0006 00BF     		.align	2
 240              	.L17:
 241 0008 00000000 		.word	sysMessegesQ
 242              		.cfi_endproc
 243              	.LFE70:
 244              		.size	getSysMessegesgQ, .-getSysMessegesgQ
 245              		.section	.text.startTaskSystemMessenger,"ax",%progbits
 246              		.align	2
 247              		.global	startTaskSystemMessenger
 248              		.thumb
 249              		.thumb_func
 250              		.type	startTaskSystemMessenger, %function
 251              	startTaskSystemMessenger:
 252              	.LFB71:
 136:SystemMessenger.c **** 
 137:SystemMessenger.c **** void startTaskSystemMessenger()
 138:SystemMessenger.c **** {
 253              		.loc 1 138 0
 254              		.cfi_startproc
 255              		@ args = 0, pretend = 0, frame = 8
 256              		@ frame_needed = 0, uses_anonymous_args = 0
 257 0000 00B5     		push	{lr}
 258              		.cfi_def_cfa_offset 4
ARM GAS  C:\Users\bchir\AppData\Local\Temp\ccZHhjud.s 			page 8


 259              		.cfi_offset 14, -4
 260 0002 85B0     		sub	sp, sp, #20
 261              		.cfi_def_cfa_offset 24
 139:SystemMessenger.c ****     TaskHandle_t xHandle = NULL; 
 262              		.loc 1 139 0
 263 0004 0022     		movs	r2, #0
 264 0006 04AB     		add	r3, sp, #16
 265 0008 43F8042D 		str	r2, [r3, #-4]!
 140:SystemMessenger.c ****  	/* Create the task, storing the handle. */ 
 141:SystemMessenger.c **** 	xTaskCreate(
 266              		.loc 1 141 0
 267 000c 0193     		str	r3, [sp, #4]
 268 000e 0092     		str	r2, [sp]
 269 0010 0123     		movs	r3, #1
 270 0012 8022     		movs	r2, #128
 271 0014 0349     		ldr	r1, .L21
 272 0016 0448     		ldr	r0, .L21+4
 273 0018 FFF7FEFF 		bl	xTaskCreate
 274              	.LVL23:
 142:SystemMessenger.c **** 		TaskSystemMessenger,    /* Function that implements the task. */ 
 143:SystemMessenger.c **** 		"SystemMessenger",  /* Text name for the task. */ 
 144:SystemMessenger.c **** 		128,                        /* Stack size in words, not bytes. */ 
 145:SystemMessenger.c **** 		( void * ) 1,               /* Parameter passed into the task. */ 
 146:SystemMessenger.c **** 		tskIDLE_PRIORITY,           /* Priority at which the task is created. */ 
 147:SystemMessenger.c **** 	&xHandle );                     /* Used to pass out the created task's handle. */ 
 148:SystemMessenger.c ****     
 149:SystemMessenger.c ****     
 150:SystemMessenger.c **** }
 275              		.loc 1 150 0
 276 001c 05B0     		add	sp, sp, #20
 277              		.cfi_def_cfa_offset 4
 278              		@ sp needed
 279 001e 5DF804FB 		ldr	pc, [sp], #4
 280              	.L22:
 281 0022 00BF     		.align	2
 282              	.L21:
 283 0024 00000000 		.word	.LC0
 284 0028 00000000 		.word	TaskSystemMessenger
 285              		.cfi_endproc
 286              	.LFE71:
 287              		.size	startTaskSystemMessenger, .-startTaskSystemMessenger
 288              		.comm	pwrMonControlPacket,4,4
 289              		.comm	msgPacket,64,4
 290              		.global	msgEndSeq
 291              		.global	msgStartSeq
 292              		.global	taskMessageQSize
 293              		.global	sysQSize
 294              		.comm	sysMessegesQ,4,4
 295              		.comm	powerMonConMessegesQ,4,4
 296              		.comm	taskMessegesQ,4,4
 297              		.section	.rodata
 298              		.align	2
 299              		.set	.LANCHOR1,. + 0
 300              		.type	msgStartSeq, %object
 301              		.size	msgStartSeq, 2
 302              	msgStartSeq:
 303 0000 0F       		.byte	15
ARM GAS  C:\Users\bchir\AppData\Local\Temp\ccZHhjud.s 			page 9


 304 0001 0A       		.byte	10
 305 0002 0000     		.space	2
 306              		.type	msgEndSeq, %object
 307              		.size	msgEndSeq, 2
 308              	msgEndSeq:
 309 0004 0C       		.byte	12
 310 0005 0E       		.byte	14
 311              		.data
 312              		.set	.LANCHOR0,. + 0
 313              		.type	sysQSize, %object
 314              		.size	sysQSize, 1
 315              	sysQSize:
 316 0000 14       		.byte	20
 317              		.type	taskMessageQSize, %object
 318              		.size	taskMessageQSize, 1
 319              	taskMessageQSize:
 320 0001 05       		.byte	5
 321              		.section	.rodata.str1.4,"aMS",%progbits,1
 322              		.align	2
 323              	.LC0:
 324 0000 53797374 		.ascii	"SystemMessenger\000"
 324      656D4D65 
 324      7373656E 
 324      67657200 
 325              		.text
 326              	.Letext0:
 327              		.file 2 "c:\\program files (x86)\\cypress\\psoc creator\\4.4\\psoc creator\\import\\gnu\\arm\\5.4.
 328              		.file 3 "c:\\program files (x86)\\cypress\\psoc creator\\4.4\\psoc creator\\import\\gnu\\arm\\5.4.
 329              		.file 4 "..\\..\\..\\FreeRTOS\\FreeRTOS-Kernel\\portable\\GCC\\ARM_CM3/portmacro.h"
 330              		.file 5 "..\\..\\..\\FreeRTOS\\FreeRTOS-Kernel\\include/task.h"
 331              		.file 6 "..\\..\\..\\FreeRTOS\\FreeRTOS-Kernel\\include/queue.h"
 332              		.file 7 "SystemMessenger.h"
 333              		.file 8 "Generated_Source\\PSoC5/core_cm3.h"
 334              		.file 9 "PowerMonitoringAndControl.h"
 335              		.file 10 "BluetoothComms.h"
 336              		.file 11 "c:\\program files (x86)\\cypress\\psoc creator\\4.4\\psoc creator\\import\\gnu\\arm\\5.4