ARM GAS  C:\Users\bchir\AppData\Local\Temp\ccbc5zmo.s 			page 1


   1              		.syntax unified
   2              		.cpu cortex-m3
   3              		.fpu softvfp
   4              		.eabi_attribute 20, 1
   5              		.eabi_attribute 21, 1
   6              		.eabi_attribute 23, 3
   7              		.eabi_attribute 24, 1
   8              		.eabi_attribute 25, 1
   9              		.eabi_attribute 26, 1
  10              		.eabi_attribute 30, 1
  11              		.eabi_attribute 34, 1
  12              		.eabi_attribute 18, 4
  13              		.thumb
  14              		.syntax unified
  15              		.file	"USBFS_1.c"
  16              		.text
  17              	.Ltext0:
  18              		.cfi_sections	.debug_frame
  19              		.section	.text.USBFS_1_Init,"ax",%progbits
  20              		.align	2
  21              		.global	USBFS_1_Init
  22              		.thumb
  23              		.thumb_func
  24              		.type	USBFS_1_Init, %function
  25              	USBFS_1_Init:
  26              	.LFB1:
  27              		.file 1 "Generated_Source\\PSoC5\\USBFS_1.c"
   1:Generated_Source\PSoC5/USBFS_1.c **** /***************************************************************************//**
   2:Generated_Source\PSoC5/USBFS_1.c **** * \file USBFS_1.c
   3:Generated_Source\PSoC5/USBFS_1.c **** * \version 3.20
   4:Generated_Source\PSoC5/USBFS_1.c **** *
   5:Generated_Source\PSoC5/USBFS_1.c **** * \brief
   6:Generated_Source\PSoC5/USBFS_1.c **** *  This file contains the global USBFS API functions.
   7:Generated_Source\PSoC5/USBFS_1.c **** *
   8:Generated_Source\PSoC5/USBFS_1.c **** * Note:
   9:Generated_Source\PSoC5/USBFS_1.c **** *  Many of the functions use an endpoint number. SRAM arrays are sized with 9
  10:Generated_Source\PSoC5/USBFS_1.c **** *  elements, so they are indexed directly by epNumber.  The SIE and ARB
  11:Generated_Source\PSoC5/USBFS_1.c **** *  registers are indexed by variations of epNumber - 1.
  12:Generated_Source\PSoC5/USBFS_1.c **** *
  13:Generated_Source\PSoC5/USBFS_1.c **** ********************************************************************************
  14:Generated_Source\PSoC5/USBFS_1.c **** * \copyright
  15:Generated_Source\PSoC5/USBFS_1.c **** * Copyright 2008-2016, Cypress Semiconductor Corporation.  All rights reserved.
  16:Generated_Source\PSoC5/USBFS_1.c **** * You may use this file only in accordance with the license, terms, conditions,
  17:Generated_Source\PSoC5/USBFS_1.c **** * disclaimers, and limitations in the end user license agreement accompanying
  18:Generated_Source\PSoC5/USBFS_1.c **** * the software package with which this file was provided.
  19:Generated_Source\PSoC5/USBFS_1.c **** *******************************************************************************/
  20:Generated_Source\PSoC5/USBFS_1.c **** 
  21:Generated_Source\PSoC5/USBFS_1.c **** #include "USBFS_1_pvt.h"
  22:Generated_Source\PSoC5/USBFS_1.c **** #include "USBFS_1_cydmac.h"
  23:Generated_Source\PSoC5/USBFS_1.c **** #include "USBFS_1_hid.h"
  24:Generated_Source\PSoC5/USBFS_1.c **** #include "USBFS_1_Dp.h"
  25:Generated_Source\PSoC5/USBFS_1.c **** 
  26:Generated_Source\PSoC5/USBFS_1.c **** 
  27:Generated_Source\PSoC5/USBFS_1.c **** /***************************************
  28:Generated_Source\PSoC5/USBFS_1.c **** * Global data allocation
  29:Generated_Source\PSoC5/USBFS_1.c **** ***************************************/
  30:Generated_Source\PSoC5/USBFS_1.c **** 
ARM GAS  C:\Users\bchir\AppData\Local\Temp\ccbc5zmo.s 			page 2


  31:Generated_Source\PSoC5/USBFS_1.c **** /** Indicates whether the USBFS has been initialized. The variable is
  32:Generated_Source\PSoC5/USBFS_1.c **** * initialized to 0 after device reset and set to 1 the first time USBFS_Start()
  33:Generated_Source\PSoC5/USBFS_1.c **** * is called. This allows the Component to restart without reinitialization after
  34:Generated_Source\PSoC5/USBFS_1.c **** * the first call to the USBFS_Start() routine.
  35:Generated_Source\PSoC5/USBFS_1.c **** * If re-initialization of the Component is required, the variable should be set
  36:Generated_Source\PSoC5/USBFS_1.c **** * to 0 before the USBFS_Start() routine is called. Alternatively, the USBFS can
  37:Generated_Source\PSoC5/USBFS_1.c **** * be reinitialized by calling both USBFS_Init() and USBFS_InitComponent()
  38:Generated_Source\PSoC5/USBFS_1.c **** * functions.
  39:Generated_Source\PSoC5/USBFS_1.c **** */
  40:Generated_Source\PSoC5/USBFS_1.c **** uint8 USBFS_1_initVar = 0u;
  41:Generated_Source\PSoC5/USBFS_1.c **** 
  42:Generated_Source\PSoC5/USBFS_1.c **** #if (USBFS_1_EP_MANAGEMENT_DMA)
  43:Generated_Source\PSoC5/USBFS_1.c ****     #if (CY_PSOC4)
  44:Generated_Source\PSoC5/USBFS_1.c ****         static void USBFS_1_InitEpDma(void);
  45:Generated_Source\PSoC5/USBFS_1.c **** 
  46:Generated_Source\PSoC5/USBFS_1.c ****         /* DMA chanels assigend for endpoints. */
  47:Generated_Source\PSoC5/USBFS_1.c ****         const uint8 USBFS_1_DmaChan[USBFS_1_MAX_EP] =
  48:Generated_Source\PSoC5/USBFS_1.c ****         {
  49:Generated_Source\PSoC5/USBFS_1.c ****             0u,
  50:Generated_Source\PSoC5/USBFS_1.c ****             0u,
  51:Generated_Source\PSoC5/USBFS_1.c ****             0u,
  52:Generated_Source\PSoC5/USBFS_1.c ****             0u,
  53:Generated_Source\PSoC5/USBFS_1.c ****             0u,
  54:Generated_Source\PSoC5/USBFS_1.c ****             0u,
  55:Generated_Source\PSoC5/USBFS_1.c ****             0u,
  56:Generated_Source\PSoC5/USBFS_1.c ****             0u,
  57:Generated_Source\PSoC5/USBFS_1.c ****             0u,
  58:Generated_Source\PSoC5/USBFS_1.c ****         };        
  59:Generated_Source\PSoC5/USBFS_1.c ****     #else
  60:Generated_Source\PSoC5/USBFS_1.c ****         /* DMA chanels assigend for endpoints. */
  61:Generated_Source\PSoC5/USBFS_1.c ****         uint8 USBFS_1_DmaChan[USBFS_1_MAX_EP];
  62:Generated_Source\PSoC5/USBFS_1.c ****         
  63:Generated_Source\PSoC5/USBFS_1.c ****         /* DMA TDs require for PSoC 3/5LP operation. */
  64:Generated_Source\PSoC5/USBFS_1.c ****         uint8 USBFS_1_DmaTd[USBFS_1_MAX_EP];
  65:Generated_Source\PSoC5/USBFS_1.c ****     #endif /* (CY_PSOC4) */
  66:Generated_Source\PSoC5/USBFS_1.c **** #endif /* (USBFS_1_EP_MANAGEMENT_DMA) */
  67:Generated_Source\PSoC5/USBFS_1.c **** 
  68:Generated_Source\PSoC5/USBFS_1.c **** #if (USBFS_1_EP_MANAGEMENT_DMA_AUTO)
  69:Generated_Source\PSoC5/USBFS_1.c **** #if (CY_PSOC4)
  70:Generated_Source\PSoC5/USBFS_1.c ****     /* Number of DMA bursts. */
  71:Generated_Source\PSoC5/USBFS_1.c ****     uint8  USBFS_1_DmaEpBurstCnt   [USBFS_1_MAX_EP];
  72:Generated_Source\PSoC5/USBFS_1.c ****     
  73:Generated_Source\PSoC5/USBFS_1.c ****     /* Number of bytes to transfer in last DMA burst. */
  74:Generated_Source\PSoC5/USBFS_1.c ****     uint8  USBFS_1_DmaEpLastBurstEl[USBFS_1_MAX_EP];
  75:Generated_Source\PSoC5/USBFS_1.c **** 
  76:Generated_Source\PSoC5/USBFS_1.c ****     /* Storage for arrays above. */
  77:Generated_Source\PSoC5/USBFS_1.c ****     uint8  USBFS_1_DmaEpBurstCntBackup  [USBFS_1_MAX_EP];
  78:Generated_Source\PSoC5/USBFS_1.c ****     uint32 USBFS_1_DmaEpBufferAddrBackup[USBFS_1_MAX_EP];
  79:Generated_Source\PSoC5/USBFS_1.c ****      
  80:Generated_Source\PSoC5/USBFS_1.c ****     /* DMA trigger mux output for usb.dma_req[0-7]. */
  81:Generated_Source\PSoC5/USBFS_1.c ****     const uint8 USBFS_1_DmaReqOut[USBFS_1_MAX_EP] =
  82:Generated_Source\PSoC5/USBFS_1.c ****     {
  83:Generated_Source\PSoC5/USBFS_1.c ****         0u,
  84:Generated_Source\PSoC5/USBFS_1.c ****         USBFS_1_ep1_dma__TR_OUTPUT,
  85:Generated_Source\PSoC5/USBFS_1.c ****         0u,
  86:Generated_Source\PSoC5/USBFS_1.c ****         0u,
  87:Generated_Source\PSoC5/USBFS_1.c ****         0u,
ARM GAS  C:\Users\bchir\AppData\Local\Temp\ccbc5zmo.s 			page 3


  88:Generated_Source\PSoC5/USBFS_1.c ****         0u,
  89:Generated_Source\PSoC5/USBFS_1.c ****         0u,
  90:Generated_Source\PSoC5/USBFS_1.c ****         0u,
  91:Generated_Source\PSoC5/USBFS_1.c ****         0u,
  92:Generated_Source\PSoC5/USBFS_1.c ****     };
  93:Generated_Source\PSoC5/USBFS_1.c **** 
  94:Generated_Source\PSoC5/USBFS_1.c ****     /* DMA trigger mux output for usb.dma_burstend[0-7]. */
  95:Generated_Source\PSoC5/USBFS_1.c ****     const uint8 USBFS_1_DmaBurstEndOut[USBFS_1_MAX_EP] =
  96:Generated_Source\PSoC5/USBFS_1.c ****     {
  97:Generated_Source\PSoC5/USBFS_1.c ****         0u,
  98:Generated_Source\PSoC5/USBFS_1.c ****         USBFS_1_BURSTEND_0_TR_OUTPUT,
  99:Generated_Source\PSoC5/USBFS_1.c ****         USBFS_1_BURSTEND_1_TR_OUTPUT,
 100:Generated_Source\PSoC5/USBFS_1.c ****         USBFS_1_BURSTEND_2_TR_OUTPUT,
 101:Generated_Source\PSoC5/USBFS_1.c ****         USBFS_1_BURSTEND_3_TR_OUTPUT,
 102:Generated_Source\PSoC5/USBFS_1.c ****         USBFS_1_BURSTEND_4_TR_OUTPUT,
 103:Generated_Source\PSoC5/USBFS_1.c ****         USBFS_1_BURSTEND_5_TR_OUTPUT,
 104:Generated_Source\PSoC5/USBFS_1.c ****         USBFS_1_BURSTEND_6_TR_OUTPUT,
 105:Generated_Source\PSoC5/USBFS_1.c ****         USBFS_1_BURSTEND_7_TR_OUTPUT
 106:Generated_Source\PSoC5/USBFS_1.c ****     };
 107:Generated_Source\PSoC5/USBFS_1.c ****     
 108:Generated_Source\PSoC5/USBFS_1.c **** #else
 109:Generated_Source\PSoC5/USBFS_1.c ****     #if (USBFS_1_EP_DMA_AUTO_OPT == 0u)
 110:Generated_Source\PSoC5/USBFS_1.c ****         static uint8 clearInDataRdyStatus = USBFS_1_ARB_EPX_CFG_DEFAULT;
 111:Generated_Source\PSoC5/USBFS_1.c ****         uint8 USBFS_1_DmaNextTd[USBFS_1_MAX_EP];
 112:Generated_Source\PSoC5/USBFS_1.c ****         const uint8 USBFS_1_epX_TD_TERMOUT_EN[USBFS_1_MAX_EP] =
 113:Generated_Source\PSoC5/USBFS_1.c ****         {
 114:Generated_Source\PSoC5/USBFS_1.c ****             0u,
 115:Generated_Source\PSoC5/USBFS_1.c ****             0u,
 116:Generated_Source\PSoC5/USBFS_1.c ****             0u,
 117:Generated_Source\PSoC5/USBFS_1.c ****             0u,
 118:Generated_Source\PSoC5/USBFS_1.c ****             0u,
 119:Generated_Source\PSoC5/USBFS_1.c ****             0u,
 120:Generated_Source\PSoC5/USBFS_1.c ****             0u,
 121:Generated_Source\PSoC5/USBFS_1.c ****             0u,
 122:Generated_Source\PSoC5/USBFS_1.c ****             0u,
 123:Generated_Source\PSoC5/USBFS_1.c ****         };
 124:Generated_Source\PSoC5/USBFS_1.c **** 
 125:Generated_Source\PSoC5/USBFS_1.c ****         volatile uint16 USBFS_1_inLength[USBFS_1_MAX_EP];
 126:Generated_Source\PSoC5/USBFS_1.c ****         const uint8 *USBFS_1_inDataPointer[USBFS_1_MAX_EP];
 127:Generated_Source\PSoC5/USBFS_1.c ****         volatile uint8 USBFS_1_inBufFull[USBFS_1_MAX_EP];
 128:Generated_Source\PSoC5/USBFS_1.c ****     #endif /* (USBFS_1_EP_DMA_AUTO_OPT == 0u) */
 129:Generated_Source\PSoC5/USBFS_1.c **** #endif /* (CY_PSOC4) */
 130:Generated_Source\PSoC5/USBFS_1.c **** #endif /* (USBFS_1_EP_MANAGEMENT_DMA_AUTO) */
 131:Generated_Source\PSoC5/USBFS_1.c **** 
 132:Generated_Source\PSoC5/USBFS_1.c **** 
 133:Generated_Source\PSoC5/USBFS_1.c **** /*******************************************************************************
 134:Generated_Source\PSoC5/USBFS_1.c **** * Function Name: USBFS_1_Start
 135:Generated_Source\PSoC5/USBFS_1.c **** ****************************************************************************//**
 136:Generated_Source\PSoC5/USBFS_1.c **** *
 137:Generated_Source\PSoC5/USBFS_1.c **** *   This function performs all required initialization for the USBFS component.
 138:Generated_Source\PSoC5/USBFS_1.c **** *   After this function call, the USB device initiates communication with the
 139:Generated_Source\PSoC5/USBFS_1.c **** *   host by pull-up D+ line. This is the preferred method to begin component
 140:Generated_Source\PSoC5/USBFS_1.c **** *   operation.
 141:Generated_Source\PSoC5/USBFS_1.c **** *
 142:Generated_Source\PSoC5/USBFS_1.c **** *   Note that global interrupts have to be enabled because interrupts are
 143:Generated_Source\PSoC5/USBFS_1.c **** *   required for USBFS component operation.
 144:Generated_Source\PSoC5/USBFS_1.c **** *
ARM GAS  C:\Users\bchir\AppData\Local\Temp\ccbc5zmo.s 			page 4


 145:Generated_Source\PSoC5/USBFS_1.c **** *   PSoC 4200L devices: when USBFS component configured to DMA with Automatic
 146:Generated_Source\PSoC5/USBFS_1.c **** *   Buffer Management, the DMA interrupt priority is changed to the highest
 147:Generated_Source\PSoC5/USBFS_1.c **** *   (priority 0) inside this function.
 148:Generated_Source\PSoC5/USBFS_1.c **** *
 149:Generated_Source\PSoC5/USBFS_1.c **** *   PSoC 3/PSoC 5LP devices: when USBFS component configured to DMA with
 150:Generated_Source\PSoC5/USBFS_1.c **** *   Automatic Buffer Management, the Arbiter interrupt priority is changed to
 151:Generated_Source\PSoC5/USBFS_1.c **** *   the highest (priority 0) inside this function.
 152:Generated_Source\PSoC5/USBFS_1.c **** *
 153:Generated_Source\PSoC5/USBFS_1.c **** *  \param device
 154:Generated_Source\PSoC5/USBFS_1.c **** *          Contains the device number of the desired device descriptor.
 155:Generated_Source\PSoC5/USBFS_1.c **** *          The device number can be found in the Device Descriptor Tab of
 156:Generated_Source\PSoC5/USBFS_1.c **** *          "Configure" dialog, under the settings of desired Device Descriptor,
 157:Generated_Source\PSoC5/USBFS_1.c **** *          in the "Device Number" field.
 158:Generated_Source\PSoC5/USBFS_1.c **** *  \param mode:
 159:Generated_Source\PSoC5/USBFS_1.c **** *   The operating voltage. This determines whether the voltage regulator
 160:Generated_Source\PSoC5/USBFS_1.c **** *   is enabled for 5V operation or if pass through mode is used for 3.3V
 161:Generated_Source\PSoC5/USBFS_1.c **** *   operation. Symbolic names and their associated values are given in the
 162:Generated_Source\PSoC5/USBFS_1.c **** *   following list.
 163:Generated_Source\PSoC5/USBFS_1.c **** *
 164:Generated_Source\PSoC5/USBFS_1.c **** *       *USBFS_1_3V_OPERATION* - Disable voltage regulator and pass-
 165:Generated_Source\PSoC5/USBFS_1.c **** *                                      through Vcc for pull-up
 166:Generated_Source\PSoC5/USBFS_1.c **** *
 167:Generated_Source\PSoC5/USBFS_1.c **** *       *USBFS_1_5V_OPERATION* - Enable voltage regulator and use
 168:Generated_Source\PSoC5/USBFS_1.c **** *                                      regulator for pull-up
 169:Generated_Source\PSoC5/USBFS_1.c **** *
 170:Generated_Source\PSoC5/USBFS_1.c **** *       *USBFS_1_DWR_POWER_OPERATION* - Enable or disable the voltage
 171:Generated_Source\PSoC5/USBFS_1.c **** *                                      regulator depending on the power supply
 172:Generated_Source\PSoC5/USBFS_1.c **** *                                      voltage configuration in the DWR tab.
 173:Generated_Source\PSoC5/USBFS_1.c **** *                                      For PSoC 3/5LP devices, the VDDD supply
 174:Generated_Source\PSoC5/USBFS_1.c **** *                                      voltage is considered and for PSoC 4A-L,
 175:Generated_Source\PSoC5/USBFS_1.c **** *                                      the VBUS supply voltage is considered.*
 176:Generated_Source\PSoC5/USBFS_1.c **** * \globalvars
 177:Generated_Source\PSoC5/USBFS_1.c **** *  \ref USBFS_1_initVar
 178:Generated_Source\PSoC5/USBFS_1.c **** *
 179:Generated_Source\PSoC5/USBFS_1.c **** * \sideeffect
 180:Generated_Source\PSoC5/USBFS_1.c **** *   This function will reset all communication states to default.
 181:Generated_Source\PSoC5/USBFS_1.c **** *
 182:Generated_Source\PSoC5/USBFS_1.c **** * \reentrant
 183:Generated_Source\PSoC5/USBFS_1.c **** *  No.
 184:Generated_Source\PSoC5/USBFS_1.c **** *
 185:Generated_Source\PSoC5/USBFS_1.c **** *******************************************************************************/
 186:Generated_Source\PSoC5/USBFS_1.c **** void USBFS_1_Start(uint8 device, uint8 mode) 
 187:Generated_Source\PSoC5/USBFS_1.c **** {
 188:Generated_Source\PSoC5/USBFS_1.c ****     if (0u == USBFS_1_initVar)
 189:Generated_Source\PSoC5/USBFS_1.c ****     {
 190:Generated_Source\PSoC5/USBFS_1.c ****         USBFS_1_Init();
 191:Generated_Source\PSoC5/USBFS_1.c ****         USBFS_1_initVar = 1u;
 192:Generated_Source\PSoC5/USBFS_1.c ****     }
 193:Generated_Source\PSoC5/USBFS_1.c **** 
 194:Generated_Source\PSoC5/USBFS_1.c ****     USBFS_1_InitComponent(device, mode);
 195:Generated_Source\PSoC5/USBFS_1.c **** }
 196:Generated_Source\PSoC5/USBFS_1.c **** 
 197:Generated_Source\PSoC5/USBFS_1.c **** 
 198:Generated_Source\PSoC5/USBFS_1.c **** /*******************************************************************************
 199:Generated_Source\PSoC5/USBFS_1.c **** * Function Name: USBFS_1_Init
 200:Generated_Source\PSoC5/USBFS_1.c **** ****************************************************************************//**
 201:Generated_Source\PSoC5/USBFS_1.c **** *
ARM GAS  C:\Users\bchir\AppData\Local\Temp\ccbc5zmo.s 			page 5


 202:Generated_Source\PSoC5/USBFS_1.c **** * This function initializes or restores the component according to the
 203:Generated_Source\PSoC5/USBFS_1.c **** * customizer Configure dialog settings. It is not necessary to call
 204:Generated_Source\PSoC5/USBFS_1.c **** * USBFS_1_Init() because the USBFS_1_Start() routine calls
 205:Generated_Source\PSoC5/USBFS_1.c **** * this function and is the preferred method to begin component operation.
 206:Generated_Source\PSoC5/USBFS_1.c **** *
 207:Generated_Source\PSoC5/USBFS_1.c **** * \reentrant
 208:Generated_Source\PSoC5/USBFS_1.c **** *  No.
 209:Generated_Source\PSoC5/USBFS_1.c **** *
 210:Generated_Source\PSoC5/USBFS_1.c **** *******************************************************************************/
 211:Generated_Source\PSoC5/USBFS_1.c **** void USBFS_1_Init(void) 
 212:Generated_Source\PSoC5/USBFS_1.c **** {
  28              		.loc 1 212 0
  29              		.cfi_startproc
  30              		@ args = 0, pretend = 0, frame = 0
  31              		@ frame_needed = 0, uses_anonymous_args = 0
  32 0000 F8B5     		push	{r3, r4, r5, r6, r7, lr}
  33              		.cfi_def_cfa_offset 24
  34              		.cfi_offset 3, -24
  35              		.cfi_offset 4, -20
  36              		.cfi_offset 5, -16
  37              		.cfi_offset 6, -12
  38              		.cfi_offset 7, -8
  39              		.cfi_offset 14, -4
 213:Generated_Source\PSoC5/USBFS_1.c **** #if (CY_PSOC4)
 214:Generated_Source\PSoC5/USBFS_1.c ****     /* Enable clock to USB IP. */
 215:Generated_Source\PSoC5/USBFS_1.c ****     USBFS_1_USB_CLK_EN_REG = USBFS_1_USB_CLK_CSR_CLK_EN;
 216:Generated_Source\PSoC5/USBFS_1.c **** 
 217:Generated_Source\PSoC5/USBFS_1.c ****     /* The internal regulator (CR1.REG_ENABLE) is enabled in
 218:Generated_Source\PSoC5/USBFS_1.c ****     * USBFS_1_InitComponent() if it is required.
 219:Generated_Source\PSoC5/USBFS_1.c ****     */
 220:Generated_Source\PSoC5/USBFS_1.c **** 
 221:Generated_Source\PSoC5/USBFS_1.c ****     /* Enable USBIO control on drive mode of D+ and D- pins. */
 222:Generated_Source\PSoC5/USBFS_1.c ****     USBFS_1_USBIO_CR1_REG &= ~ (uint32) USBFS_1_USBIO_CR1_IOMODE;
 223:Generated_Source\PSoC5/USBFS_1.c **** 
 224:Generated_Source\PSoC5/USBFS_1.c ****     /* Set number of LF CLK to detect UBS bus reset. */
 225:Generated_Source\PSoC5/USBFS_1.c ****     USBFS_1_BUS_RST_CNT_REG = USBFS_1_DEFUALT_BUS_RST_CNT;
 226:Generated_Source\PSoC5/USBFS_1.c **** 
 227:Generated_Source\PSoC5/USBFS_1.c ****     /* Select VBUS detection source and clear PHY isolate. The application level
 228:Generated_Source\PSoC5/USBFS_1.c ****     * must ensure that VBUS is valid. There is no need to wait 2us before VBUS is valid.
 229:Generated_Source\PSoC5/USBFS_1.c ****     */
 230:Generated_Source\PSoC5/USBFS_1.c ****     USBFS_1_POWER_CTRL_REG = USBFS_1_DEFAULT_POWER_CTRL_VBUS;
 231:Generated_Source\PSoC5/USBFS_1.c **** 
 232:Generated_Source\PSoC5/USBFS_1.c ****     /* Enable PHY detector and single-ended and differential receivers. */
 233:Generated_Source\PSoC5/USBFS_1.c ****     USBFS_1_POWER_CTRL_REG |= USBFS_1_DEFAULT_POWER_CTRL_PHY;
 234:Generated_Source\PSoC5/USBFS_1.c **** 
 235:Generated_Source\PSoC5/USBFS_1.c ****     /* Suspend clear sequence. */
 236:Generated_Source\PSoC5/USBFS_1.c ****     USBFS_1_POWER_CTRL_REG &= (uint32) ~USBFS_1_POWER_CTRL_SUSPEND;
 237:Generated_Source\PSoC5/USBFS_1.c ****     CyDelayUs(USBFS_1_WAIT_SUSPEND_DEL_DISABLE);
 238:Generated_Source\PSoC5/USBFS_1.c ****     USBFS_1_POWER_CTRL_REG &= (uint32) ~USBFS_1_POWER_CTRL_SUSPEND_DEL;
 239:Generated_Source\PSoC5/USBFS_1.c **** 
 240:Generated_Source\PSoC5/USBFS_1.c ****     /* Sets IMO lock options and clear all other bits. */
 241:Generated_Source\PSoC5/USBFS_1.c ****     USBFS_1_CR1_REG = USBFS_1_DEFUALT_CR1;
 242:Generated_Source\PSoC5/USBFS_1.c **** 
 243:Generated_Source\PSoC5/USBFS_1.c ****     /* Configure level (hi, lo, med) for each interrupt source. */
 244:Generated_Source\PSoC5/USBFS_1.c ****     USBFS_1_INTR_LVL_SEL_REG = USBFS_1_DEFAULT_INTR_LVL_SEL;
 245:Generated_Source\PSoC5/USBFS_1.c **** 
 246:Generated_Source\PSoC5/USBFS_1.c ****     /* Configure interrupt sources from: SOF, Bus Reset and EP0. */
ARM GAS  C:\Users\bchir\AppData\Local\Temp\ccbc5zmo.s 			page 6


 247:Generated_Source\PSoC5/USBFS_1.c ****     USBFS_1_INTR_SIE_MASK_REG = USBFS_1_DEFAULT_INTR_SIE_MASK;
 248:Generated_Source\PSoC5/USBFS_1.c **** 
 249:Generated_Source\PSoC5/USBFS_1.c **** #else
 250:Generated_Source\PSoC5/USBFS_1.c ****     uint8 enableInterrupts = CyEnterCriticalSection();
  40              		.loc 1 250 0
  41 0002 FFF7FEFF 		bl	CyEnterCriticalSection
  42              	.LVL0:
  43 0006 0646     		mov	r6, r0
  44              	.LVL1:
 251:Generated_Source\PSoC5/USBFS_1.c **** 
 252:Generated_Source\PSoC5/USBFS_1.c **** #if (USBFS_1_EP_MANAGEMENT_DMA)
 253:Generated_Source\PSoC5/USBFS_1.c ****     uint16 i;
 254:Generated_Source\PSoC5/USBFS_1.c **** #endif /* (USBFS_1_EP_MANAGEMENT_DMA) */
 255:Generated_Source\PSoC5/USBFS_1.c **** 
 256:Generated_Source\PSoC5/USBFS_1.c ****     /* Enable USB block. */
 257:Generated_Source\PSoC5/USBFS_1.c ****     USBFS_1_PM_ACT_CFG_REG |= USBFS_1_PM_ACT_EN_FSUSB;
  45              		.loc 1 257 0
  46 0008 344A     		ldr	r2, .L3
  47 000a 1378     		ldrb	r3, [r2]	@ zero_extendqisi2
  48 000c 43F00103 		orr	r3, r3, #1
  49 0010 1370     		strb	r3, [r2]
 258:Generated_Source\PSoC5/USBFS_1.c ****     /* Enable USB block for Standby Power Mode. */
 259:Generated_Source\PSoC5/USBFS_1.c ****     USBFS_1_PM_STBY_CFG_REG |= USBFS_1_PM_STBY_EN_FSUSB;
  50              		.loc 1 259 0
  51 0012 1032     		adds	r2, r2, #16
  52 0014 1378     		ldrb	r3, [r2]	@ zero_extendqisi2
  53 0016 43F00103 		orr	r3, r3, #1
  54 001a 1370     		strb	r3, [r2]
 260:Generated_Source\PSoC5/USBFS_1.c **** 
 261:Generated_Source\PSoC5/USBFS_1.c ****     /* Enable core clock. */
 262:Generated_Source\PSoC5/USBFS_1.c ****     USBFS_1_USB_CLK_EN_REG = USBFS_1_USB_CLK_ENABLE;
  55              		.loc 1 262 0
  56 001c 0125     		movs	r5, #1
  57 001e 304B     		ldr	r3, .L3+4
  58 0020 1D70     		strb	r5, [r3]
 263:Generated_Source\PSoC5/USBFS_1.c **** 
 264:Generated_Source\PSoC5/USBFS_1.c ****     USBFS_1_CR1_REG = USBFS_1_CR1_ENABLE_LOCK;
  59              		.loc 1 264 0
  60 0022 0227     		movs	r7, #2
  61 0024 943B     		subs	r3, r3, #148
  62 0026 1F70     		strb	r7, [r3]
 265:Generated_Source\PSoC5/USBFS_1.c **** 
 266:Generated_Source\PSoC5/USBFS_1.c ****     /* ENABLING USBIO PADS IN USB MODE FROM I/O MODE. */
 267:Generated_Source\PSoC5/USBFS_1.c ****     /* Ensure USB transmit enable is low (USB_USBIO_CR0.ten). - Manual Transmission - Disabled. */
 268:Generated_Source\PSoC5/USBFS_1.c ****     USBFS_1_USBIO_CR0_REG &= (uint8) ~USBFS_1_USBIO_CR0_TEN;
  63              		.loc 1 268 0
  64 0028 02F5E252 		add	r2, r2, #7232
  65 002c 1B32     		adds	r2, r2, #27
  66 002e 1378     		ldrb	r3, [r2]	@ zero_extendqisi2
  67 0030 03F07F03 		and	r3, r3, #127
  68 0034 1370     		strb	r3, [r2]
 269:Generated_Source\PSoC5/USBFS_1.c ****     CyDelayUs(USBFS_1_WAIT_REG_STABILITY_50NS);  /* ~50ns delay. */
  69              		.loc 1 269 0
  70 0036 0020     		movs	r0, #0
  71 0038 FFF7FEFF 		bl	CyDelayUs
  72              	.LVL2:
 270:Generated_Source\PSoC5/USBFS_1.c ****     /* Disable USBIO by asserting PM.USB_CR0.fsusbio_pd_n(Inverted.
ARM GAS  C:\Users\bchir\AppData\Local\Temp\ccbc5zmo.s 			page 7


 271:Generated_Source\PSoC5/USBFS_1.c ****     *  high. These bits will be set low by the power manager out-of-reset.
 272:Generated_Source\PSoC5/USBFS_1.c ****     *  Also confirm USBIO pull-up is disabled.
 273:Generated_Source\PSoC5/USBFS_1.c ****     */
 274:Generated_Source\PSoC5/USBFS_1.c ****     USBFS_1_PM_USB_CR0_REG &= (uint8) ~(USBFS_1_PM_USB_CR0_PD_N |
  73              		.loc 1 274 0
  74 003c 294C     		ldr	r4, .L3+8
  75 003e 2378     		ldrb	r3, [r4]	@ zero_extendqisi2
  76 0040 03F0F903 		and	r3, r3, #249
  77 0044 2370     		strb	r3, [r4]
 275:Generated_Source\PSoC5/USBFS_1.c ****                                                  USBFS_1_PM_USB_CR0_PD_PULLUP_N);
 276:Generated_Source\PSoC5/USBFS_1.c **** 
 277:Generated_Source\PSoC5/USBFS_1.c ****     /* Select IOMODE to USB mode. */
 278:Generated_Source\PSoC5/USBFS_1.c ****     USBFS_1_USBIO_CR1_REG &= (uint8) ~USBFS_1_USBIO_CR1_IOMODE;
  78              		.loc 1 278 0
  79 0046 284A     		ldr	r2, .L3+12
  80 0048 1378     		ldrb	r3, [r2]	@ zero_extendqisi2
  81 004a 03F0DF03 		and	r3, r3, #223
  82 004e 1370     		strb	r3, [r2]
 279:Generated_Source\PSoC5/USBFS_1.c **** 
 280:Generated_Source\PSoC5/USBFS_1.c ****     /* Enable USBIO reference by setting PM.USB_CR0.fsusbio_ref_en. */
 281:Generated_Source\PSoC5/USBFS_1.c ****     USBFS_1_PM_USB_CR0_REG |= USBFS_1_PM_USB_CR0_REF_EN;
  83              		.loc 1 281 0
  84 0050 2378     		ldrb	r3, [r4]	@ zero_extendqisi2
  85 0052 2B43     		orrs	r3, r3, r5
  86 0054 2370     		strb	r3, [r4]
 282:Generated_Source\PSoC5/USBFS_1.c ****     /* Reference is available for 1us after regulator is enabled. */
 283:Generated_Source\PSoC5/USBFS_1.c ****     CyDelayUs(USBFS_1_WAIT_REG_STABILITY_1US);
  87              		.loc 1 283 0
  88 0056 2846     		mov	r0, r5
  89 0058 FFF7FEFF 		bl	CyDelayUs
  90              	.LVL3:
 284:Generated_Source\PSoC5/USBFS_1.c ****     /* OR 40us after power is restored. */
 285:Generated_Source\PSoC5/USBFS_1.c ****     CyDelayUs(USBFS_1_WAIT_VREF_RESTORE);
  91              		.loc 1 285 0
  92 005c 2820     		movs	r0, #40
  93 005e FFF7FEFF 		bl	CyDelayUs
  94              	.LVL4:
 286:Generated_Source\PSoC5/USBFS_1.c ****     /* Ensure single-ended disable bits are low (PRT15.INP_DIS[7:6])(input receiver enabled). */
 287:Generated_Source\PSoC5/USBFS_1.c ****     USBFS_1_DM_INP_DIS_REG &= (uint8) ~USBFS_1_DM_MASK;
  95              		.loc 1 287 0
  96 0062 224B     		ldr	r3, .L3+16
  97 0064 1A78     		ldrb	r2, [r3]	@ zero_extendqisi2
  98 0066 02F07F02 		and	r2, r2, #127
  99 006a 1A70     		strb	r2, [r3]
 288:Generated_Source\PSoC5/USBFS_1.c ****     USBFS_1_DP_INP_DIS_REG &= (uint8) ~USBFS_1_DP_MASK;
 100              		.loc 1 288 0
 101 006c 1A78     		ldrb	r2, [r3]	@ zero_extendqisi2
 102 006e 02F0BF02 		and	r2, r2, #191
 103 0072 1A70     		strb	r2, [r3]
 289:Generated_Source\PSoC5/USBFS_1.c **** 
 290:Generated_Source\PSoC5/USBFS_1.c ****     /* Enable USBIO. */
 291:Generated_Source\PSoC5/USBFS_1.c ****     USBFS_1_PM_USB_CR0_REG |= USBFS_1_PM_USB_CR0_PD_N;
 104              		.loc 1 291 0
 105 0074 2378     		ldrb	r3, [r4]	@ zero_extendqisi2
 106 0076 3B43     		orrs	r3, r3, r7
 107 0078 2370     		strb	r3, [r4]
 292:Generated_Source\PSoC5/USBFS_1.c ****     CyDelayUs(USBFS_1_WAIT_PD_PULLUP_N_ENABLE);
ARM GAS  C:\Users\bchir\AppData\Local\Temp\ccbc5zmo.s 			page 8


 108              		.loc 1 292 0
 109 007a 3846     		mov	r0, r7
 110 007c FFF7FEFF 		bl	CyDelayUs
 111              	.LVL5:
 293:Generated_Source\PSoC5/USBFS_1.c ****     /* Set USBIO pull-up enable. */
 294:Generated_Source\PSoC5/USBFS_1.c ****     USBFS_1_PM_USB_CR0_REG |= USBFS_1_PM_USB_CR0_PD_PULLUP_N;
 112              		.loc 1 294 0
 113 0080 2378     		ldrb	r3, [r4]	@ zero_extendqisi2
 114 0082 43F00403 		orr	r3, r3, #4
 115 0086 2370     		strb	r3, [r4]
 295:Generated_Source\PSoC5/USBFS_1.c **** 
 296:Generated_Source\PSoC5/USBFS_1.c ****     /* Reset Arbiter Write Address register for endpoint 1. */
 297:Generated_Source\PSoC5/USBFS_1.c ****     CY_SET_REG8(USBFS_1_ARB_RW1_WA_PTR,     0u);
 116              		.loc 1 297 0
 117 0088 0023     		movs	r3, #0
 118 008a 194A     		ldr	r2, .L3+20
 119 008c 1370     		strb	r3, [r2]
 298:Generated_Source\PSoC5/USBFS_1.c ****     CY_SET_REG8(USBFS_1_ARB_RW1_WA_MSB_PTR, 0u);
 120              		.loc 1 298 0
 121 008e 0132     		adds	r2, r2, #1
 122 0090 1370     		strb	r3, [r2]
 299:Generated_Source\PSoC5/USBFS_1.c **** 
 300:Generated_Source\PSoC5/USBFS_1.c **** #if (USBFS_1_EP_MANAGEMENT_DMA)
 301:Generated_Source\PSoC5/USBFS_1.c ****     /* Initialize transfer descriptor. This will be used to detect DMA state - initialized or not. 
 302:Generated_Source\PSoC5/USBFS_1.c ****     for (i = 0u; i < USBFS_1_MAX_EP; ++i)
 303:Generated_Source\PSoC5/USBFS_1.c ****     {
 304:Generated_Source\PSoC5/USBFS_1.c ****         USBFS_1_DmaTd[i] = DMA_INVALID_TD;
 305:Generated_Source\PSoC5/USBFS_1.c **** 
 306:Generated_Source\PSoC5/USBFS_1.c ****     #if (USBFS_1_EP_MANAGEMENT_DMA_AUTO && (USBFS_1_EP_DMA_AUTO_OPT == 0u))
 307:Generated_Source\PSoC5/USBFS_1.c ****         USBFS_1_DmaNextTd[i] = DMA_INVALID_TD;
 308:Generated_Source\PSoC5/USBFS_1.c ****     #endif /* (USBFS_1_EP_MANAGEMENT_DMA_AUTO && (USBFS_1_EP_DMA_AUTO_OPT == 0u)) */
 309:Generated_Source\PSoC5/USBFS_1.c ****     }
 310:Generated_Source\PSoC5/USBFS_1.c **** #endif /* (USBFS_1_EP_MANAGEMENT_DMA) */
 311:Generated_Source\PSoC5/USBFS_1.c **** 
 312:Generated_Source\PSoC5/USBFS_1.c ****     CyExitCriticalSection(enableInterrupts);
 123              		.loc 1 312 0
 124 0092 3046     		mov	r0, r6
 125 0094 FFF7FEFF 		bl	CyExitCriticalSection
 126              	.LVL6:
 313:Generated_Source\PSoC5/USBFS_1.c **** #endif /* (CY_PSOC4) */
 314:Generated_Source\PSoC5/USBFS_1.c **** 
 315:Generated_Source\PSoC5/USBFS_1.c ****     /* Configure interrupts from USB block. */
 316:Generated_Source\PSoC5/USBFS_1.c **** #if (CY_PSOC4)
 317:Generated_Source\PSoC5/USBFS_1.c ****     /* Configure hi_int: set handler and priority. */
 318:Generated_Source\PSoC5/USBFS_1.c ****     CyIntSetPriority     (USBFS_1_INTR_HI_VECT_NUM,  USBFS_1_INTR_HI_PRIORITY);
 319:Generated_Source\PSoC5/USBFS_1.c ****     (void) CyIntSetVector(USBFS_1_INTR_HI_VECT_NUM, &USBFS_1_INTR_HI_ISR);
 320:Generated_Source\PSoC5/USBFS_1.c **** 
 321:Generated_Source\PSoC5/USBFS_1.c ****     /* Configure lo_int: set handler and priority. */
 322:Generated_Source\PSoC5/USBFS_1.c ****     CyIntSetPriority     (USBFS_1_INTR_LO_VECT_NUM,  USBFS_1_INTR_LO_PRIORITY);
 323:Generated_Source\PSoC5/USBFS_1.c ****     (void) CyIntSetVector(USBFS_1_INTR_LO_VECT_NUM, &USBFS_1_INTR_LO_ISR);
 324:Generated_Source\PSoC5/USBFS_1.c **** 
 325:Generated_Source\PSoC5/USBFS_1.c ****     /* Configure med_int: set handler and priority (routed through DSI). */
 326:Generated_Source\PSoC5/USBFS_1.c ****     CyIntSetPriority     (USBFS_1_INTR_MED_VECT_NUM,  USBFS_1_INTR_MED_PRIORITY);
 327:Generated_Source\PSoC5/USBFS_1.c ****     (void) CyIntSetVector(USBFS_1_INTR_MED_VECT_NUM, &USBFS_1_INTR_MED_ISR);
 328:Generated_Source\PSoC5/USBFS_1.c **** 
 329:Generated_Source\PSoC5/USBFS_1.c **** #else
 330:Generated_Source\PSoC5/USBFS_1.c ****     /* Set bus reset interrupt. */
ARM GAS  C:\Users\bchir\AppData\Local\Temp\ccbc5zmo.s 			page 9


 331:Generated_Source\PSoC5/USBFS_1.c ****     CyIntSetPriority(USBFS_1_BUS_RESET_VECT_NUM, USBFS_1_BUS_RESET_PRIOR);
 127              		.loc 1 331 0
 128 0098 0721     		movs	r1, #7
 129 009a 1720     		movs	r0, #23
 130 009c FFF7FEFF 		bl	CyIntSetPriority
 131              	.LVL7:
 332:Generated_Source\PSoC5/USBFS_1.c ****     (void) CyIntSetVector(USBFS_1_BUS_RESET_VECT_NUM,   &USBFS_1_BUS_RESET_ISR);
 132              		.loc 1 332 0
 133 00a0 1449     		ldr	r1, .L3+24
 134 00a2 1720     		movs	r0, #23
 135 00a4 FFF7FEFF 		bl	CyIntSetVector
 136              	.LVL8:
 333:Generated_Source\PSoC5/USBFS_1.c **** 
 334:Generated_Source\PSoC5/USBFS_1.c ****     /* Set Control Endpoint Interrupt. */
 335:Generated_Source\PSoC5/USBFS_1.c ****     CyIntSetPriority(USBFS_1_EP_0_VECT_NUM, USBFS_1_EP_0_PRIOR);
 137              		.loc 1 335 0
 138 00a8 0721     		movs	r1, #7
 139 00aa 1820     		movs	r0, #24
 140 00ac FFF7FEFF 		bl	CyIntSetPriority
 141              	.LVL9:
 336:Generated_Source\PSoC5/USBFS_1.c ****     (void) CyIntSetVector(USBFS_1_EP_0_VECT_NUM,   &USBFS_1_EP_0_ISR);
 142              		.loc 1 336 0
 143 00b0 1149     		ldr	r1, .L3+28
 144 00b2 1820     		movs	r0, #24
 145 00b4 FFF7FEFF 		bl	CyIntSetVector
 146              	.LVL10:
 337:Generated_Source\PSoC5/USBFS_1.c **** 
 338:Generated_Source\PSoC5/USBFS_1.c ****     /* Set SOF interrupt. */
 339:Generated_Source\PSoC5/USBFS_1.c ****     #if (USBFS_1_SOF_ISR_ACTIVE)
 340:Generated_Source\PSoC5/USBFS_1.c ****         CyIntSetPriority     (USBFS_1_SOF_VECT_NUM,  USBFS_1_SOF_PRIOR);
 341:Generated_Source\PSoC5/USBFS_1.c ****         (void) CyIntSetVector(USBFS_1_SOF_VECT_NUM, &USBFS_1_SOF_ISR);
 342:Generated_Source\PSoC5/USBFS_1.c ****     #endif /* (USBFS_1_SOF_ISR_ACTIVE) */
 343:Generated_Source\PSoC5/USBFS_1.c **** 
 344:Generated_Source\PSoC5/USBFS_1.c ****     /* Set Data Endpoint 1 Interrupt. */
 345:Generated_Source\PSoC5/USBFS_1.c ****     #if (USBFS_1_EP1_ISR_ACTIVE)
 346:Generated_Source\PSoC5/USBFS_1.c ****         CyIntSetPriority     (USBFS_1_EP_1_VECT_NUM,  USBFS_1_EP_1_PRIOR);
 147              		.loc 1 346 0
 148 00b8 0721     		movs	r1, #7
 149 00ba 2846     		mov	r0, r5
 150 00bc FFF7FEFF 		bl	CyIntSetPriority
 151              	.LVL11:
 347:Generated_Source\PSoC5/USBFS_1.c ****         (void) CyIntSetVector(USBFS_1_EP_1_VECT_NUM,  &USBFS_1_EP_1_ISR);
 152              		.loc 1 347 0
 153 00c0 0E49     		ldr	r1, .L3+32
 154 00c2 2846     		mov	r0, r5
 155 00c4 FFF7FEFF 		bl	CyIntSetVector
 156              	.LVL12:
 348:Generated_Source\PSoC5/USBFS_1.c ****     #endif /* (USBFS_1_EP1_ISR_ACTIVE) */
 349:Generated_Source\PSoC5/USBFS_1.c **** 
 350:Generated_Source\PSoC5/USBFS_1.c ****     /* Set Data Endpoint 2 Interrupt. */
 351:Generated_Source\PSoC5/USBFS_1.c ****     #if (USBFS_1_EP2_ISR_ACTIVE)
 352:Generated_Source\PSoC5/USBFS_1.c ****         CyIntSetPriority     (USBFS_1_EP_2_VECT_NUM,  USBFS_1_EP_2_PRIOR);
 353:Generated_Source\PSoC5/USBFS_1.c ****         (void) CyIntSetVector(USBFS_1_EP_2_VECT_NUM, &USBFS_1_EP_2_ISR);
 354:Generated_Source\PSoC5/USBFS_1.c ****     #endif /* (USBFS_1_EP2_ISR_ACTIVE) */
 355:Generated_Source\PSoC5/USBFS_1.c **** 
 356:Generated_Source\PSoC5/USBFS_1.c ****     /* Set Data Endpoint 3 Interrupt. */
 357:Generated_Source\PSoC5/USBFS_1.c ****     #if (USBFS_1_EP3_ISR_ACTIVE)
ARM GAS  C:\Users\bchir\AppData\Local\Temp\ccbc5zmo.s 			page 10


 358:Generated_Source\PSoC5/USBFS_1.c ****         CyIntSetPriority     (USBFS_1_EP_3_VECT_NUM,  USBFS_1_EP_3_PRIOR);
 359:Generated_Source\PSoC5/USBFS_1.c ****         (void) CyIntSetVector(USBFS_1_EP_3_VECT_NUM, &USBFS_1_EP_3_ISR);
 360:Generated_Source\PSoC5/USBFS_1.c ****     #endif /* (USBFS_1_EP3_ISR_ACTIVE) */
 361:Generated_Source\PSoC5/USBFS_1.c **** 
 362:Generated_Source\PSoC5/USBFS_1.c ****     /* Set Data Endpoint 4 Interrupt. */
 363:Generated_Source\PSoC5/USBFS_1.c ****     #if (USBFS_1_EP4_ISR_ACTIVE)
 364:Generated_Source\PSoC5/USBFS_1.c ****         CyIntSetPriority     (USBFS_1_EP_4_VECT_NUM,  USBFS_1_EP_4_PRIOR);
 365:Generated_Source\PSoC5/USBFS_1.c ****         (void) CyIntSetVector(USBFS_1_EP_4_VECT_NUM, &USBFS_1_EP_4_ISR);
 366:Generated_Source\PSoC5/USBFS_1.c ****     #endif /* (USBFS_1_EP4_ISR_ACTIVE) */
 367:Generated_Source\PSoC5/USBFS_1.c **** 
 368:Generated_Source\PSoC5/USBFS_1.c ****     /* Set Data Endpoint 5 Interrupt. */
 369:Generated_Source\PSoC5/USBFS_1.c ****     #if (USBFS_1_EP5_ISR_ACTIVE)
 370:Generated_Source\PSoC5/USBFS_1.c ****         CyIntSetPriority     (USBFS_1_EP_5_VECT_NUM,  USBFS_1_EP_5_PRIOR);
 371:Generated_Source\PSoC5/USBFS_1.c ****         (void) CyIntSetVector(USBFS_1_EP_5_VECT_NUM, &USBFS_1_EP_5_ISR);
 372:Generated_Source\PSoC5/USBFS_1.c ****     #endif /* (USBFS_1_EP5_ISR_ACTIVE) */
 373:Generated_Source\PSoC5/USBFS_1.c **** 
 374:Generated_Source\PSoC5/USBFS_1.c ****     /* Set Data Endpoint 6 Interrupt. */
 375:Generated_Source\PSoC5/USBFS_1.c ****     #if (USBFS_1_EP6_ISR_ACTIVE)
 376:Generated_Source\PSoC5/USBFS_1.c ****         CyIntSetPriority     (USBFS_1_EP_6_VECT_NUM,  USBFS_1_EP_6_PRIOR);
 377:Generated_Source\PSoC5/USBFS_1.c ****         (void) CyIntSetVector(USBFS_1_EP_6_VECT_NUM, &USBFS_1_EP_6_ISR);
 378:Generated_Source\PSoC5/USBFS_1.c ****     #endif /* (USBFS_1_EP6_ISR_ACTIVE) */
 379:Generated_Source\PSoC5/USBFS_1.c **** 
 380:Generated_Source\PSoC5/USBFS_1.c ****      /* Set Data Endpoint 7 Interrupt. */
 381:Generated_Source\PSoC5/USBFS_1.c ****     #if (USBFS_1_EP7_ISR_ACTIVE)
 382:Generated_Source\PSoC5/USBFS_1.c ****         CyIntSetPriority     (USBFS_1_EP_7_VECT_NUM,  USBFS_1_EP_7_PRIOR);
 383:Generated_Source\PSoC5/USBFS_1.c ****         (void) CyIntSetVector(USBFS_1_EP_7_VECT_NUM, &USBFS_1_EP_7_ISR);
 384:Generated_Source\PSoC5/USBFS_1.c ****     #endif /* (USBFS_1_EP7_ISR_ACTIVE) */
 385:Generated_Source\PSoC5/USBFS_1.c **** 
 386:Generated_Source\PSoC5/USBFS_1.c ****     /* Set Data Endpoint 8 Interrupt. */
 387:Generated_Source\PSoC5/USBFS_1.c ****     #if (USBFS_1_EP8_ISR_ACTIVE)
 388:Generated_Source\PSoC5/USBFS_1.c ****         CyIntSetPriority     (USBFS_1_EP_8_VECT_NUM,  USBFS_1_EP_8_PRIOR);
 389:Generated_Source\PSoC5/USBFS_1.c ****         (void) CyIntSetVector(USBFS_1_EP_8_VECT_NUM, &USBFS_1_EP_8_ISR);
 390:Generated_Source\PSoC5/USBFS_1.c ****     #endif /* (USBFS_1_EP8_ISR_ACTIVE) */
 391:Generated_Source\PSoC5/USBFS_1.c **** 
 392:Generated_Source\PSoC5/USBFS_1.c ****     /* Set ARB Interrupt. */
 393:Generated_Source\PSoC5/USBFS_1.c ****     #if (USBFS_1_EP_MANAGEMENT_DMA && USBFS_1_ARB_ISR_ACTIVE)
 394:Generated_Source\PSoC5/USBFS_1.c ****         CyIntSetPriority     (USBFS_1_ARB_VECT_NUM,  USBFS_1_ARB_PRIOR);
 395:Generated_Source\PSoC5/USBFS_1.c ****         (void) CyIntSetVector(USBFS_1_ARB_VECT_NUM, &USBFS_1_ARB_ISR);
 396:Generated_Source\PSoC5/USBFS_1.c ****     #endif /* (USBFS_1_EP_MANAGEMENT_DMA && USBFS_1_ARB_ISR_ACTIVE) */
 397:Generated_Source\PSoC5/USBFS_1.c **** #endif /* (CY_PSOC4) */
 398:Generated_Source\PSoC5/USBFS_1.c **** 
 399:Generated_Source\PSoC5/USBFS_1.c ****     /* Common: Configure GPIO interrupt for wakeup. */
 400:Generated_Source\PSoC5/USBFS_1.c **** #if (USBFS_1_DP_ISR_ACTIVE)
 401:Generated_Source\PSoC5/USBFS_1.c ****     CyIntSetPriority     (USBFS_1_DP_INTC_VECT_NUM,  USBFS_1_DP_INTC_PRIORITY);
 157              		.loc 1 401 0
 158 00c8 0721     		movs	r1, #7
 159 00ca 0C20     		movs	r0, #12
 160 00cc FFF7FEFF 		bl	CyIntSetPriority
 161              	.LVL13:
 402:Generated_Source\PSoC5/USBFS_1.c ****     (void) CyIntSetVector(USBFS_1_DP_INTC_VECT_NUM, &USBFS_1_DP_ISR);
 162              		.loc 1 402 0
 163 00d0 0B49     		ldr	r1, .L3+36
 164 00d2 0C20     		movs	r0, #12
 165 00d4 FFF7FEFF 		bl	CyIntSetVector
 166              	.LVL14:
 167 00d8 F8BD     		pop	{r3, r4, r5, r6, r7, pc}
 168              	.LVL15:
ARM GAS  C:\Users\bchir\AppData\Local\Temp\ccbc5zmo.s 			page 11


 169              	.L4:
 170 00da 00BF     		.align	2
 171              	.L3:
 172 00dc A5430040 		.word	1073759141
 173 00e0 9D600040 		.word	1073766557
 174 00e4 94430040 		.word	1073759124
 175 00e8 12600040 		.word	1073766418
 176 00ec F8510040 		.word	1073762808
 177 00f0 84600040 		.word	1073766532
 178 00f4 00000000 		.word	USBFS_1_BUS_RESET_ISR
 179 00f8 00000000 		.word	USBFS_1_EP_0_ISR
 180 00fc 00000000 		.word	USBFS_1_EP_1_ISR
 181 0100 00000000 		.word	USBFS_1_DP_ISR
 182              		.cfi_endproc
 183              	.LFE1:
 184              		.size	USBFS_1_Init, .-USBFS_1_Init
 185              		.section	.text.USBFS_1_InitComponent,"ax",%progbits
 186              		.align	2
 187              		.global	USBFS_1_InitComponent
 188              		.thumb
 189              		.thumb_func
 190              		.type	USBFS_1_InitComponent, %function
 191              	USBFS_1_InitComponent:
 192              	.LFB2:
 403:Generated_Source\PSoC5/USBFS_1.c **** #endif /* (USBFS_1_DP_ISR_ACTIVE) */
 404:Generated_Source\PSoC5/USBFS_1.c **** 
 405:Generated_Source\PSoC5/USBFS_1.c **** #if (USBFS_1_EP_MANAGEMENT_DMA && CY_PSOC4)
 406:Generated_Source\PSoC5/USBFS_1.c ****     /* Initialize DMA channels. */
 407:Generated_Source\PSoC5/USBFS_1.c ****     USBFS_1_InitEpDma();
 408:Generated_Source\PSoC5/USBFS_1.c **** #endif /* (USBFS_1_EP_MANAGEMENT_DMA && CY_PSOC4) */
 409:Generated_Source\PSoC5/USBFS_1.c **** }
 410:Generated_Source\PSoC5/USBFS_1.c **** 
 411:Generated_Source\PSoC5/USBFS_1.c **** 
 412:Generated_Source\PSoC5/USBFS_1.c **** /*******************************************************************************
 413:Generated_Source\PSoC5/USBFS_1.c **** * Function Name: USBFS_1_InitComponent
 414:Generated_Source\PSoC5/USBFS_1.c **** ****************************************************************************//**
 415:Generated_Source\PSoC5/USBFS_1.c **** *
 416:Generated_Source\PSoC5/USBFS_1.c **** *   This function initializes the component’s global variables and initiates
 417:Generated_Source\PSoC5/USBFS_1.c **** *   communication with the host by pull-up D+ line.
 418:Generated_Source\PSoC5/USBFS_1.c **** *
 419:Generated_Source\PSoC5/USBFS_1.c **** * \param device:
 420:Generated_Source\PSoC5/USBFS_1.c **** *   Contains the device number of the desired device descriptor. The device
 421:Generated_Source\PSoC5/USBFS_1.c **** *   number can be found in the Device Descriptor Tab of "Configure" dialog,
 422:Generated_Source\PSoC5/USBFS_1.c **** *   under the settings of desired Device Descriptor, in the *Device Number*
 423:Generated_Source\PSoC5/USBFS_1.c **** *   field.
 424:Generated_Source\PSoC5/USBFS_1.c **** *  \param mode:
 425:Generated_Source\PSoC5/USBFS_1.c **** *   The operating voltage. This determines whether the voltage regulator
 426:Generated_Source\PSoC5/USBFS_1.c **** *   is enabled for 5V operation or if pass through mode is used for 3.3V
 427:Generated_Source\PSoC5/USBFS_1.c **** *   operation. Symbolic names and their associated values are given in the
 428:Generated_Source\PSoC5/USBFS_1.c **** *   following list.
 429:Generated_Source\PSoC5/USBFS_1.c **** *
 430:Generated_Source\PSoC5/USBFS_1.c **** *       *USBFS_1_3V_OPERATION* - Disable voltage regulator and pass-
 431:Generated_Source\PSoC5/USBFS_1.c **** *                                      through Vcc for pull-up
 432:Generated_Source\PSoC5/USBFS_1.c **** *
 433:Generated_Source\PSoC5/USBFS_1.c **** *       *USBFS_1_5V_OPERATION* - Enable voltage regulator and use
 434:Generated_Source\PSoC5/USBFS_1.c **** *                                      regulator for pull-up
 435:Generated_Source\PSoC5/USBFS_1.c **** *
ARM GAS  C:\Users\bchir\AppData\Local\Temp\ccbc5zmo.s 			page 12


 436:Generated_Source\PSoC5/USBFS_1.c **** *       *USBFS_1_DWR_POWER_OPERATION* - Enable or disable the voltage
 437:Generated_Source\PSoC5/USBFS_1.c **** *                                      regulator depending on the power supply
 438:Generated_Source\PSoC5/USBFS_1.c **** *                                      voltage configuration in the DWR tab.
 439:Generated_Source\PSoC5/USBFS_1.c **** *                                      For PSoC 3/5LP devices, the VDDD supply
 440:Generated_Source\PSoC5/USBFS_1.c **** *                                      voltage is considered and for PSoC 4A-L,
 441:Generated_Source\PSoC5/USBFS_1.c **** *                                      the VBUS supply voltage is considered.
 442:Generated_Source\PSoC5/USBFS_1.c **** *
 443:Generated_Source\PSoC5/USBFS_1.c **** * \globalvars
 444:Generated_Source\PSoC5/USBFS_1.c **** *   \ref USBFS_1_device
 445:Generated_Source\PSoC5/USBFS_1.c **** *   \ref USBFS_1_transferState
 446:Generated_Source\PSoC5/USBFS_1.c **** *   \ref USBFS_1_configuration
 447:Generated_Source\PSoC5/USBFS_1.c **** *   \ref USBFS_1_deviceStatus
 448:Generated_Source\PSoC5/USBFS_1.c **** *
 449:Generated_Source\PSoC5/USBFS_1.c **** *   \ref USBFS_1_deviceAddress - Contains the current device address. This
 450:Generated_Source\PSoC5/USBFS_1.c **** *       variable is initialized to zero in this API. The Host starts to communicate
 451:Generated_Source\PSoC5/USBFS_1.c **** *      to the device with address 0 and then sets it to a whatever value using a
 452:Generated_Source\PSoC5/USBFS_1.c **** *      SET_ADDRESS request.
 453:Generated_Source\PSoC5/USBFS_1.c **** *
 454:Generated_Source\PSoC5/USBFS_1.c **** *   \ref USBFS_1_lastPacketSize - Initialized to 0;
 455:Generated_Source\PSoC5/USBFS_1.c **** *
 456:Generated_Source\PSoC5/USBFS_1.c **** * \reentrant
 457:Generated_Source\PSoC5/USBFS_1.c **** *  No.
 458:Generated_Source\PSoC5/USBFS_1.c **** *
 459:Generated_Source\PSoC5/USBFS_1.c **** *******************************************************************************/
 460:Generated_Source\PSoC5/USBFS_1.c **** void USBFS_1_InitComponent(uint8 device, uint8 mode) 
 461:Generated_Source\PSoC5/USBFS_1.c **** {
 193              		.loc 1 461 0
 194              		.cfi_startproc
 195              		@ args = 0, pretend = 0, frame = 0
 196              		@ frame_needed = 0, uses_anonymous_args = 0
 197              	.LVL16:
 198 0000 08B5     		push	{r3, lr}
 199              		.cfi_def_cfa_offset 8
 200              		.cfi_offset 3, -8
 201              		.cfi_offset 14, -4
 462:Generated_Source\PSoC5/USBFS_1.c ****     /* Initialize _hidProtocol variable to comply with
 463:Generated_Source\PSoC5/USBFS_1.c ****     *  HID 7.2.6 Set_Protocol Request:
 464:Generated_Source\PSoC5/USBFS_1.c ****     *  "When initialized, all devices default to report protocol."
 465:Generated_Source\PSoC5/USBFS_1.c ****     */
 466:Generated_Source\PSoC5/USBFS_1.c **** #if defined(USBFS_1_ENABLE_HID_CLASS)
 467:Generated_Source\PSoC5/USBFS_1.c ****     uint8 i;
 468:Generated_Source\PSoC5/USBFS_1.c **** 
 469:Generated_Source\PSoC5/USBFS_1.c ****     for (i = 0u; i < USBFS_1_MAX_INTERFACES_NUMBER; i++)
 470:Generated_Source\PSoC5/USBFS_1.c ****     {
 471:Generated_Source\PSoC5/USBFS_1.c ****         USBFS_1_hidProtocol[i] = USBFS_1_PROTOCOL_REPORT;
 472:Generated_Source\PSoC5/USBFS_1.c ****     }
 473:Generated_Source\PSoC5/USBFS_1.c **** #endif /* USBFS_1_ENABLE_HID_CLASS */
 474:Generated_Source\PSoC5/USBFS_1.c **** 
 475:Generated_Source\PSoC5/USBFS_1.c ****     /* Store device number to access descriptor. */
 476:Generated_Source\PSoC5/USBFS_1.c ****     USBFS_1_device = device;
 202              		.loc 1 476 0
 203 0002 1E4B     		ldr	r3, .L12
 204 0004 1870     		strb	r0, [r3]
 477:Generated_Source\PSoC5/USBFS_1.c **** 
 478:Generated_Source\PSoC5/USBFS_1.c ****     /* Reset component internal variables. */
 479:Generated_Source\PSoC5/USBFS_1.c ****     USBFS_1_transferState   = USBFS_1_TRANS_STATE_IDLE;
 205              		.loc 1 479 0
ARM GAS  C:\Users\bchir\AppData\Local\Temp\ccbc5zmo.s 			page 13


 206 0006 0023     		movs	r3, #0
 207 0008 1D4A     		ldr	r2, .L12+4
 208 000a 1370     		strb	r3, [r2]
 480:Generated_Source\PSoC5/USBFS_1.c ****     USBFS_1_configurationChanged = 0u;
 209              		.loc 1 480 0
 210 000c 1D4A     		ldr	r2, .L12+8
 211 000e 1370     		strb	r3, [r2]
 481:Generated_Source\PSoC5/USBFS_1.c ****     USBFS_1_configuration   = 0u;
 212              		.loc 1 481 0
 213 0010 1D4A     		ldr	r2, .L12+12
 214 0012 1370     		strb	r3, [r2]
 482:Generated_Source\PSoC5/USBFS_1.c ****     USBFS_1_interfaceNumber = 0u;
 215              		.loc 1 482 0
 216 0014 1D4A     		ldr	r2, .L12+16
 217 0016 1370     		strb	r3, [r2]
 483:Generated_Source\PSoC5/USBFS_1.c ****     USBFS_1_deviceAddress   = 0u;
 218              		.loc 1 483 0
 219 0018 1D4A     		ldr	r2, .L12+20
 220 001a 1370     		strb	r3, [r2]
 484:Generated_Source\PSoC5/USBFS_1.c ****     USBFS_1_deviceStatus    = 0u;
 221              		.loc 1 484 0
 222 001c 1D4A     		ldr	r2, .L12+24
 223 001e 1370     		strb	r3, [r2]
 485:Generated_Source\PSoC5/USBFS_1.c ****     USBFS_1_lastPacketSize  = 0u;
 224              		.loc 1 485 0
 225 0020 1D4A     		ldr	r2, .L12+28
 226 0022 1370     		strb	r3, [r2]
 486:Generated_Source\PSoC5/USBFS_1.c **** 
 487:Generated_Source\PSoC5/USBFS_1.c ****     /* Enable component interrupts. */
 488:Generated_Source\PSoC5/USBFS_1.c **** #if (CY_PSOC4)
 489:Generated_Source\PSoC5/USBFS_1.c ****     CyIntEnable(USBFS_1_INTR_HI_VECT_NUM);
 490:Generated_Source\PSoC5/USBFS_1.c ****     CyIntEnable(USBFS_1_INTR_MED_VECT_NUM);
 491:Generated_Source\PSoC5/USBFS_1.c ****     CyIntEnable(USBFS_1_INTR_LO_VECT_NUM);
 492:Generated_Source\PSoC5/USBFS_1.c **** #else
 493:Generated_Source\PSoC5/USBFS_1.c ****     CyIntEnable(USBFS_1_BUS_RESET_VECT_NUM);
 227              		.loc 1 493 0
 228 0024 1D4B     		ldr	r3, .L12+32
 229 0026 4FF40002 		mov	r2, #8388608
 230 002a 1A60     		str	r2, [r3]
 494:Generated_Source\PSoC5/USBFS_1.c ****     CyIntEnable(USBFS_1_EP_0_VECT_NUM);
 231              		.loc 1 494 0
 232 002c 4FF08072 		mov	r2, #16777216
 233 0030 1A60     		str	r2, [r3]
 495:Generated_Source\PSoC5/USBFS_1.c **** 
 496:Generated_Source\PSoC5/USBFS_1.c ****     #if (USBFS_1_SOF_ISR_ACTIVE)
 497:Generated_Source\PSoC5/USBFS_1.c ****         CyIntEnable(USBFS_1_SOF_VECT_NUM);
 498:Generated_Source\PSoC5/USBFS_1.c ****     #endif /* (USBFS_1_SOF_ISR_ACTIVE) */
 499:Generated_Source\PSoC5/USBFS_1.c **** 
 500:Generated_Source\PSoC5/USBFS_1.c ****     #if (USBFS_1_EP1_ISR_ACTIVE)
 501:Generated_Source\PSoC5/USBFS_1.c ****         CyIntEnable(USBFS_1_EP_1_VECT_NUM);
 234              		.loc 1 501 0
 235 0032 0222     		movs	r2, #2
 236 0034 1A60     		str	r2, [r3]
 502:Generated_Source\PSoC5/USBFS_1.c ****     #endif /* (USBFS_1_EP1_ISR_ACTIVE) */
 503:Generated_Source\PSoC5/USBFS_1.c **** 
 504:Generated_Source\PSoC5/USBFS_1.c ****     #if (USBFS_1_EP2_ISR_ACTIVE)
 505:Generated_Source\PSoC5/USBFS_1.c ****         CyIntEnable(USBFS_1_EP_2_VECT_NUM);
ARM GAS  C:\Users\bchir\AppData\Local\Temp\ccbc5zmo.s 			page 14


 506:Generated_Source\PSoC5/USBFS_1.c ****     #endif /* (USBFS_1_EP5_ISR_ACTIVE) */
 507:Generated_Source\PSoC5/USBFS_1.c **** 
 508:Generated_Source\PSoC5/USBFS_1.c ****     #if (USBFS_1_EP3_ISR_ACTIVE)
 509:Generated_Source\PSoC5/USBFS_1.c ****         CyIntEnable(USBFS_1_EP_3_VECT_NUM);
 510:Generated_Source\PSoC5/USBFS_1.c ****     #endif /* (USBFS_1_EP5_ISR_ACTIVE) */
 511:Generated_Source\PSoC5/USBFS_1.c **** 
 512:Generated_Source\PSoC5/USBFS_1.c ****     #if (USBFS_1_EP4_ISR_ACTIVE)
 513:Generated_Source\PSoC5/USBFS_1.c ****         CyIntEnable(USBFS_1_EP_4_VECT_NUM);
 514:Generated_Source\PSoC5/USBFS_1.c ****     #endif /* (USBFS_1_EP5_ISR_ACTIVE) */
 515:Generated_Source\PSoC5/USBFS_1.c **** 
 516:Generated_Source\PSoC5/USBFS_1.c ****     #if (USBFS_1_EP5_ISR_ACTIVE)
 517:Generated_Source\PSoC5/USBFS_1.c ****         CyIntEnable(USBFS_1_EP_5_VECT_NUM);
 518:Generated_Source\PSoC5/USBFS_1.c ****     #endif /* (USBFS_1_EP5_ISR_ACTIVE) */
 519:Generated_Source\PSoC5/USBFS_1.c **** 
 520:Generated_Source\PSoC5/USBFS_1.c ****     #if (USBFS_1_EP6_ISR_ACTIVE)
 521:Generated_Source\PSoC5/USBFS_1.c ****         CyIntEnable(USBFS_1_EP_6_VECT_NUM);
 522:Generated_Source\PSoC5/USBFS_1.c ****     #endif /* USBFS_1_EP6_ISR_REMOVE */
 523:Generated_Source\PSoC5/USBFS_1.c **** 
 524:Generated_Source\PSoC5/USBFS_1.c ****     #if (USBFS_1_EP7_ISR_ACTIVE)
 525:Generated_Source\PSoC5/USBFS_1.c ****         CyIntEnable(USBFS_1_EP_7_VECT_NUM);
 526:Generated_Source\PSoC5/USBFS_1.c ****     #endif /* (USBFS_1_EP7_ISR_ACTIVE) */
 527:Generated_Source\PSoC5/USBFS_1.c **** 
 528:Generated_Source\PSoC5/USBFS_1.c ****     #if (USBFS_1_EP8_ISR_ACTIVE)
 529:Generated_Source\PSoC5/USBFS_1.c ****         CyIntEnable(USBFS_1_EP_8_VECT_NUM);
 530:Generated_Source\PSoC5/USBFS_1.c ****     #endif /* (USBFS_1_EP8_ISR_ACTIVE) */
 531:Generated_Source\PSoC5/USBFS_1.c **** #endif /* (CY_PSOC4) */
 532:Generated_Source\PSoC5/USBFS_1.c **** 
 533:Generated_Source\PSoC5/USBFS_1.c **** #if (USBFS_1_EP_MANAGEMENT_DMA && USBFS_1_ARB_ISR_ACTIVE)
 534:Generated_Source\PSoC5/USBFS_1.c ****     /* Enable ARB EP interrupt sources. */
 535:Generated_Source\PSoC5/USBFS_1.c ****     USBFS_1_ARB_INT_EN_REG = USBFS_1_DEFAULT_ARB_INT_EN;
 536:Generated_Source\PSoC5/USBFS_1.c **** 
 537:Generated_Source\PSoC5/USBFS_1.c ****     #if (CY_PSOC3 || CY_PSOC5)
 538:Generated_Source\PSoC5/USBFS_1.c ****         CyIntEnable(USBFS_1_ARB_VECT_NUM);
 539:Generated_Source\PSoC5/USBFS_1.c ****     #endif /* (CY_PSOC3 || CY_PSOC5) */
 540:Generated_Source\PSoC5/USBFS_1.c **** #endif   /* (USBFS_1_EP_MANAGEMENT_DMA && USBFS_1_ARB_ISR_ACTIVE) */
 541:Generated_Source\PSoC5/USBFS_1.c **** 
 542:Generated_Source\PSoC5/USBFS_1.c **** /* Arbiter configuration for DMA transfers. */
 543:Generated_Source\PSoC5/USBFS_1.c **** #if (USBFS_1_EP_MANAGEMENT_DMA)
 544:Generated_Source\PSoC5/USBFS_1.c ****     /* Configure Arbiter for Manual or Auto DMA operation and clear configuration completion. */
 545:Generated_Source\PSoC5/USBFS_1.c ****     USBFS_1_ARB_CFG_REG = USBFS_1_DEFAULT_ARB_CFG;
 546:Generated_Source\PSoC5/USBFS_1.c **** 
 547:Generated_Source\PSoC5/USBFS_1.c ****     #if (CY_PSOC4)
 548:Generated_Source\PSoC5/USBFS_1.c ****         /* Enable DMA operation. */
 549:Generated_Source\PSoC5/USBFS_1.c ****         CyDmaEnable();
 550:Generated_Source\PSoC5/USBFS_1.c **** 
 551:Generated_Source\PSoC5/USBFS_1.c ****         #if (USBFS_1_EP_MANAGEMENT_DMA_AUTO)
 552:Generated_Source\PSoC5/USBFS_1.c ****             /* Change DMA priority to be highest. */
 553:Generated_Source\PSoC5/USBFS_1.c ****              CyIntSetPriority(CYDMA_INTR_NUMBER, USBFS_1_DMA_AUTO_INTR_PRIO);
 554:Generated_Source\PSoC5/USBFS_1.c ****         #endif /* (USBFS_1_EP_MANAGEMENT_DMA_AUTO) */
 555:Generated_Source\PSoC5/USBFS_1.c ****     #endif /* (CY_PSOC4) */
 556:Generated_Source\PSoC5/USBFS_1.c **** 
 557:Generated_Source\PSoC5/USBFS_1.c ****     #if (USBFS_1_EP_MANAGEMENT_DMA_AUTO)
 558:Generated_Source\PSoC5/USBFS_1.c ****         #if (CY_PSOC4)
 559:Generated_Source\PSoC5/USBFS_1.c ****             /* Enable DMA interrupt to handle DMA management. */
 560:Generated_Source\PSoC5/USBFS_1.c ****             CyIntEnable(CYDMA_INTR_NUMBER);
 561:Generated_Source\PSoC5/USBFS_1.c ****         #else
 562:Generated_Source\PSoC5/USBFS_1.c ****             #if (USBFS_1_EP_DMA_AUTO_OPT == 0u)
ARM GAS  C:\Users\bchir\AppData\Local\Temp\ccbc5zmo.s 			page 15


 563:Generated_Source\PSoC5/USBFS_1.c ****                 /* Initialize interrupts which handle verification of successful DMA transaction. *
 564:Generated_Source\PSoC5/USBFS_1.c ****                 USBFS_1_EP_DMA_Done_isr_StartEx(&USBFS_1_EP_DMA_DONE_ISR);
 565:Generated_Source\PSoC5/USBFS_1.c ****                 USBFS_1_EP17_DMA_Done_SR_InterruptEnable();
 566:Generated_Source\PSoC5/USBFS_1.c ****                 USBFS_1_EP8_DMA_Done_SR_InterruptEnable();
 567:Generated_Source\PSoC5/USBFS_1.c ****             #endif /* (USBFS_1_EP_DMA_AUTO_OPT == 0u) */
 568:Generated_Source\PSoC5/USBFS_1.c ****         #endif /* (CY_PSOC4) */
 569:Generated_Source\PSoC5/USBFS_1.c ****     #endif /* (USBFS_1_EP_MANAGEMENT_DMA_AUTO) */
 570:Generated_Source\PSoC5/USBFS_1.c **** #endif /* (USBFS_1_EP_MANAGEMENT_DMA) */
 571:Generated_Source\PSoC5/USBFS_1.c **** 
 572:Generated_Source\PSoC5/USBFS_1.c ****     /* Enable USB regulator depends on operation voltage. IMO Locking is enabled in Init(). */
 573:Generated_Source\PSoC5/USBFS_1.c ****     switch(mode)
 237              		.loc 1 573 0
 238 0036 11B1     		cbz	r1, .L7
 239 0038 0129     		cmp	r1, #1
 240 003a 06D0     		beq	.L8
 241 003c 0BE0     		b	.L10
 242              	.L7:
 574:Generated_Source\PSoC5/USBFS_1.c ****     {
 575:Generated_Source\PSoC5/USBFS_1.c ****     case USBFS_1_3V_OPERATION:
 576:Generated_Source\PSoC5/USBFS_1.c ****         /* Disable regulator for 3V operation. */
 577:Generated_Source\PSoC5/USBFS_1.c ****         USBFS_1_CR1_REG &= (uint8) ~USBFS_1_CR1_REG_ENABLE;
 243              		.loc 1 577 0
 244 003e 184A     		ldr	r2, .L12+36
 245 0040 1378     		ldrb	r3, [r2]	@ zero_extendqisi2
 246 0042 03F0FE03 		and	r3, r3, #254
 247 0046 1370     		strb	r3, [r2]
 578:Generated_Source\PSoC5/USBFS_1.c ****         break;
 248              		.loc 1 578 0
 249 0048 0AE0     		b	.L9
 250              	.L8:
 579:Generated_Source\PSoC5/USBFS_1.c **** 
 580:Generated_Source\PSoC5/USBFS_1.c ****     case USBFS_1_5V_OPERATION:
 581:Generated_Source\PSoC5/USBFS_1.c ****         /* Enable regulator for 5V operation. */
 582:Generated_Source\PSoC5/USBFS_1.c ****         USBFS_1_CR1_REG |= (uint8)  USBFS_1_CR1_REG_ENABLE;
 251              		.loc 1 582 0
 252 004a 154A     		ldr	r2, .L12+36
 253 004c 1378     		ldrb	r3, [r2]	@ zero_extendqisi2
 254 004e 43F00103 		orr	r3, r3, #1
 255 0052 1370     		strb	r3, [r2]
 583:Generated_Source\PSoC5/USBFS_1.c ****         break;
 256              		.loc 1 583 0
 257 0054 04E0     		b	.L9
 258              	.L10:
 584:Generated_Source\PSoC5/USBFS_1.c **** 
 585:Generated_Source\PSoC5/USBFS_1.c ****     default: /* Check DWR settings of USB power supply. */
 586:Generated_Source\PSoC5/USBFS_1.c ****     #if (USBFS_1_VDDD_MV < USBFS_1_3500MV)
 587:Generated_Source\PSoC5/USBFS_1.c ****         /* Disable regulator for 3V operation. */
 588:Generated_Source\PSoC5/USBFS_1.c ****         USBFS_1_CR1_REG &= (uint8) ~USBFS_1_CR1_REG_ENABLE;
 589:Generated_Source\PSoC5/USBFS_1.c ****     #else
 590:Generated_Source\PSoC5/USBFS_1.c ****         /* Enable regulator for 5V operation. */
 591:Generated_Source\PSoC5/USBFS_1.c ****         USBFS_1_CR1_REG |= (uint8)  USBFS_1_CR1_REG_ENABLE;
 259              		.loc 1 591 0
 260 0056 124A     		ldr	r2, .L12+36
 261 0058 1378     		ldrb	r3, [r2]	@ zero_extendqisi2
 262 005a 43F00103 		orr	r3, r3, #1
 263 005e 1370     		strb	r3, [r2]
 264              	.L9:
ARM GAS  C:\Users\bchir\AppData\Local\Temp\ccbc5zmo.s 			page 16


 592:Generated_Source\PSoC5/USBFS_1.c ****     #endif /* (USBFS_1_VDDD_MV < USBFS_1_3500MV) */
 593:Generated_Source\PSoC5/USBFS_1.c ****         break;
 594:Generated_Source\PSoC5/USBFS_1.c ****     }
 595:Generated_Source\PSoC5/USBFS_1.c **** 
 596:Generated_Source\PSoC5/USBFS_1.c **** #if (CY_PSOC4)
 597:Generated_Source\PSoC5/USBFS_1.c ****     /* Clear bus activity. */
 598:Generated_Source\PSoC5/USBFS_1.c ****     USBFS_1_CR1_REG &= (uint32) ~USBFS_1_CR1_BUS_ACTIVITY;
 599:Generated_Source\PSoC5/USBFS_1.c **** 
 600:Generated_Source\PSoC5/USBFS_1.c ****     /* Clear EP0 count register. */
 601:Generated_Source\PSoC5/USBFS_1.c ****     USBFS_1_EP0_CNT_REG = USBFS_1_CLEAR_REG;
 602:Generated_Source\PSoC5/USBFS_1.c **** 
 603:Generated_Source\PSoC5/USBFS_1.c ****     /* Set EP0.CR: ACK Setup, NAK IN/OUT. */
 604:Generated_Source\PSoC5/USBFS_1.c ****     USBFS_1_EP0_CR_REG = USBFS_1_MODE_NAK_IN_OUT;
 605:Generated_Source\PSoC5/USBFS_1.c **** 
 606:Generated_Source\PSoC5/USBFS_1.c ****     #if (USBFS_1_LPM_ACTIVE)
 607:Generated_Source\PSoC5/USBFS_1.c ****         if (NULL != USBFS_1_GetBOSPtr())
 608:Generated_Source\PSoC5/USBFS_1.c ****         {
 609:Generated_Source\PSoC5/USBFS_1.c ****             /* Enable LPM and acknowledge LPM packets for active device.
 610:Generated_Source\PSoC5/USBFS_1.c ****             * Reset NYET_EN and SUB_RESP bits in the LPM_CTRL register.
 611:Generated_Source\PSoC5/USBFS_1.c ****             */
 612:Generated_Source\PSoC5/USBFS_1.c ****             USBFS_1_LPM_CTRL_REG = (USBFS_1_LPM_CTRL_LPM_EN | \
 613:Generated_Source\PSoC5/USBFS_1.c ****                                              USBFS_1_LPM_CTRL_LPM_ACK_RESP);
 614:Generated_Source\PSoC5/USBFS_1.c ****         }
 615:Generated_Source\PSoC5/USBFS_1.c ****         else
 616:Generated_Source\PSoC5/USBFS_1.c ****         {
 617:Generated_Source\PSoC5/USBFS_1.c ****             /* Disable LPM for active device. */
 618:Generated_Source\PSoC5/USBFS_1.c ****             USBFS_1_LPM_CTRL_REG &= (uint32) ~USBFS_1_LPM_CTRL_LPM_EN;
 619:Generated_Source\PSoC5/USBFS_1.c ****         }
 620:Generated_Source\PSoC5/USBFS_1.c ****     #endif /* (USBFS_1_LPM_ACTIVE) */
 621:Generated_Source\PSoC5/USBFS_1.c **** 
 622:Generated_Source\PSoC5/USBFS_1.c ****     /* Enable device to responds to USB traffic with address 0. */
 623:Generated_Source\PSoC5/USBFS_1.c ****     USBFS_1_CR0_REG = USBFS_1_DEFUALT_CR0;
 624:Generated_Source\PSoC5/USBFS_1.c **** 
 625:Generated_Source\PSoC5/USBFS_1.c **** #else
 626:Generated_Source\PSoC5/USBFS_1.c ****     /* Set EP0.CR: ACK Setup, STALL IN/OUT. */
 627:Generated_Source\PSoC5/USBFS_1.c ****     USBFS_1_EP0_CR_REG = USBFS_1_MODE_STALL_IN_OUT;
 265              		.loc 1 627 0
 266 0060 0322     		movs	r2, #3
 267 0062 104B     		ldr	r3, .L12+40
 268 0064 1A70     		strb	r2, [r3]
 628:Generated_Source\PSoC5/USBFS_1.c **** 
 629:Generated_Source\PSoC5/USBFS_1.c ****     /* Enable device to respond to USB traffic with address 0. */
 630:Generated_Source\PSoC5/USBFS_1.c ****     USBFS_1_CR0_REG = USBFS_1_DEFUALT_CR0;
 269              		.loc 1 630 0
 270 0066 8022     		movs	r2, #128
 271 0068 203B     		subs	r3, r3, #32
 272 006a 1A70     		strb	r2, [r3]
 631:Generated_Source\PSoC5/USBFS_1.c ****     CyDelayCycles(USBFS_1_WAIT_CR0_REG_STABILITY);
 273              		.loc 1 631 0
 274 006c 0120     		movs	r0, #1
 275              	.LVL17:
 276 006e FFF7FEFF 		bl	CyDelayCycles
 277              	.LVL18:
 632:Generated_Source\PSoC5/USBFS_1.c **** #endif /* (CY_PSOC4) */
 633:Generated_Source\PSoC5/USBFS_1.c **** 
 634:Generated_Source\PSoC5/USBFS_1.c ****     /* Enable D+ pull-up and keep USB control on IO. */
 635:Generated_Source\PSoC5/USBFS_1.c ****     USBFS_1_USBIO_CR1_REG = USBFS_1_USBIO_CR1_USBPUEN;
ARM GAS  C:\Users\bchir\AppData\Local\Temp\ccbc5zmo.s 			page 17


 278              		.loc 1 635 0
 279 0072 0422     		movs	r2, #4
 280 0074 0C4B     		ldr	r3, .L12+44
 281 0076 1A70     		strb	r2, [r3]
 282 0078 08BD     		pop	{r3, pc}
 283              	.L13:
 284 007a 00BF     		.align	2
 285              	.L12:
 286 007c 00000000 		.word	USBFS_1_device
 287 0080 00000000 		.word	USBFS_1_transferState
 288 0084 00000000 		.word	USBFS_1_configurationChanged
 289 0088 00000000 		.word	USBFS_1_configuration
 290 008c 00000000 		.word	USBFS_1_interfaceNumber
 291 0090 00000000 		.word	USBFS_1_deviceAddress
 292 0094 00000000 		.word	USBFS_1_deviceStatus
 293 0098 00000000 		.word	USBFS_1_lastPacketSize
 294 009c 00E100E0 		.word	-536813312
 295 00a0 09600040 		.word	1073766409
 296 00a4 28600040 		.word	1073766440
 297 00a8 12600040 		.word	1073766418
 298              		.cfi_endproc
 299              	.LFE2:
 300              		.size	USBFS_1_InitComponent, .-USBFS_1_InitComponent
 301              		.section	.text.USBFS_1_Start,"ax",%progbits
 302              		.align	2
 303              		.global	USBFS_1_Start
 304              		.thumb
 305              		.thumb_func
 306              		.type	USBFS_1_Start, %function
 307              	USBFS_1_Start:
 308              	.LFB0:
 187:Generated_Source\PSoC5/USBFS_1.c ****     if (0u == USBFS_1_initVar)
 309              		.loc 1 187 0
 310              		.cfi_startproc
 311              		@ args = 0, pretend = 0, frame = 0
 312              		@ frame_needed = 0, uses_anonymous_args = 0
 313              	.LVL19:
 314 0000 38B5     		push	{r3, r4, r5, lr}
 315              		.cfi_def_cfa_offset 16
 316              		.cfi_offset 3, -16
 317              		.cfi_offset 4, -12
 318              		.cfi_offset 5, -8
 319              		.cfi_offset 14, -4
 320 0002 0446     		mov	r4, r0
 321 0004 0D46     		mov	r5, r1
 188:Generated_Source\PSoC5/USBFS_1.c ****     {
 322              		.loc 1 188 0
 323 0006 064B     		ldr	r3, .L17
 324 0008 1B78     		ldrb	r3, [r3]	@ zero_extendqisi2
 325 000a 23B9     		cbnz	r3, .L15
 190:Generated_Source\PSoC5/USBFS_1.c ****         USBFS_1_initVar = 1u;
 326              		.loc 1 190 0
 327 000c FFF7FEFF 		bl	USBFS_1_Init
 328              	.LVL20:
 191:Generated_Source\PSoC5/USBFS_1.c ****     }
 329              		.loc 1 191 0
 330 0010 0122     		movs	r2, #1
ARM GAS  C:\Users\bchir\AppData\Local\Temp\ccbc5zmo.s 			page 18


 331 0012 034B     		ldr	r3, .L17
 332 0014 1A70     		strb	r2, [r3]
 333              	.L15:
 194:Generated_Source\PSoC5/USBFS_1.c **** }
 334              		.loc 1 194 0
 335 0016 2946     		mov	r1, r5
 336 0018 2046     		mov	r0, r4
 337 001a FFF7FEFF 		bl	USBFS_1_InitComponent
 338              	.LVL21:
 339 001e 38BD     		pop	{r3, r4, r5, pc}
 340              	.L18:
 341              		.align	2
 342              	.L17:
 343 0020 00000000 		.word	.LANCHOR0
 344              		.cfi_endproc
 345              	.LFE0:
 346              		.size	USBFS_1_Start, .-USBFS_1_Start
 347              		.section	.text.USBFS_1_ReInitComponent,"ax",%progbits
 348              		.align	2
 349              		.global	USBFS_1_ReInitComponent
 350              		.thumb
 351              		.thumb_func
 352              		.type	USBFS_1_ReInitComponent, %function
 353              	USBFS_1_ReInitComponent:
 354              	.LFB3:
 636:Generated_Source\PSoC5/USBFS_1.c **** }
 637:Generated_Source\PSoC5/USBFS_1.c **** 
 638:Generated_Source\PSoC5/USBFS_1.c **** 
 639:Generated_Source\PSoC5/USBFS_1.c **** /*******************************************************************************
 640:Generated_Source\PSoC5/USBFS_1.c **** * Function Name: USBFS_1_ReInitComponent
 641:Generated_Source\PSoC5/USBFS_1.c **** ****************************************************************************//**
 642:Generated_Source\PSoC5/USBFS_1.c **** *
 643:Generated_Source\PSoC5/USBFS_1.c **** *  This function reinitialize the component configuration and is
 644:Generated_Source\PSoC5/USBFS_1.c **** *  intend to be called from the Reset interrupt.
 645:Generated_Source\PSoC5/USBFS_1.c **** *
 646:Generated_Source\PSoC5/USBFS_1.c **** * \globalvars
 647:Generated_Source\PSoC5/USBFS_1.c **** *   USBFS_1_device - Contains the device number of the desired Device
 648:Generated_Source\PSoC5/USBFS_1.c **** *        Descriptor. The device number can be found in the Device Descriptor tab
 649:Generated_Source\PSoC5/USBFS_1.c **** *       of the Configure dialog, under the settings of the desired Device Descriptor,
 650:Generated_Source\PSoC5/USBFS_1.c **** *       in the Device Number field.
 651:Generated_Source\PSoC5/USBFS_1.c **** *   USBFS_1_transferState - This variable is used by the communication
 652:Generated_Source\PSoC5/USBFS_1.c **** *       functions to handle the current transfer state. Initialized to
 653:Generated_Source\PSoC5/USBFS_1.c **** *       TRANS_STATE_IDLE in this API.
 654:Generated_Source\PSoC5/USBFS_1.c **** *   USBFS_1_configuration - Contains the current configuration number
 655:Generated_Source\PSoC5/USBFS_1.c **** *       set by the Host using a SET_CONFIGURATION request.
 656:Generated_Source\PSoC5/USBFS_1.c **** *       Initialized to zero in this API.
 657:Generated_Source\PSoC5/USBFS_1.c **** *   USBFS_1_deviceAddress - Contains the current device address. This
 658:Generated_Source\PSoC5/USBFS_1.c **** *       variable is initialized to zero in this API. The Host starts to communicate
 659:Generated_Source\PSoC5/USBFS_1.c **** *      to the device with address 0 and then sets it to a whatever value using
 660:Generated_Source\PSoC5/USBFS_1.c **** *      a SET_ADDRESS request.
 661:Generated_Source\PSoC5/USBFS_1.c **** *   USBFS_1_deviceStatus - Initialized to 0.
 662:Generated_Source\PSoC5/USBFS_1.c **** *       This is a two-bit variable which contains the power status in the first bit
 663:Generated_Source\PSoC5/USBFS_1.c **** *       (DEVICE_STATUS_BUS_POWERED or DEVICE_STATUS_SELF_POWERED) and the remote
 664:Generated_Source\PSoC5/USBFS_1.c **** *       wakeup status (DEVICE_STATUS_REMOTE_WAKEUP) in the second bit.
 665:Generated_Source\PSoC5/USBFS_1.c **** *   USBFS_1_lastPacketSize - Initialized to 0;
 666:Generated_Source\PSoC5/USBFS_1.c **** *
 667:Generated_Source\PSoC5/USBFS_1.c **** * \reentrant
ARM GAS  C:\Users\bchir\AppData\Local\Temp\ccbc5zmo.s 			page 19


 668:Generated_Source\PSoC5/USBFS_1.c **** *  No.
 669:Generated_Source\PSoC5/USBFS_1.c **** *
 670:Generated_Source\PSoC5/USBFS_1.c **** *******************************************************************************/
 671:Generated_Source\PSoC5/USBFS_1.c **** void USBFS_1_ReInitComponent(void) 
 672:Generated_Source\PSoC5/USBFS_1.c **** {
 355              		.loc 1 672 0
 356              		.cfi_startproc
 357              		@ args = 0, pretend = 0, frame = 0
 358              		@ frame_needed = 0, uses_anonymous_args = 0
 359              		@ link register save eliminated.
 673:Generated_Source\PSoC5/USBFS_1.c ****     /* Initialize _hidProtocol variable to comply with HID 7.2.6 Set_Protocol
 674:Generated_Source\PSoC5/USBFS_1.c ****     *  Request: "When initialized, all devices default to report protocol."
 675:Generated_Source\PSoC5/USBFS_1.c ****     */
 676:Generated_Source\PSoC5/USBFS_1.c **** #if defined(USBFS_1_ENABLE_HID_CLASS)
 677:Generated_Source\PSoC5/USBFS_1.c ****     uint8 i;
 678:Generated_Source\PSoC5/USBFS_1.c **** 
 679:Generated_Source\PSoC5/USBFS_1.c ****     for (i = 0u; i < USBFS_1_MAX_INTERFACES_NUMBER; i++)
 680:Generated_Source\PSoC5/USBFS_1.c ****     {
 681:Generated_Source\PSoC5/USBFS_1.c ****         USBFS_1_hidProtocol[i] = USBFS_1_PROTOCOL_REPORT;
 682:Generated_Source\PSoC5/USBFS_1.c ****     }
 683:Generated_Source\PSoC5/USBFS_1.c **** #endif /* USBFS_1_ENABLE_HID_CLASS */
 684:Generated_Source\PSoC5/USBFS_1.c **** 
 685:Generated_Source\PSoC5/USBFS_1.c ****     /* Reset component internal variables. */
 686:Generated_Source\PSoC5/USBFS_1.c ****     USBFS_1_transferState   = USBFS_1_TRANS_STATE_IDLE;
 360              		.loc 1 686 0
 361 0000 0023     		movs	r3, #0
 362 0002 0A4A     		ldr	r2, .L20
 363 0004 1370     		strb	r3, [r2]
 687:Generated_Source\PSoC5/USBFS_1.c ****     USBFS_1_configurationChanged = 0u;
 364              		.loc 1 687 0
 365 0006 0A4A     		ldr	r2, .L20+4
 366 0008 1370     		strb	r3, [r2]
 688:Generated_Source\PSoC5/USBFS_1.c ****     USBFS_1_configuration   = 0u;
 367              		.loc 1 688 0
 368 000a 0A4A     		ldr	r2, .L20+8
 369 000c 1370     		strb	r3, [r2]
 689:Generated_Source\PSoC5/USBFS_1.c ****     USBFS_1_interfaceNumber = 0u;
 370              		.loc 1 689 0
 371 000e 0A4A     		ldr	r2, .L20+12
 372 0010 1370     		strb	r3, [r2]
 690:Generated_Source\PSoC5/USBFS_1.c ****     USBFS_1_deviceAddress   = 0u;
 373              		.loc 1 690 0
 374 0012 0A4A     		ldr	r2, .L20+16
 375 0014 1370     		strb	r3, [r2]
 691:Generated_Source\PSoC5/USBFS_1.c ****     USBFS_1_deviceStatus    = 0u;
 376              		.loc 1 691 0
 377 0016 0A4A     		ldr	r2, .L20+20
 378 0018 1370     		strb	r3, [r2]
 692:Generated_Source\PSoC5/USBFS_1.c ****     USBFS_1_lastPacketSize  = 0u;
 379              		.loc 1 692 0
 380 001a 0A4A     		ldr	r2, .L20+24
 381 001c 1370     		strb	r3, [r2]
 693:Generated_Source\PSoC5/USBFS_1.c **** 
 694:Generated_Source\PSoC5/USBFS_1.c **** #if (CY_PSOC4)
 695:Generated_Source\PSoC5/USBFS_1.c ****     /* Set EP0.CR: ACK Setup, NAK IN/OUT. */
 696:Generated_Source\PSoC5/USBFS_1.c ****     USBFS_1_EP0_CR_REG = USBFS_1_MODE_NAK_IN_OUT;
 697:Generated_Source\PSoC5/USBFS_1.c **** #else
ARM GAS  C:\Users\bchir\AppData\Local\Temp\ccbc5zmo.s 			page 20


 698:Generated_Source\PSoC5/USBFS_1.c ****     /* Set EP0.CR: ACK Setup, STALL IN/OUT. */
 699:Generated_Source\PSoC5/USBFS_1.c ****     USBFS_1_EP0_CR_REG = USBFS_1_MODE_STALL_IN_OUT;
 382              		.loc 1 699 0
 383 001e 0322     		movs	r2, #3
 384 0020 094B     		ldr	r3, .L20+28
 385 0022 1A70     		strb	r2, [r3]
 700:Generated_Source\PSoC5/USBFS_1.c **** #endif /* (CY_PSOC4) */
 701:Generated_Source\PSoC5/USBFS_1.c **** 
 702:Generated_Source\PSoC5/USBFS_1.c ****     /* Enable device to respond to USB traffic with address 0. */
 703:Generated_Source\PSoC5/USBFS_1.c ****     USBFS_1_CR0_REG = USBFS_1_DEFUALT_CR0;
 386              		.loc 1 703 0
 387 0024 8022     		movs	r2, #128
 388 0026 203B     		subs	r3, r3, #32
 389 0028 1A70     		strb	r2, [r3]
 390 002a 7047     		bx	lr
 391              	.L21:
 392              		.align	2
 393              	.L20:
 394 002c 00000000 		.word	USBFS_1_transferState
 395 0030 00000000 		.word	USBFS_1_configurationChanged
 396 0034 00000000 		.word	USBFS_1_configuration
 397 0038 00000000 		.word	USBFS_1_interfaceNumber
 398 003c 00000000 		.word	USBFS_1_deviceAddress
 399 0040 00000000 		.word	USBFS_1_deviceStatus
 400 0044 00000000 		.word	USBFS_1_lastPacketSize
 401 0048 28600040 		.word	1073766440
 402              		.cfi_endproc
 403              	.LFE3:
 404              		.size	USBFS_1_ReInitComponent, .-USBFS_1_ReInitComponent
 405              		.section	.text.USBFS_1_Stop,"ax",%progbits
 406              		.align	2
 407              		.global	USBFS_1_Stop
 408              		.thumb
 409              		.thumb_func
 410              		.type	USBFS_1_Stop, %function
 411              	USBFS_1_Stop:
 412              	.LFB4:
 704:Generated_Source\PSoC5/USBFS_1.c **** }
 705:Generated_Source\PSoC5/USBFS_1.c **** 
 706:Generated_Source\PSoC5/USBFS_1.c **** 
 707:Generated_Source\PSoC5/USBFS_1.c **** /*******************************************************************************
 708:Generated_Source\PSoC5/USBFS_1.c **** * Function Name: USBFS_1_Stop
 709:Generated_Source\PSoC5/USBFS_1.c **** ****************************************************************************//**
 710:Generated_Source\PSoC5/USBFS_1.c **** *
 711:Generated_Source\PSoC5/USBFS_1.c **** *  This function shuts down the USB function including to release
 712:Generated_Source\PSoC5/USBFS_1.c **** *  the D+ pull-up and disabling the SIE.
 713:Generated_Source\PSoC5/USBFS_1.c **** *
 714:Generated_Source\PSoC5/USBFS_1.c **** * \globalvars
 715:Generated_Source\PSoC5/USBFS_1.c **** *   \ref USBFS_1_configuration
 716:Generated_Source\PSoC5/USBFS_1.c **** *
 717:Generated_Source\PSoC5/USBFS_1.c **** *   USBFS_1_deviceAddress - Contains the current device address. This
 718:Generated_Source\PSoC5/USBFS_1.c **** *       variable is initialized to zero in this API. The Host starts to communicate
 719:Generated_Source\PSoC5/USBFS_1.c **** *      to the device with address 0 and then sets it to a whatever value using
 720:Generated_Source\PSoC5/USBFS_1.c **** *      a SET_ADDRESS request.
 721:Generated_Source\PSoC5/USBFS_1.c **** *
 722:Generated_Source\PSoC5/USBFS_1.c **** *   \ref USBFS_1_deviceStatus
 723:Generated_Source\PSoC5/USBFS_1.c **** *
ARM GAS  C:\Users\bchir\AppData\Local\Temp\ccbc5zmo.s 			page 21


 724:Generated_Source\PSoC5/USBFS_1.c **** *   \ref USBFS_1_configurationChanged
 725:Generated_Source\PSoC5/USBFS_1.c **** *
 726:Generated_Source\PSoC5/USBFS_1.c **** *   USBFS_1_intiVar -  This variable is set to zero
 727:Generated_Source\PSoC5/USBFS_1.c **** *
 728:Generated_Source\PSoC5/USBFS_1.c **** *******************************************************************************/
 729:Generated_Source\PSoC5/USBFS_1.c **** void USBFS_1_Stop(void) 
 730:Generated_Source\PSoC5/USBFS_1.c **** {
 413              		.loc 1 730 0
 414              		.cfi_startproc
 415              		@ args = 0, pretend = 0, frame = 0
 416              		@ frame_needed = 0, uses_anonymous_args = 0
 417 0000 08B5     		push	{r3, lr}
 418              		.cfi_def_cfa_offset 8
 419              		.cfi_offset 3, -8
 420              		.cfi_offset 14, -4
 731:Generated_Source\PSoC5/USBFS_1.c ****     uint8 enableInterrupts;
 732:Generated_Source\PSoC5/USBFS_1.c **** 
 733:Generated_Source\PSoC5/USBFS_1.c **** #if (USBFS_1_EP_MANAGEMENT_DMA)
 734:Generated_Source\PSoC5/USBFS_1.c ****     /* Stop all DMA channels. */
 735:Generated_Source\PSoC5/USBFS_1.c ****     USBFS_1_Stop_DMA(USBFS_1_MAX_EP);
 736:Generated_Source\PSoC5/USBFS_1.c **** #endif /* (USBFS_1_EP_MANAGEMENT_DMA) */
 737:Generated_Source\PSoC5/USBFS_1.c **** 
 738:Generated_Source\PSoC5/USBFS_1.c ****     enableInterrupts = CyEnterCriticalSection();
 421              		.loc 1 738 0
 422 0002 FFF7FEFF 		bl	CyEnterCriticalSection
 423              	.LVL22:
 739:Generated_Source\PSoC5/USBFS_1.c **** 
 740:Generated_Source\PSoC5/USBFS_1.c ****     /* Disable USB IP to respond to USB traffic. */
 741:Generated_Source\PSoC5/USBFS_1.c ****     USBFS_1_CR0_REG &= (uint8) ~USBFS_1_CR0_ENABLE;
 424              		.loc 1 741 0
 425 0006 1F4A     		ldr	r2, .L24
 426 0008 1378     		ldrb	r3, [r2]	@ zero_extendqisi2
 427 000a 03F07F03 		and	r3, r3, #127
 428 000e 1370     		strb	r3, [r2]
 742:Generated_Source\PSoC5/USBFS_1.c **** 
 743:Generated_Source\PSoC5/USBFS_1.c ****     /* Disable D+ pull-up. */
 744:Generated_Source\PSoC5/USBFS_1.c ****     USBFS_1_USBIO_CR1_REG &= (uint8) ~ USBFS_1_USBIO_CR1_USBPUEN;
 429              		.loc 1 744 0
 430 0010 0A32     		adds	r2, r2, #10
 431 0012 1378     		ldrb	r3, [r2]	@ zero_extendqisi2
 432 0014 03F0FB03 		and	r3, r3, #251
 433 0018 1370     		strb	r3, [r2]
 745:Generated_Source\PSoC5/USBFS_1.c **** 
 746:Generated_Source\PSoC5/USBFS_1.c **** #if (CY_PSOC4)
 747:Generated_Source\PSoC5/USBFS_1.c ****     /* Disable USBFS block. */
 748:Generated_Source\PSoC5/USBFS_1.c ****     USBFS_1_POWER_CTRL_REG &= (uint32) ~USBFS_1_POWER_CTRL_ENABLE;
 749:Generated_Source\PSoC5/USBFS_1.c **** #else
 750:Generated_Source\PSoC5/USBFS_1.c ****     /* Clear power active and standby mode templates. */
 751:Generated_Source\PSoC5/USBFS_1.c ****     USBFS_1_PM_ACT_CFG_REG  &= (uint8) ~USBFS_1_PM_ACT_EN_FSUSB;
 434              		.loc 1 751 0
 435 001a A2F5E352 		sub	r2, r2, #7264
 436 001e 0D3A     		subs	r2, r2, #13
 437 0020 1378     		ldrb	r3, [r2]	@ zero_extendqisi2
 438 0022 03F0FE03 		and	r3, r3, #254
 439 0026 1370     		strb	r3, [r2]
 752:Generated_Source\PSoC5/USBFS_1.c ****     USBFS_1_PM_STBY_CFG_REG &= (uint8) ~USBFS_1_PM_STBY_EN_FSUSB;
 440              		.loc 1 752 0
ARM GAS  C:\Users\bchir\AppData\Local\Temp\ccbc5zmo.s 			page 22


 441 0028 1032     		adds	r2, r2, #16
 442 002a 1378     		ldrb	r3, [r2]	@ zero_extendqisi2
 443 002c 03F0FE03 		and	r3, r3, #254
 444 0030 1370     		strb	r3, [r2]
 753:Generated_Source\PSoC5/USBFS_1.c **** 
 754:Generated_Source\PSoC5/USBFS_1.c ****     /* Ensure single-ended disable bits are high (PRT15.INP_DIS[7:6])
 755:Generated_Source\PSoC5/USBFS_1.c ****      * (input receiver disabled). */
 756:Generated_Source\PSoC5/USBFS_1.c ****     USBFS_1_DM_INP_DIS_REG |= (uint8) USBFS_1_DM_MASK;
 445              		.loc 1 756 0
 446 0032 154B     		ldr	r3, .L24+4
 447 0034 1A78     		ldrb	r2, [r3]	@ zero_extendqisi2
 448 0036 42F08002 		orr	r2, r2, #128
 449 003a 1A70     		strb	r2, [r3]
 757:Generated_Source\PSoC5/USBFS_1.c ****     USBFS_1_DP_INP_DIS_REG |= (uint8) USBFS_1_DP_MASK;
 450              		.loc 1 757 0
 451 003c 1A78     		ldrb	r2, [r3]	@ zero_extendqisi2
 452 003e 42F04002 		orr	r2, r2, #64
 453 0042 1A70     		strb	r2, [r3]
 758:Generated_Source\PSoC5/USBFS_1.c **** 
 759:Generated_Source\PSoC5/USBFS_1.c **** #endif /* (CY_PSOC4) */
 760:Generated_Source\PSoC5/USBFS_1.c **** 
 761:Generated_Source\PSoC5/USBFS_1.c ****     CyExitCriticalSection(enableInterrupts);
 454              		.loc 1 761 0
 455 0044 FFF7FEFF 		bl	CyExitCriticalSection
 456              	.LVL23:
 762:Generated_Source\PSoC5/USBFS_1.c **** 
 763:Generated_Source\PSoC5/USBFS_1.c ****     /* Disable component interrupts. */
 764:Generated_Source\PSoC5/USBFS_1.c **** #if (CY_PSOC4)
 765:Generated_Source\PSoC5/USBFS_1.c ****     CyIntDisable(USBFS_1_INTR_HI_VECT_NUM);
 766:Generated_Source\PSoC5/USBFS_1.c ****     CyIntDisable(USBFS_1_INTR_LO_VECT_NUM);
 767:Generated_Source\PSoC5/USBFS_1.c ****     CyIntDisable(USBFS_1_INTR_MED_VECT_NUM);
 768:Generated_Source\PSoC5/USBFS_1.c **** #else
 769:Generated_Source\PSoC5/USBFS_1.c **** 
 770:Generated_Source\PSoC5/USBFS_1.c ****     CyIntDisable(USBFS_1_BUS_RESET_VECT_NUM);
 457              		.loc 1 770 0
 458 0048 104B     		ldr	r3, .L24+8
 459 004a 4FF40002 		mov	r2, #8388608
 460 004e 1A60     		str	r2, [r3]
 771:Generated_Source\PSoC5/USBFS_1.c ****     CyIntDisable(USBFS_1_EP_0_VECT_NUM);
 461              		.loc 1 771 0
 462 0050 4FF08072 		mov	r2, #16777216
 463 0054 1A60     		str	r2, [r3]
 772:Generated_Source\PSoC5/USBFS_1.c **** 
 773:Generated_Source\PSoC5/USBFS_1.c ****     #if (USBFS_1_SOF_ISR_ACTIVE)
 774:Generated_Source\PSoC5/USBFS_1.c ****         CyIntDisable(USBFS_1_SOF_VECT_NUM);
 775:Generated_Source\PSoC5/USBFS_1.c ****     #endif /* (USBFS_1_SOF_ISR_ACTIVE) */
 776:Generated_Source\PSoC5/USBFS_1.c **** 
 777:Generated_Source\PSoC5/USBFS_1.c ****     #if (USBFS_1_EP1_ISR_ACTIVE)
 778:Generated_Source\PSoC5/USBFS_1.c ****         CyIntDisable(USBFS_1_EP_1_VECT_NUM);
 464              		.loc 1 778 0
 465 0056 0222     		movs	r2, #2
 466 0058 1A60     		str	r2, [r3]
 779:Generated_Source\PSoC5/USBFS_1.c ****     #endif /* (USBFS_1_EP1_ISR_ACTIVE) */
 780:Generated_Source\PSoC5/USBFS_1.c **** 
 781:Generated_Source\PSoC5/USBFS_1.c ****     #if (USBFS_1_EP2_ISR_ACTIVE)
 782:Generated_Source\PSoC5/USBFS_1.c ****         CyIntDisable(USBFS_1_EP_2_VECT_NUM);
 783:Generated_Source\PSoC5/USBFS_1.c ****     #endif /* (USBFS_1_EP2_ISR_ACTIVE) */
ARM GAS  C:\Users\bchir\AppData\Local\Temp\ccbc5zmo.s 			page 23


 784:Generated_Source\PSoC5/USBFS_1.c **** 
 785:Generated_Source\PSoC5/USBFS_1.c ****     #if (USBFS_1_EP3_ISR_ACTIVE)
 786:Generated_Source\PSoC5/USBFS_1.c ****         CyIntDisable(USBFS_1_EP_3_VECT_NUM);
 787:Generated_Source\PSoC5/USBFS_1.c ****     #endif /* (USBFS_1_EP3_ISR_ACTIVE) */
 788:Generated_Source\PSoC5/USBFS_1.c **** 
 789:Generated_Source\PSoC5/USBFS_1.c ****     #if (USBFS_1_EP4_ISR_ACTIVE)
 790:Generated_Source\PSoC5/USBFS_1.c ****         CyIntDisable(USBFS_1_EP_4_VECT_NUM);
 791:Generated_Source\PSoC5/USBFS_1.c ****     #endif /* (USBFS_1_EP4_ISR_ACTIVE) */
 792:Generated_Source\PSoC5/USBFS_1.c **** 
 793:Generated_Source\PSoC5/USBFS_1.c ****     #if (USBFS_1_EP5_ISR_ACTIVE)
 794:Generated_Source\PSoC5/USBFS_1.c ****         CyIntDisable(USBFS_1_EP_5_VECT_NUM);
 795:Generated_Source\PSoC5/USBFS_1.c ****     #endif /* (USBFS_1_EP5_ISR_ACTIVE) */
 796:Generated_Source\PSoC5/USBFS_1.c **** 
 797:Generated_Source\PSoC5/USBFS_1.c ****     #if (USBFS_1_EP6_ISR_ACTIVE)
 798:Generated_Source\PSoC5/USBFS_1.c ****         CyIntDisable(USBFS_1_EP_6_VECT_NUM);
 799:Generated_Source\PSoC5/USBFS_1.c ****     #endif /* USBFS_1_EP6_ISR_REMOVE */
 800:Generated_Source\PSoC5/USBFS_1.c **** 
 801:Generated_Source\PSoC5/USBFS_1.c ****     #if (USBFS_1_EP7_ISR_ACTIVE)
 802:Generated_Source\PSoC5/USBFS_1.c ****         CyIntDisable(USBFS_1_EP_7_VECT_NUM);
 803:Generated_Source\PSoC5/USBFS_1.c ****     #endif /* (USBFS_1_EP7_ISR_ACTIVE) */
 804:Generated_Source\PSoC5/USBFS_1.c **** 
 805:Generated_Source\PSoC5/USBFS_1.c ****     #if (USBFS_1_EP8_ISR_ACTIVE)
 806:Generated_Source\PSoC5/USBFS_1.c ****         CyIntDisable(USBFS_1_EP_8_VECT_NUM);
 807:Generated_Source\PSoC5/USBFS_1.c ****     #endif /* (USBFS_1_EP8_ISR_ACTIVE) */
 808:Generated_Source\PSoC5/USBFS_1.c **** 
 809:Generated_Source\PSoC5/USBFS_1.c ****     #if (USBFS_1_DP_ISR_ACTIVE)
 810:Generated_Source\PSoC5/USBFS_1.c ****         /* Clear active mode Dp interrupt source history. */
 811:Generated_Source\PSoC5/USBFS_1.c ****         (void) USBFS_1_Dp_ClearInterrupt();
 467              		.loc 1 811 0
 468 005a FFF7FEFF 		bl	USBFS_1_Dp_ClearInterrupt
 469              	.LVL24:
 812:Generated_Source\PSoC5/USBFS_1.c ****         CyIntClearPending(USBFS_1_DP_INTC_VECT_NUM);
 470              		.loc 1 812 0
 471 005e 4FF48052 		mov	r2, #4096
 472 0062 0B4B     		ldr	r3, .L24+12
 473 0064 1A60     		str	r2, [r3]
 813:Generated_Source\PSoC5/USBFS_1.c ****     #endif /* (USBFS_1_DP_ISR_ACTIVE). */
 814:Generated_Source\PSoC5/USBFS_1.c **** 
 815:Generated_Source\PSoC5/USBFS_1.c **** #endif /* (CY_PSOC4) */
 816:Generated_Source\PSoC5/USBFS_1.c **** 
 817:Generated_Source\PSoC5/USBFS_1.c ****     /* Reset component internal variables. */
 818:Generated_Source\PSoC5/USBFS_1.c ****     USBFS_1_configurationChanged = 0u;
 474              		.loc 1 818 0
 475 0066 0023     		movs	r3, #0
 476 0068 0A4A     		ldr	r2, .L24+16
 477 006a 1370     		strb	r3, [r2]
 819:Generated_Source\PSoC5/USBFS_1.c ****     USBFS_1_configuration   = 0u;
 478              		.loc 1 819 0
 479 006c 0A4A     		ldr	r2, .L24+20
 480 006e 1370     		strb	r3, [r2]
 820:Generated_Source\PSoC5/USBFS_1.c ****     USBFS_1_interfaceNumber = 0u;
 481              		.loc 1 820 0
 482 0070 0A4A     		ldr	r2, .L24+24
 483 0072 1370     		strb	r3, [r2]
 821:Generated_Source\PSoC5/USBFS_1.c ****     USBFS_1_deviceAddress   = 0u;
 484              		.loc 1 821 0
 485 0074 0A4A     		ldr	r2, .L24+28
ARM GAS  C:\Users\bchir\AppData\Local\Temp\ccbc5zmo.s 			page 24


 486 0076 1370     		strb	r3, [r2]
 822:Generated_Source\PSoC5/USBFS_1.c ****     USBFS_1_deviceStatus    = 0u;
 487              		.loc 1 822 0
 488 0078 0A4A     		ldr	r2, .L24+32
 489 007a 1370     		strb	r3, [r2]
 823:Generated_Source\PSoC5/USBFS_1.c **** 
 824:Generated_Source\PSoC5/USBFS_1.c ****     /* It is mandatory for correct device startup. */
 825:Generated_Source\PSoC5/USBFS_1.c ****     USBFS_1_initVar = 0u;
 490              		.loc 1 825 0
 491 007c 0A4A     		ldr	r2, .L24+36
 492 007e 1370     		strb	r3, [r2]
 493 0080 08BD     		pop	{r3, pc}
 494              	.L25:
 495 0082 00BF     		.align	2
 496              	.L24:
 497 0084 08600040 		.word	1073766408
 498 0088 F8510040 		.word	1073762808
 499 008c 80E100E0 		.word	-536813184
 500 0090 80E200E0 		.word	-536812928
 501 0094 00000000 		.word	USBFS_1_configurationChanged
 502 0098 00000000 		.word	USBFS_1_configuration
 503 009c 00000000 		.word	USBFS_1_interfaceNumber
 504 00a0 00000000 		.word	USBFS_1_deviceAddress
 505 00a4 00000000 		.word	USBFS_1_deviceStatus
 506 00a8 00000000 		.word	.LANCHOR0
 507              		.cfi_endproc
 508              	.LFE4:
 509              		.size	USBFS_1_Stop, .-USBFS_1_Stop
 510              		.section	.text.USBFS_1_CheckActivity,"ax",%progbits
 511              		.align	2
 512              		.global	USBFS_1_CheckActivity
 513              		.thumb
 514              		.thumb_func
 515              		.type	USBFS_1_CheckActivity, %function
 516              	USBFS_1_CheckActivity:
 517              	.LFB5:
 826:Generated_Source\PSoC5/USBFS_1.c **** }
 827:Generated_Source\PSoC5/USBFS_1.c **** 
 828:Generated_Source\PSoC5/USBFS_1.c **** 
 829:Generated_Source\PSoC5/USBFS_1.c **** /*******************************************************************************
 830:Generated_Source\PSoC5/USBFS_1.c **** * Function Name: USBFS_1_CheckActivity
 831:Generated_Source\PSoC5/USBFS_1.c **** ****************************************************************************//**
 832:Generated_Source\PSoC5/USBFS_1.c **** *
 833:Generated_Source\PSoC5/USBFS_1.c **** *  This function returns the activity status of the bus. It clears the hardware
 834:Generated_Source\PSoC5/USBFS_1.c **** *  status to provide updated status on the next call of this function. It
 835:Generated_Source\PSoC5/USBFS_1.c **** *  provides a way to determine whether any USB bus activity occurred. The
 836:Generated_Source\PSoC5/USBFS_1.c **** *  application should use this function to determine if the USB suspend
 837:Generated_Source\PSoC5/USBFS_1.c **** *  conditions are met.
 838:Generated_Source\PSoC5/USBFS_1.c **** *
 839:Generated_Source\PSoC5/USBFS_1.c **** *
 840:Generated_Source\PSoC5/USBFS_1.c **** * \return
 841:Generated_Source\PSoC5/USBFS_1.c **** *  cystatus: Status of the bus since the last call of the function.
 842:Generated_Source\PSoC5/USBFS_1.c **** *  Return Value |   Description
 843:Generated_Source\PSoC5/USBFS_1.c **** *  -------------|---------------------------------------------------------------
 844:Generated_Source\PSoC5/USBFS_1.c **** *  1            |Bus activity was detected since the last call to this function
 845:Generated_Source\PSoC5/USBFS_1.c **** *  0            |Bus activity was not detected since the last call to this function
 846:Generated_Source\PSoC5/USBFS_1.c **** *
ARM GAS  C:\Users\bchir\AppData\Local\Temp\ccbc5zmo.s 			page 25


 847:Generated_Source\PSoC5/USBFS_1.c **** *
 848:Generated_Source\PSoC5/USBFS_1.c **** *******************************************************************************/
 849:Generated_Source\PSoC5/USBFS_1.c **** uint8 USBFS_1_CheckActivity(void) 
 850:Generated_Source\PSoC5/USBFS_1.c **** {
 518              		.loc 1 850 0
 519              		.cfi_startproc
 520              		@ args = 0, pretend = 0, frame = 0
 521              		@ frame_needed = 0, uses_anonymous_args = 0
 522              		@ link register save eliminated.
 851:Generated_Source\PSoC5/USBFS_1.c ****     uint8 cr1Reg = USBFS_1_CR1_REG;
 523              		.loc 1 851 0
 524 0000 064A     		ldr	r2, .L28
 525 0002 1378     		ldrb	r3, [r2]	@ zero_extendqisi2
 526 0004 DBB2     		uxtb	r3, r3
 527              	.LVL25:
 852:Generated_Source\PSoC5/USBFS_1.c **** 
 853:Generated_Source\PSoC5/USBFS_1.c ****     /* Clear bus activity. */
 854:Generated_Source\PSoC5/USBFS_1.c ****     USBFS_1_CR1_REG = (cr1Reg & (uint8) ~USBFS_1_CR1_BUS_ACTIVITY);
 528              		.loc 1 854 0
 529 0006 03F0FB01 		and	r1, r3, #251
 530 000a 1170     		strb	r1, [r2]
 531 000c 03F00403 		and	r3, r3, #4
 532              	.LVL26:
 855:Generated_Source\PSoC5/USBFS_1.c **** 
 856:Generated_Source\PSoC5/USBFS_1.c ****     /* Get bus activity. */
 857:Generated_Source\PSoC5/USBFS_1.c ****     return ((0u != (cr1Reg & USBFS_1_CR1_BUS_ACTIVITY)) ? (1u) : (0u));
 533              		.loc 1 857 0
 534 0010 03F0FF00 		and	r0, r3, #255
 535 0014 03B1     		cbz	r3, .L27
 536 0016 0120     		movs	r0, #1
 537              	.L27:
 858:Generated_Source\PSoC5/USBFS_1.c **** }
 538              		.loc 1 858 0 discriminator 4
 539 0018 7047     		bx	lr
 540              	.L29:
 541 001a 00BF     		.align	2
 542              	.L28:
 543 001c 09600040 		.word	1073766409
 544              		.cfi_endproc
 545              	.LFE5:
 546              		.size	USBFS_1_CheckActivity, .-USBFS_1_CheckActivity
 547              		.section	.text.USBFS_1_GetConfiguration,"ax",%progbits
 548              		.align	2
 549              		.global	USBFS_1_GetConfiguration
 550              		.thumb
 551              		.thumb_func
 552              		.type	USBFS_1_GetConfiguration, %function
 553              	USBFS_1_GetConfiguration:
 554              	.LFB6:
 859:Generated_Source\PSoC5/USBFS_1.c **** 
 860:Generated_Source\PSoC5/USBFS_1.c **** 
 861:Generated_Source\PSoC5/USBFS_1.c **** /*******************************************************************************
 862:Generated_Source\PSoC5/USBFS_1.c **** * Function Name: USBFS_1_GetConfiguration
 863:Generated_Source\PSoC5/USBFS_1.c **** ****************************************************************************//**
 864:Generated_Source\PSoC5/USBFS_1.c **** *
 865:Generated_Source\PSoC5/USBFS_1.c **** *  This function gets the current configuration of the USB device.
 866:Generated_Source\PSoC5/USBFS_1.c **** *
ARM GAS  C:\Users\bchir\AppData\Local\Temp\ccbc5zmo.s 			page 26


 867:Generated_Source\PSoC5/USBFS_1.c **** * \return
 868:Generated_Source\PSoC5/USBFS_1.c **** *  Returns the currently assigned configuration. Returns 0 if the device
 869:Generated_Source\PSoC5/USBFS_1.c **** *  is not configured
 870:Generated_Source\PSoC5/USBFS_1.c **** *
 871:Generated_Source\PSoC5/USBFS_1.c **** *******************************************************************************/
 872:Generated_Source\PSoC5/USBFS_1.c **** uint8 USBFS_1_GetConfiguration(void) 
 873:Generated_Source\PSoC5/USBFS_1.c **** {
 555              		.loc 1 873 0
 556              		.cfi_startproc
 557              		@ args = 0, pretend = 0, frame = 0
 558              		@ frame_needed = 0, uses_anonymous_args = 0
 559              		@ link register save eliminated.
 874:Generated_Source\PSoC5/USBFS_1.c ****     return (USBFS_1_configuration);
 560              		.loc 1 874 0
 561 0000 014B     		ldr	r3, .L31
 562 0002 1878     		ldrb	r0, [r3]	@ zero_extendqisi2
 875:Generated_Source\PSoC5/USBFS_1.c **** }
 563              		.loc 1 875 0
 564 0004 7047     		bx	lr
 565              	.L32:
 566 0006 00BF     		.align	2
 567              	.L31:
 568 0008 00000000 		.word	USBFS_1_configuration
 569              		.cfi_endproc
 570              	.LFE6:
 571              		.size	USBFS_1_GetConfiguration, .-USBFS_1_GetConfiguration
 572              		.section	.text.USBFS_1_IsConfigurationChanged,"ax",%progbits
 573              		.align	2
 574              		.global	USBFS_1_IsConfigurationChanged
 575              		.thumb
 576              		.thumb_func
 577              		.type	USBFS_1_IsConfigurationChanged, %function
 578              	USBFS_1_IsConfigurationChanged:
 579              	.LFB7:
 876:Generated_Source\PSoC5/USBFS_1.c **** 
 877:Generated_Source\PSoC5/USBFS_1.c **** 
 878:Generated_Source\PSoC5/USBFS_1.c **** /*******************************************************************************
 879:Generated_Source\PSoC5/USBFS_1.c **** * Function Name: USBFS_1_IsConfigurationChanged
 880:Generated_Source\PSoC5/USBFS_1.c **** ****************************************************************************//**
 881:Generated_Source\PSoC5/USBFS_1.c **** *
 882:Generated_Source\PSoC5/USBFS_1.c **** *  This function returns the clear-on-read configuration state.  It is useful
 883:Generated_Source\PSoC5/USBFS_1.c **** *  when the host sends double SET_CONFIGURATION request with the same 
 884:Generated_Source\PSoC5/USBFS_1.c **** *  configuration number or changes alternate settings of the interface. 
 885:Generated_Source\PSoC5/USBFS_1.c **** *  After configuration has been changed the OUT endpoints must be enabled and IN 
 886:Generated_Source\PSoC5/USBFS_1.c **** *  endpoint must be loaded with data to start communication with the host.
 887:Generated_Source\PSoC5/USBFS_1.c **** *
 888:Generated_Source\PSoC5/USBFS_1.c **** * \return
 889:Generated_Source\PSoC5/USBFS_1.c **** *  None-zero value when new configuration has been changed, otherwise zero is
 890:Generated_Source\PSoC5/USBFS_1.c **** *  returned.
 891:Generated_Source\PSoC5/USBFS_1.c **** *
 892:Generated_Source\PSoC5/USBFS_1.c **** * \globalvars
 893:Generated_Source\PSoC5/USBFS_1.c **** *
 894:Generated_Source\PSoC5/USBFS_1.c **** *  \ref USBFS_1_configurationChanged - This variable is set to 1 after
 895:Generated_Source\PSoC5/USBFS_1.c **** *   a SET_CONFIGURATION request and cleared in this function.
 896:Generated_Source\PSoC5/USBFS_1.c **** *
 897:Generated_Source\PSoC5/USBFS_1.c **** *******************************************************************************/
 898:Generated_Source\PSoC5/USBFS_1.c **** uint8 USBFS_1_IsConfigurationChanged(void) 
ARM GAS  C:\Users\bchir\AppData\Local\Temp\ccbc5zmo.s 			page 27


 899:Generated_Source\PSoC5/USBFS_1.c **** {
 580              		.loc 1 899 0
 581              		.cfi_startproc
 582              		@ args = 0, pretend = 0, frame = 0
 583              		@ frame_needed = 0, uses_anonymous_args = 0
 584              		@ link register save eliminated.
 585              	.LVL27:
 900:Generated_Source\PSoC5/USBFS_1.c ****     uint8 res = 0u;
 901:Generated_Source\PSoC5/USBFS_1.c **** 
 902:Generated_Source\PSoC5/USBFS_1.c ****     if (USBFS_1_configurationChanged != 0u)
 586              		.loc 1 902 0
 587 0000 064B     		ldr	r3, .L36
 588 0002 1B78     		ldrb	r3, [r3]	@ zero_extendqisi2
 589 0004 13F0FF0F 		tst	r3, #255
 590 0008 05D0     		beq	.L35
 903:Generated_Source\PSoC5/USBFS_1.c ****     {
 904:Generated_Source\PSoC5/USBFS_1.c ****         res = USBFS_1_configurationChanged;
 591              		.loc 1 904 0
 592 000a 044B     		ldr	r3, .L36
 593 000c 1878     		ldrb	r0, [r3]	@ zero_extendqisi2
 594 000e C0B2     		uxtb	r0, r0
 595              	.LVL28:
 905:Generated_Source\PSoC5/USBFS_1.c ****         USBFS_1_configurationChanged = 0u;
 596              		.loc 1 905 0
 597 0010 0022     		movs	r2, #0
 598 0012 1A70     		strb	r2, [r3]
 599 0014 7047     		bx	lr
 600              	.LVL29:
 601              	.L35:
 900:Generated_Source\PSoC5/USBFS_1.c ****     uint8 res = 0u;
 602              		.loc 1 900 0
 603 0016 0020     		movs	r0, #0
 604              	.LVL30:
 906:Generated_Source\PSoC5/USBFS_1.c ****     }
 907:Generated_Source\PSoC5/USBFS_1.c **** 
 908:Generated_Source\PSoC5/USBFS_1.c ****     return (res);
 909:Generated_Source\PSoC5/USBFS_1.c **** }
 605              		.loc 1 909 0
 606 0018 7047     		bx	lr
 607              	.L37:
 608 001a 00BF     		.align	2
 609              	.L36:
 610 001c 00000000 		.word	USBFS_1_configurationChanged
 611              		.cfi_endproc
 612              	.LFE7:
 613              		.size	USBFS_1_IsConfigurationChanged, .-USBFS_1_IsConfigurationChanged
 614              		.section	.text.USBFS_1_GetInterfaceSetting,"ax",%progbits
 615              		.align	2
 616              		.global	USBFS_1_GetInterfaceSetting
 617              		.thumb
 618              		.thumb_func
 619              		.type	USBFS_1_GetInterfaceSetting, %function
 620              	USBFS_1_GetInterfaceSetting:
 621              	.LFB8:
 910:Generated_Source\PSoC5/USBFS_1.c **** 
 911:Generated_Source\PSoC5/USBFS_1.c **** 
 912:Generated_Source\PSoC5/USBFS_1.c **** /*******************************************************************************
ARM GAS  C:\Users\bchir\AppData\Local\Temp\ccbc5zmo.s 			page 28


 913:Generated_Source\PSoC5/USBFS_1.c **** * Function Name: USBFS_1_GetInterfaceSetting
 914:Generated_Source\PSoC5/USBFS_1.c **** ****************************************************************************//**
 915:Generated_Source\PSoC5/USBFS_1.c **** *
 916:Generated_Source\PSoC5/USBFS_1.c **** *  This function gets the current alternate setting for the specified interface.
 917:Generated_Source\PSoC5/USBFS_1.c **** *  It is useful to identify which alternate settings are active in the specified 
 918:Generated_Source\PSoC5/USBFS_1.c **** *  interface.
 919:Generated_Source\PSoC5/USBFS_1.c **** *
 920:Generated_Source\PSoC5/USBFS_1.c **** *  \param
 921:Generated_Source\PSoC5/USBFS_1.c **** *  interfaceNumber interface number
 922:Generated_Source\PSoC5/USBFS_1.c **** *
 923:Generated_Source\PSoC5/USBFS_1.c **** * \return
 924:Generated_Source\PSoC5/USBFS_1.c **** *  Returns the current alternate setting for the specified interface.
 925:Generated_Source\PSoC5/USBFS_1.c **** *
 926:Generated_Source\PSoC5/USBFS_1.c **** *******************************************************************************/
 927:Generated_Source\PSoC5/USBFS_1.c **** uint8  USBFS_1_GetInterfaceSetting(uint8 interfaceNumber)
 928:Generated_Source\PSoC5/USBFS_1.c ****                                                     
 929:Generated_Source\PSoC5/USBFS_1.c **** {
 622              		.loc 1 929 0
 623              		.cfi_startproc
 624              		@ args = 0, pretend = 0, frame = 0
 625              		@ frame_needed = 0, uses_anonymous_args = 0
 626              		@ link register save eliminated.
 627              	.LVL31:
 930:Generated_Source\PSoC5/USBFS_1.c ****     return (USBFS_1_interfaceSetting[interfaceNumber]);
 628              		.loc 1 930 0
 629 0000 014B     		ldr	r3, .L39
 630 0002 185C     		ldrb	r0, [r3, r0]	@ zero_extendqisi2
 631              	.LVL32:
 931:Generated_Source\PSoC5/USBFS_1.c **** }
 632              		.loc 1 931 0
 633 0004 7047     		bx	lr
 634              	.L40:
 635 0006 00BF     		.align	2
 636              	.L39:
 637 0008 00000000 		.word	USBFS_1_interfaceSetting
 638              		.cfi_endproc
 639              	.LFE8:
 640              		.size	USBFS_1_GetInterfaceSetting, .-USBFS_1_GetInterfaceSetting
 641              		.section	.text.USBFS_1_GetEPState,"ax",%progbits
 642              		.align	2
 643              		.global	USBFS_1_GetEPState
 644              		.thumb
 645              		.thumb_func
 646              		.type	USBFS_1_GetEPState, %function
 647              	USBFS_1_GetEPState:
 648              	.LFB9:
 932:Generated_Source\PSoC5/USBFS_1.c **** 
 933:Generated_Source\PSoC5/USBFS_1.c **** 
 934:Generated_Source\PSoC5/USBFS_1.c **** /*******************************************************************************
 935:Generated_Source\PSoC5/USBFS_1.c **** * Function Name: USBFS_1_GetEPState
 936:Generated_Source\PSoC5/USBFS_1.c **** ****************************************************************************//**
 937:Generated_Source\PSoC5/USBFS_1.c **** *
 938:Generated_Source\PSoC5/USBFS_1.c **** *  This function returns the state of the requested endpoint.
 939:Generated_Source\PSoC5/USBFS_1.c **** *
 940:Generated_Source\PSoC5/USBFS_1.c **** * \param epNumber Data endpoint number
 941:Generated_Source\PSoC5/USBFS_1.c **** *
 942:Generated_Source\PSoC5/USBFS_1.c **** * \return
ARM GAS  C:\Users\bchir\AppData\Local\Temp\ccbc5zmo.s 			page 29


 943:Generated_Source\PSoC5/USBFS_1.c **** *  Returns the current state of the specified USBFS endpoint. Symbolic names and
 944:Generated_Source\PSoC5/USBFS_1.c **** *  their associated values are given in the following table. Use these constants
 945:Generated_Source\PSoC5/USBFS_1.c **** *  whenever you write code to change the state of the endpoints, such as ISR
 946:Generated_Source\PSoC5/USBFS_1.c **** *  code, to handle data sent or received.
 947:Generated_Source\PSoC5/USBFS_1.c **** *
 948:Generated_Source\PSoC5/USBFS_1.c **** *  Return Value           | Description
 949:Generated_Source\PSoC5/USBFS_1.c **** *  -----------------------|-----------------------------------------------------
 950:Generated_Source\PSoC5/USBFS_1.c **** *  USBFS_NO_EVENT_PENDING |The endpoint is awaiting SIE action
 951:Generated_Source\PSoC5/USBFS_1.c **** *  USBFS_EVENT_PENDING    |The endpoint is awaiting CPU action
 952:Generated_Source\PSoC5/USBFS_1.c **** *  USBFS_NO_EVENT_ALLOWED |The endpoint is locked from access
 953:Generated_Source\PSoC5/USBFS_1.c **** *  USBFS_IN_BUFFER_FULL   |The IN endpoint is loaded and the mode is set to ACK IN
 954:Generated_Source\PSoC5/USBFS_1.c **** *  USBFS_IN_BUFFER_EMPTY  |An IN transaction occurred and more data can be loaded
 955:Generated_Source\PSoC5/USBFS_1.c **** *  USBFS_OUT_BUFFER_EMPTY |The OUT endpoint is set to ACK OUT and is waiting for data
 956:Generated_Source\PSoC5/USBFS_1.c **** *  USBFS_OUT_BUFFER_FULL  |An OUT transaction has occurred and data can be read
 957:Generated_Source\PSoC5/USBFS_1.c **** *
 958:Generated_Source\PSoC5/USBFS_1.c **** *******************************************************************************/
 959:Generated_Source\PSoC5/USBFS_1.c **** uint8 USBFS_1_GetEPState(uint8 epNumber) 
 960:Generated_Source\PSoC5/USBFS_1.c **** {
 649              		.loc 1 960 0
 650              		.cfi_startproc
 651              		@ args = 0, pretend = 0, frame = 0
 652              		@ frame_needed = 0, uses_anonymous_args = 0
 653              		@ link register save eliminated.
 654              	.LVL33:
 961:Generated_Source\PSoC5/USBFS_1.c ****     return (USBFS_1_EP[epNumber].apiEpState);
 655              		.loc 1 961 0
 656 0000 00EB4000 		add	r0, r0, r0, lsl #1
 657              	.LVL34:
 658 0004 8300     		lsls	r3, r0, #2
 659 0006 024A     		ldr	r2, .L42
 660 0008 1344     		add	r3, r3, r2
 661 000a 5878     		ldrb	r0, [r3, #1]	@ zero_extendqisi2
 962:Generated_Source\PSoC5/USBFS_1.c **** }
 662              		.loc 1 962 0
 663 000c 7047     		bx	lr
 664              	.L43:
 665 000e 00BF     		.align	2
 666              	.L42:
 667 0010 00000000 		.word	USBFS_1_EP
 668              		.cfi_endproc
 669              	.LFE9:
 670              		.size	USBFS_1_GetEPState, .-USBFS_1_GetEPState
 671              		.section	.text.USBFS_1_GetEPCount,"ax",%progbits
 672              		.align	2
 673              		.global	USBFS_1_GetEPCount
 674              		.thumb
 675              		.thumb_func
 676              		.type	USBFS_1_GetEPCount, %function
 677              	USBFS_1_GetEPCount:
 678              	.LFB10:
 963:Generated_Source\PSoC5/USBFS_1.c **** 
 964:Generated_Source\PSoC5/USBFS_1.c **** 
 965:Generated_Source\PSoC5/USBFS_1.c **** /*******************************************************************************
 966:Generated_Source\PSoC5/USBFS_1.c **** * Function Name: USBFS_1_GetEPCount
 967:Generated_Source\PSoC5/USBFS_1.c **** ****************************************************************************//**
 968:Generated_Source\PSoC5/USBFS_1.c **** *
 969:Generated_Source\PSoC5/USBFS_1.c **** *  This function supports Data Endpoints only(EP1-EP8).
ARM GAS  C:\Users\bchir\AppData\Local\Temp\ccbc5zmo.s 			page 30


 970:Generated_Source\PSoC5/USBFS_1.c **** *  Returns the transfer count for the requested endpoint.  The value from
 971:Generated_Source\PSoC5/USBFS_1.c **** *  the count registers includes 2 counts for the two byte checksum of the
 972:Generated_Source\PSoC5/USBFS_1.c **** *  packet.  This function subtracts the two counts.
 973:Generated_Source\PSoC5/USBFS_1.c **** *
 974:Generated_Source\PSoC5/USBFS_1.c **** *  \param epNumber Data Endpoint Number.
 975:Generated_Source\PSoC5/USBFS_1.c **** *                   Valid values are between 1 and 8.
 976:Generated_Source\PSoC5/USBFS_1.c **** *
 977:Generated_Source\PSoC5/USBFS_1.c **** * \return
 978:Generated_Source\PSoC5/USBFS_1.c **** *  Returns the current byte count from the specified endpoint or 0 for an
 979:Generated_Source\PSoC5/USBFS_1.c **** *  invalid endpoint.
 980:Generated_Source\PSoC5/USBFS_1.c **** *
 981:Generated_Source\PSoC5/USBFS_1.c **** *******************************************************************************/
 982:Generated_Source\PSoC5/USBFS_1.c **** uint16 USBFS_1_GetEPCount(uint8 epNumber) 
 983:Generated_Source\PSoC5/USBFS_1.c **** {
 679              		.loc 1 983 0
 680              		.cfi_startproc
 681              		@ args = 0, pretend = 0, frame = 0
 682              		@ frame_needed = 0, uses_anonymous_args = 0
 683              		@ link register save eliminated.
 684              	.LVL35:
 984:Generated_Source\PSoC5/USBFS_1.c ****     uint16 cntr = 0u;
 985:Generated_Source\PSoC5/USBFS_1.c **** 
 986:Generated_Source\PSoC5/USBFS_1.c ****     if ((epNumber > USBFS_1_EP0) && (epNumber < USBFS_1_MAX_EP))
 685              		.loc 1 986 0
 686 0000 431E     		subs	r3, r0, #1
 687 0002 DBB2     		uxtb	r3, r3
 688 0004 072B     		cmp	r3, #7
 689 0006 0BD8     		bhi	.L46
 987:Generated_Source\PSoC5/USBFS_1.c ****     {
 988:Generated_Source\PSoC5/USBFS_1.c ****         /* Get 11-bits EP counter where epCnt0 - 3 bits MSB and epCnt1 - 8 bits LSB. */
 989:Generated_Source\PSoC5/USBFS_1.c ****         cntr  = ((uint16) USBFS_1_SIE_EP_BASE.sieEp[epNumber].epCnt0) & USBFS_1_EPX_CNT0_MASK;
 690              		.loc 1 989 0
 691 0008 064B     		ldr	r3, .L47
 692 000a 0001     		lsls	r0, r0, #4
 693              	.LVL36:
 694 000c 1A18     		adds	r2, r3, r0
 695 000e 185C     		ldrb	r0, [r3, r0]	@ zero_extendqisi2
 696 0010 00F00F00 		and	r0, r0, #15
 697              	.LVL37:
 990:Generated_Source\PSoC5/USBFS_1.c ****         cntr  = ((uint16) (cntr << 8u)) | ((uint16) USBFS_1_SIE_EP_BASE.sieEp[epNumber].epCnt1);
 698              		.loc 1 990 0
 699 0014 5378     		ldrb	r3, [r2, #1]	@ zero_extendqisi2
 700 0016 43EA0020 		orr	r0, r3, r0, lsl #8
 701              	.LVL38:
 991:Generated_Source\PSoC5/USBFS_1.c ****         cntr -= USBFS_1_EPX_CNTX_CRC_COUNT;
 702              		.loc 1 991 0
 703 001a 0238     		subs	r0, r0, #2
 704              	.LVL39:
 705 001c 80B2     		uxth	r0, r0
 706              	.LVL40:
 707 001e 7047     		bx	lr
 708              	.LVL41:
 709              	.L46:
 984:Generated_Source\PSoC5/USBFS_1.c **** 
 710              		.loc 1 984 0
 711 0020 0020     		movs	r0, #0
 712              	.LVL42:
ARM GAS  C:\Users\bchir\AppData\Local\Temp\ccbc5zmo.s 			page 31


 992:Generated_Source\PSoC5/USBFS_1.c ****     }
 993:Generated_Source\PSoC5/USBFS_1.c **** 
 994:Generated_Source\PSoC5/USBFS_1.c ****     return (cntr);
 995:Generated_Source\PSoC5/USBFS_1.c **** }
 713              		.loc 1 995 0
 714 0022 7047     		bx	lr
 715              	.L48:
 716              		.align	2
 717              	.L47:
 718 0024 FC5F0040 		.word	1073766396
 719              		.cfi_endproc
 720              	.LFE10:
 721              		.size	USBFS_1_GetEPCount, .-USBFS_1_GetEPCount
 722              		.section	.text.USBFS_1_LoadInEP,"ax",%progbits
 723              		.align	2
 724              		.global	USBFS_1_LoadInEP
 725              		.thumb
 726              		.thumb_func
 727              		.type	USBFS_1_LoadInEP, %function
 728              	USBFS_1_LoadInEP:
 729              	.LFB11:
 996:Generated_Source\PSoC5/USBFS_1.c **** 
 997:Generated_Source\PSoC5/USBFS_1.c **** 
 998:Generated_Source\PSoC5/USBFS_1.c **** #if (USBFS_1_EP_MANAGEMENT_DMA)
 999:Generated_Source\PSoC5/USBFS_1.c **** #if (CY_PSOC4)
1000:Generated_Source\PSoC5/USBFS_1.c ****     /*******************************************************************************
1001:Generated_Source\PSoC5/USBFS_1.c ****     * Function Name: USBFS_1_InitEpDma
1002:Generated_Source\PSoC5/USBFS_1.c ****     ****************************************************************************//**
1003:Generated_Source\PSoC5/USBFS_1.c ****     *
1004:Generated_Source\PSoC5/USBFS_1.c ****     *  This function configures priority for all DMA channels utilized by the
1005:Generated_Source\PSoC5/USBFS_1.c ****     *  component. Also sets callbacks for DMA auto mode.
1006:Generated_Source\PSoC5/USBFS_1.c ****     *
1007:Generated_Source\PSoC5/USBFS_1.c ****     *******************************************************************************/
1008:Generated_Source\PSoC5/USBFS_1.c ****     static void USBFS_1_InitEpDma(void)
1009:Generated_Source\PSoC5/USBFS_1.c ****     {
1010:Generated_Source\PSoC5/USBFS_1.c ****     #if (USBFS_1_DMA1_ACTIVE)
1011:Generated_Source\PSoC5/USBFS_1.c ****         CYDMA_CH_CTL_BASE.ctl[USBFS_1_ep1_dma_CHANNEL] = USBFS_1_ep1_dma_CHANNEL_CFG;
1012:Generated_Source\PSoC5/USBFS_1.c ****     #endif /* (USBFS_1_DMA1_ACTIVE) */
1013:Generated_Source\PSoC5/USBFS_1.c **** 
1014:Generated_Source\PSoC5/USBFS_1.c ****     #if (USBFS_1_DMA2_ACTIVE)
1015:Generated_Source\PSoC5/USBFS_1.c ****         CYDMA_CH_CTL_BASE.ctl[USBFS_1_ep2_dma_CHANNEL] = USBFS_1_ep2_dma_CHANNEL_CFG;
1016:Generated_Source\PSoC5/USBFS_1.c ****     #endif /* (USBFS_1_DMA2_ACTIVE) */
1017:Generated_Source\PSoC5/USBFS_1.c **** 
1018:Generated_Source\PSoC5/USBFS_1.c ****     #if (USBFS_1_DMA3_ACTIVE)
1019:Generated_Source\PSoC5/USBFS_1.c ****         CYDMA_CH_CTL_BASE.ctl[USBFS_1_ep3_dma_CHANNEL] = USBFS_1_ep3_dma_CHANNEL_CFG;
1020:Generated_Source\PSoC5/USBFS_1.c ****     #endif /* (USBFS_1_DMA3_ACTIVE) */
1021:Generated_Source\PSoC5/USBFS_1.c **** 
1022:Generated_Source\PSoC5/USBFS_1.c ****     #if (USBFS_1_DMA4_ACTIVE)
1023:Generated_Source\PSoC5/USBFS_1.c ****         CYDMA_CH_CTL_BASE.ctl[USBFS_1_ep4_dma_CHANNEL] = USBFS_1_ep4_dma_CHANNEL_CFG;
1024:Generated_Source\PSoC5/USBFS_1.c ****     #endif /* (USBFS_1_DMA4_ACTIVE) */
1025:Generated_Source\PSoC5/USBFS_1.c **** 
1026:Generated_Source\PSoC5/USBFS_1.c ****     #if (USBFS_1_DMA5_ACTIVE)
1027:Generated_Source\PSoC5/USBFS_1.c ****         CYDMA_CH_CTL_BASE.ctl[USBFS_1_ep5_dma_CHANNEL] = USBFS_1_ep5_dma_CHANNEL_CFG;
1028:Generated_Source\PSoC5/USBFS_1.c ****     #endif /* (USBFS_1_DMA5_ACTIVE) */
1029:Generated_Source\PSoC5/USBFS_1.c **** 
1030:Generated_Source\PSoC5/USBFS_1.c ****     #if (USBFS_1_DMA6_ACTIVE)
1031:Generated_Source\PSoC5/USBFS_1.c ****         CYDMA_CH_CTL_BASE.ctl[USBFS_1_ep6_dma_CHANNEL] = USBFS_1_ep6_dma_CHANNEL_CFG;
ARM GAS  C:\Users\bchir\AppData\Local\Temp\ccbc5zmo.s 			page 32


1032:Generated_Source\PSoC5/USBFS_1.c ****     #endif /* (USBFS_1_DMA6_ACTIVE) */
1033:Generated_Source\PSoC5/USBFS_1.c **** 
1034:Generated_Source\PSoC5/USBFS_1.c ****     #if (USBFS_1_DMA7_ACTIVE)
1035:Generated_Source\PSoC5/USBFS_1.c ****         CYDMA_CH_CTL_BASE.ctl[USBFS_1_ep7_dma_CHANNEL] = USBFS_1_ep7_dma_CHANNEL_CFG;
1036:Generated_Source\PSoC5/USBFS_1.c ****     #endif /* (USBFS_1_DMA7_ACTIVE) */
1037:Generated_Source\PSoC5/USBFS_1.c **** 
1038:Generated_Source\PSoC5/USBFS_1.c ****     #if (USBFS_1_DMA8_ACTIVE)
1039:Generated_Source\PSoC5/USBFS_1.c ****         CYDMA_CH_CTL_BASE.ctl[USBFS_1_ep8_dma_CHANNEL] = USBFS_1_ep8_dma_CHANNEL_CFG;
1040:Generated_Source\PSoC5/USBFS_1.c ****     #endif /* (USBFS_1_DMA8_ACTIVE) */
1041:Generated_Source\PSoC5/USBFS_1.c **** 
1042:Generated_Source\PSoC5/USBFS_1.c ****     #if (USBFS_1_EP_MANAGEMENT_DMA_AUTO)
1043:Generated_Source\PSoC5/USBFS_1.c ****         /* Initialize DMA channel callbacks. */
1044:Generated_Source\PSoC5/USBFS_1.c ****         #if (USBFS_1_DMA1_ACTIVE)
1045:Generated_Source\PSoC5/USBFS_1.c ****             (void) USBFS_1_ep1_dma_SetInterruptCallback(&USBFS_1_EP1_DMA_DONE_ISR);
1046:Generated_Source\PSoC5/USBFS_1.c ****         #endif /* (USBFS_1_DMA1_ACTIVE) */
1047:Generated_Source\PSoC5/USBFS_1.c **** 
1048:Generated_Source\PSoC5/USBFS_1.c ****         #if (USBFS_1_DMA2_ACTIVE)
1049:Generated_Source\PSoC5/USBFS_1.c ****             (void) USBFS_1_ep2_dma_SetInterruptCallback(&USBFS_1_EP2_DMA_DONE_ISR);
1050:Generated_Source\PSoC5/USBFS_1.c ****         #endif /* (USBFS_1_DMA2_ACTIVE) */
1051:Generated_Source\PSoC5/USBFS_1.c **** 
1052:Generated_Source\PSoC5/USBFS_1.c ****         #if (USBFS_1_DMA3_ACTIVE)
1053:Generated_Source\PSoC5/USBFS_1.c ****             (void) USBFS_1_ep3_dma_SetInterruptCallback(&USBFS_1_EP3_DMA_DONE_ISR);
1054:Generated_Source\PSoC5/USBFS_1.c ****         #endif /* (USBFS_1_DMA3_ACTIVE) */
1055:Generated_Source\PSoC5/USBFS_1.c **** 
1056:Generated_Source\PSoC5/USBFS_1.c ****         #if (USBFS_1_DMA4_ACTIVE)
1057:Generated_Source\PSoC5/USBFS_1.c ****             (void) USBFS_1_ep4_dma_SetInterruptCallback(&USBFS_1_EP4_DMA_DONE_ISR);
1058:Generated_Source\PSoC5/USBFS_1.c ****         #endif /* (USBFS_1_DMA4_ACTIVE) */
1059:Generated_Source\PSoC5/USBFS_1.c **** 
1060:Generated_Source\PSoC5/USBFS_1.c ****         #if (USBFS_1_DMA5_ACTIVE)
1061:Generated_Source\PSoC5/USBFS_1.c ****             (void) USBFS_1_ep5_dma_SetInterruptCallback(&USBFS_1_EP5_DMA_DONE_ISR);
1062:Generated_Source\PSoC5/USBFS_1.c ****         #endif /* (USBFS_1_DMA5_ACTIVE) */
1063:Generated_Source\PSoC5/USBFS_1.c **** 
1064:Generated_Source\PSoC5/USBFS_1.c ****         #if (USBFS_1_DMA6_ACTIVE)
1065:Generated_Source\PSoC5/USBFS_1.c ****             (void) USBFS_1_ep6_dma_SetInterruptCallback(&USBFS_1_EP6_DMA_DONE_ISR);
1066:Generated_Source\PSoC5/USBFS_1.c ****         #endif /* (USBFS_1_DMA6_ACTIVE) */
1067:Generated_Source\PSoC5/USBFS_1.c **** 
1068:Generated_Source\PSoC5/USBFS_1.c ****         #if (USBFS_1_DMA7_ACTIVE)
1069:Generated_Source\PSoC5/USBFS_1.c ****             (void) USBFS_1_ep7_dma_SetInterruptCallback(&USBFS_1_EP7_DMA_DONE_ISR);
1070:Generated_Source\PSoC5/USBFS_1.c ****         #endif /* (USBFS_1_DMA7_ACTIVE) */
1071:Generated_Source\PSoC5/USBFS_1.c **** 
1072:Generated_Source\PSoC5/USBFS_1.c ****         #if (USBFS_1_DMA8_ACTIVE)
1073:Generated_Source\PSoC5/USBFS_1.c ****             (void) USBFS_1_ep8_dma_SetInterruptCallback(&USBFS_1_EP8_DMA_DONE_ISR);
1074:Generated_Source\PSoC5/USBFS_1.c ****         #endif /* (USBFS_1_DMA8_ACTIVE) */
1075:Generated_Source\PSoC5/USBFS_1.c ****     #endif /* (USBFS_1_EP_MANAGEMENT_DMA_AUTO) */
1076:Generated_Source\PSoC5/USBFS_1.c ****     }
1077:Generated_Source\PSoC5/USBFS_1.c **** #else
1078:Generated_Source\PSoC5/USBFS_1.c **** 
1079:Generated_Source\PSoC5/USBFS_1.c **** 
1080:Generated_Source\PSoC5/USBFS_1.c ****     /***************************************************************************
1081:Generated_Source\PSoC5/USBFS_1.c ****     * Function Name: USBFS_1_InitEP_DMA
1082:Generated_Source\PSoC5/USBFS_1.c ****     ************************************************************************//**
1083:Generated_Source\PSoC5/USBFS_1.c ****     *
1084:Generated_Source\PSoC5/USBFS_1.c ****     *  This function allocates and initializes a DMA channel to be used by the
1085:Generated_Source\PSoC5/USBFS_1.c ****     *  USBFS_1_LoadInEP() or USBFS_1_ReadOutEP() APIs for data
1086:Generated_Source\PSoC5/USBFS_1.c ****     *  transfer. It is available when the Endpoint Memory Management parameter
1087:Generated_Source\PSoC5/USBFS_1.c ****     *  is set to DMA.
1088:Generated_Source\PSoC5/USBFS_1.c ****     *
ARM GAS  C:\Users\bchir\AppData\Local\Temp\ccbc5zmo.s 			page 33


1089:Generated_Source\PSoC5/USBFS_1.c ****     *  This function is automatically called from the USBFS_LoadInEP() and USBFS_ReadOutEP() APIs.
1090:Generated_Source\PSoC5/USBFS_1.c ****     *
1091:Generated_Source\PSoC5/USBFS_1.c ****     *  \param epNumber Contains the data endpoint number.
1092:Generated_Source\PSoC5/USBFS_1.c ****     *            Valid values are between 1 and 8.
1093:Generated_Source\PSoC5/USBFS_1.c ****     *  \param *pData Pointer to a data array that is related to the EP transfers.
1094:Generated_Source\PSoC5/USBFS_1.c ****     *
1095:Generated_Source\PSoC5/USBFS_1.c ****     * \reentrant No.
1096:Generated_Source\PSoC5/USBFS_1.c ****     *
1097:Generated_Source\PSoC5/USBFS_1.c ****     ***************************************************************************/
1098:Generated_Source\PSoC5/USBFS_1.c ****     void USBFS_1_InitEP_DMA(uint8 epNumber, const uint8 *pData)
1099:Generated_Source\PSoC5/USBFS_1.c ****                                                                     
1100:Generated_Source\PSoC5/USBFS_1.c ****     {
1101:Generated_Source\PSoC5/USBFS_1.c ****         uint16 src;
1102:Generated_Source\PSoC5/USBFS_1.c ****         uint16 dst;
1103:Generated_Source\PSoC5/USBFS_1.c **** 
1104:Generated_Source\PSoC5/USBFS_1.c ****     #if (CY_PSOC3)
1105:Generated_Source\PSoC5/USBFS_1.c ****         src = HI16(CYDEV_SRAM_BASE);
1106:Generated_Source\PSoC5/USBFS_1.c ****         dst = HI16(CYDEV_PERIPH_BASE);
1107:Generated_Source\PSoC5/USBFS_1.c ****         pData = pData;
1108:Generated_Source\PSoC5/USBFS_1.c ****     #else
1109:Generated_Source\PSoC5/USBFS_1.c ****         if ((USBFS_1_EP[epNumber].addr & USBFS_1_DIR_IN) != 0u)
1110:Generated_Source\PSoC5/USBFS_1.c ****         {
1111:Generated_Source\PSoC5/USBFS_1.c ****             /* IN endpoint: source is memory buffer. */
1112:Generated_Source\PSoC5/USBFS_1.c ****             src = HI16(pData);
1113:Generated_Source\PSoC5/USBFS_1.c ****             dst = HI16(CYDEV_PERIPH_BASE);
1114:Generated_Source\PSoC5/USBFS_1.c ****         }
1115:Generated_Source\PSoC5/USBFS_1.c ****         else
1116:Generated_Source\PSoC5/USBFS_1.c ****         {
1117:Generated_Source\PSoC5/USBFS_1.c ****             /* OUT endpoint: source is USB IP memory buffer. */
1118:Generated_Source\PSoC5/USBFS_1.c ****             src = HI16(CYDEV_PERIPH_BASE);
1119:Generated_Source\PSoC5/USBFS_1.c ****             dst = HI16(pData);
1120:Generated_Source\PSoC5/USBFS_1.c ****         }
1121:Generated_Source\PSoC5/USBFS_1.c ****     #endif  /* (CY_PSOC3) */
1122:Generated_Source\PSoC5/USBFS_1.c **** 
1123:Generated_Source\PSoC5/USBFS_1.c ****         switch(epNumber)
1124:Generated_Source\PSoC5/USBFS_1.c ****         {
1125:Generated_Source\PSoC5/USBFS_1.c ****     #if (USBFS_1_DMA1_ACTIVE)
1126:Generated_Source\PSoC5/USBFS_1.c ****         case USBFS_1_EP1:
1127:Generated_Source\PSoC5/USBFS_1.c ****             USBFS_1_DmaChan[epNumber] = USBFS_1_ep1_DmaInitialize(USBFS_1_DMA_BYTES_PER_BURST,
1128:Generated_Source\PSoC5/USBFS_1.c ****                                                                                     USBFS_1_DMA_REQ
1129:Generated_Source\PSoC5/USBFS_1.c ****             break;
1130:Generated_Source\PSoC5/USBFS_1.c ****     #endif /* (USBFS_1_DMA1_ACTIVE) */
1131:Generated_Source\PSoC5/USBFS_1.c **** 
1132:Generated_Source\PSoC5/USBFS_1.c ****     #if (USBFS_1_DMA2_ACTIVE)
1133:Generated_Source\PSoC5/USBFS_1.c ****         case USBFS_1_EP2:
1134:Generated_Source\PSoC5/USBFS_1.c ****             USBFS_1_DmaChan[epNumber] = USBFS_1_ep2_DmaInitialize(USBFS_1_DMA_BYTES_PER_BURST,
1135:Generated_Source\PSoC5/USBFS_1.c ****                                                                                     USBFS_1_DMA_REQ
1136:Generated_Source\PSoC5/USBFS_1.c ****             break;
1137:Generated_Source\PSoC5/USBFS_1.c ****     #endif /* (USBFS_1_DMA2_ACTIVE) */
1138:Generated_Source\PSoC5/USBFS_1.c **** 
1139:Generated_Source\PSoC5/USBFS_1.c ****     #if (USBFS_1_DMA3_ACTIVE)
1140:Generated_Source\PSoC5/USBFS_1.c ****             case USBFS_1_EP3:
1141:Generated_Source\PSoC5/USBFS_1.c ****                 USBFS_1_DmaChan[epNumber] = USBFS_1_ep3_DmaInitialize(USBFS_1_DMA_BYTES_PER_BURST,
1142:Generated_Source\PSoC5/USBFS_1.c ****                                                                                         USBFS_1_DMA
1143:Generated_Source\PSoC5/USBFS_1.c ****             break;
1144:Generated_Source\PSoC5/USBFS_1.c ****     #endif /* (USBFS_1_DMA3_ACTIVE) */
1145:Generated_Source\PSoC5/USBFS_1.c **** 
ARM GAS  C:\Users\bchir\AppData\Local\Temp\ccbc5zmo.s 			page 34


1146:Generated_Source\PSoC5/USBFS_1.c ****     #if (USBFS_1_DMA4_ACTIVE)
1147:Generated_Source\PSoC5/USBFS_1.c ****             case USBFS_1_EP4:
1148:Generated_Source\PSoC5/USBFS_1.c ****                 USBFS_1_DmaChan[epNumber] = USBFS_1_ep4_DmaInitialize(USBFS_1_DMA_BYTES_PER_BURST,
1149:Generated_Source\PSoC5/USBFS_1.c ****                                                                                         USBFS_1_DMA
1150:Generated_Source\PSoC5/USBFS_1.c ****             break;
1151:Generated_Source\PSoC5/USBFS_1.c ****     #endif /* (USBFS_1_DMA4_ACTIVE) */
1152:Generated_Source\PSoC5/USBFS_1.c **** 
1153:Generated_Source\PSoC5/USBFS_1.c ****     #if (USBFS_1_DMA5_ACTIVE)
1154:Generated_Source\PSoC5/USBFS_1.c ****             case USBFS_1_EP5:
1155:Generated_Source\PSoC5/USBFS_1.c ****                 USBFS_1_DmaChan[epNumber] = USBFS_1_ep5_DmaInitialize(USBFS_1_DMA_BYTES_PER_BURST,
1156:Generated_Source\PSoC5/USBFS_1.c ****                                                                                         USBFS_1_DMA
1157:Generated_Source\PSoC5/USBFS_1.c ****             break;
1158:Generated_Source\PSoC5/USBFS_1.c ****     #endif /* (USBFS_1_DMA5_ACTIVE) */
1159:Generated_Source\PSoC5/USBFS_1.c **** 
1160:Generated_Source\PSoC5/USBFS_1.c ****     #if (USBFS_1_DMA6_ACTIVE)
1161:Generated_Source\PSoC5/USBFS_1.c ****         case USBFS_1_EP6:
1162:Generated_Source\PSoC5/USBFS_1.c ****             USBFS_1_DmaChan[epNumber] = USBFS_1_ep6_DmaInitialize(USBFS_1_DMA_BYTES_PER_BURST,
1163:Generated_Source\PSoC5/USBFS_1.c ****                                                                                     USBFS_1_DMA_REQ
1164:Generated_Source\PSoC5/USBFS_1.c ****             break;
1165:Generated_Source\PSoC5/USBFS_1.c ****     #endif /* (USBFS_1_DMA6_ACTIVE) */
1166:Generated_Source\PSoC5/USBFS_1.c **** 
1167:Generated_Source\PSoC5/USBFS_1.c ****     #if (USBFS_1_DMA7_ACTIVE)
1168:Generated_Source\PSoC5/USBFS_1.c ****         case USBFS_1_EP7:
1169:Generated_Source\PSoC5/USBFS_1.c ****                 USBFS_1_DmaChan[epNumber] = USBFS_1_ep7_DmaInitialize(USBFS_1_DMA_BYTES_PER_BURST,
1170:Generated_Source\PSoC5/USBFS_1.c ****                                                                                         USBFS_1_DMA
1171:Generated_Source\PSoC5/USBFS_1.c ****             break;
1172:Generated_Source\PSoC5/USBFS_1.c ****     #endif /* (USBFS_1_DMA7_ACTIVE) */
1173:Generated_Source\PSoC5/USBFS_1.c **** 
1174:Generated_Source\PSoC5/USBFS_1.c ****     #if (USBFS_1_DMA8_ACTIVE)
1175:Generated_Source\PSoC5/USBFS_1.c ****         case USBFS_1_EP8:
1176:Generated_Source\PSoC5/USBFS_1.c ****                 USBFS_1_DmaChan[epNumber] = USBFS_1_ep8_DmaInitialize(USBFS_1_DMA_BYTES_PER_BURST,
1177:Generated_Source\PSoC5/USBFS_1.c ****                                                                                         USBFS_1_DMA
1178:Generated_Source\PSoC5/USBFS_1.c ****             break;
1179:Generated_Source\PSoC5/USBFS_1.c ****     #endif /* (USBFS_1_DMA8_ACTIVE) */
1180:Generated_Source\PSoC5/USBFS_1.c **** 
1181:Generated_Source\PSoC5/USBFS_1.c ****         default:
1182:Generated_Source\PSoC5/USBFS_1.c ****             /* Do nothing for endpoints other than 1-8. */
1183:Generated_Source\PSoC5/USBFS_1.c ****             break;
1184:Generated_Source\PSoC5/USBFS_1.c ****         }
1185:Generated_Source\PSoC5/USBFS_1.c **** 
1186:Generated_Source\PSoC5/USBFS_1.c ****         if ((epNumber > USBFS_1_EP0) && (epNumber < USBFS_1_MAX_EP))
1187:Generated_Source\PSoC5/USBFS_1.c ****         {
1188:Generated_Source\PSoC5/USBFS_1.c ****             USBFS_1_DmaTd[epNumber] = CyDmaTdAllocate();
1189:Generated_Source\PSoC5/USBFS_1.c **** 
1190:Generated_Source\PSoC5/USBFS_1.c ****         #if (USBFS_1_EP_MANAGEMENT_DMA_AUTO && (USBFS_1_EP_DMA_AUTO_OPT == 0u))
1191:Generated_Source\PSoC5/USBFS_1.c ****             USBFS_1_DmaNextTd[epNumber] = CyDmaTdAllocate();
1192:Generated_Source\PSoC5/USBFS_1.c ****         #endif /* (USBFS_1_EP_MANAGEMENT_DMA_AUTO && (USBFS_1_EP_DMA_AUTO_OPT == 0u)) */
1193:Generated_Source\PSoC5/USBFS_1.c ****         }
1194:Generated_Source\PSoC5/USBFS_1.c ****     }
1195:Generated_Source\PSoC5/USBFS_1.c **** #endif /* (CY_PSOC4) */
1196:Generated_Source\PSoC5/USBFS_1.c **** 
1197:Generated_Source\PSoC5/USBFS_1.c ****     /***************************************************************************
1198:Generated_Source\PSoC5/USBFS_1.c ****     * Function Name: USBFS_1_Stop_DMA
1199:Generated_Source\PSoC5/USBFS_1.c ****     ************************************************************************//**
1200:Generated_Source\PSoC5/USBFS_1.c ****     *  
1201:Generated_Source\PSoC5/USBFS_1.c ****     *  This function stops DMA channel associated with endpoint. It is available 
1202:Generated_Source\PSoC5/USBFS_1.c ****     *  when the Endpoint Buffer Management parameter is set to DMA. Call this 
ARM GAS  C:\Users\bchir\AppData\Local\Temp\ccbc5zmo.s 			page 35


1203:Generated_Source\PSoC5/USBFS_1.c ****     *  function when endpoint direction is changed from IN to OUT or vice versa 
1204:Generated_Source\PSoC5/USBFS_1.c ****     *  to trigger DMA re-configuration when USBFS_1_LoadInEP() or 
1205:Generated_Source\PSoC5/USBFS_1.c ****     *  USBFS_1_ReadOutEP() functions are called the first time. 
1206:Generated_Source\PSoC5/USBFS_1.c ****     *  
1207:Generated_Source\PSoC5/USBFS_1.c ****     *  \param epNumber: The data endpoint number for which associated DMA 
1208:Generated_Source\PSoC5/USBFS_1.c ****     *  channel is stopped. The range of valid values is between 1 and 8. To stop 
1209:Generated_Source\PSoC5/USBFS_1.c ****     *  all DMAs associated with endpoints call this function with 
1210:Generated_Source\PSoC5/USBFS_1.c ****     *  USBFS_1_MAX_EP argument.
1211:Generated_Source\PSoC5/USBFS_1.c ****     *
1212:Generated_Source\PSoC5/USBFS_1.c ****     * \reentrant
1213:Generated_Source\PSoC5/USBFS_1.c ****     *  No.
1214:Generated_Source\PSoC5/USBFS_1.c ****     *
1215:Generated_Source\PSoC5/USBFS_1.c ****     ***************************************************************************/
1216:Generated_Source\PSoC5/USBFS_1.c ****     void USBFS_1_Stop_DMA(uint8 epNumber) 
1217:Generated_Source\PSoC5/USBFS_1.c ****     {
1218:Generated_Source\PSoC5/USBFS_1.c ****         uint8 i;
1219:Generated_Source\PSoC5/USBFS_1.c **** 
1220:Generated_Source\PSoC5/USBFS_1.c ****         i = (epNumber < USBFS_1_MAX_EP) ? epNumber : USBFS_1_EP1;
1221:Generated_Source\PSoC5/USBFS_1.c **** 
1222:Generated_Source\PSoC5/USBFS_1.c ****         do
1223:Generated_Source\PSoC5/USBFS_1.c ****         {
1224:Generated_Source\PSoC5/USBFS_1.c ****         #if (CY_PSOC4)
1225:Generated_Source\PSoC5/USBFS_1.c ****             if (0u != USBFS_1_DmaChan[i])
1226:Generated_Source\PSoC5/USBFS_1.c ****             {
1227:Generated_Source\PSoC5/USBFS_1.c ****                 USBFS_1_CyDmaChDisable(USBFS_1_DmaChan[i]);
1228:Generated_Source\PSoC5/USBFS_1.c ****             }
1229:Generated_Source\PSoC5/USBFS_1.c ****         #else
1230:Generated_Source\PSoC5/USBFS_1.c ****             if(USBFS_1_DmaTd[i] != DMA_INVALID_TD)
1231:Generated_Source\PSoC5/USBFS_1.c ****             {
1232:Generated_Source\PSoC5/USBFS_1.c ****                 (void) CyDmaChDisable(USBFS_1_DmaChan[i]);
1233:Generated_Source\PSoC5/USBFS_1.c ****                 CyDmaTdFree(USBFS_1_DmaTd[i]);
1234:Generated_Source\PSoC5/USBFS_1.c ****                 USBFS_1_DmaTd[i] = DMA_INVALID_TD;
1235:Generated_Source\PSoC5/USBFS_1.c ****             }
1236:Generated_Source\PSoC5/USBFS_1.c **** 
1237:Generated_Source\PSoC5/USBFS_1.c ****             #if (USBFS_1_EP_MANAGEMENT_DMA_AUTO && (USBFS_1_EP_DMA_AUTO_OPT == 0u))
1238:Generated_Source\PSoC5/USBFS_1.c ****                 if(USBFS_1_DmaNextTd[i] != DMA_INVALID_TD)
1239:Generated_Source\PSoC5/USBFS_1.c ****                 {
1240:Generated_Source\PSoC5/USBFS_1.c ****                     CyDmaTdFree(USBFS_1_DmaNextTd[i]);
1241:Generated_Source\PSoC5/USBFS_1.c ****                     USBFS_1_DmaNextTd[i] = DMA_INVALID_TD;
1242:Generated_Source\PSoC5/USBFS_1.c ****                 }
1243:Generated_Source\PSoC5/USBFS_1.c ****             #endif /* (USBFS_1_EP_MANAGEMENT_DMA_AUTO && (USBFS_1_EP_DMA_AUTO_OPT == 0u)) */
1244:Generated_Source\PSoC5/USBFS_1.c **** 
1245:Generated_Source\PSoC5/USBFS_1.c ****         #endif /* (CY_PSOC4) */
1246:Generated_Source\PSoC5/USBFS_1.c ****             i++;
1247:Generated_Source\PSoC5/USBFS_1.c ****         }
1248:Generated_Source\PSoC5/USBFS_1.c ****         while ((i < USBFS_1_MAX_EP) && (epNumber == USBFS_1_MAX_EP));
1249:Generated_Source\PSoC5/USBFS_1.c ****     }
1250:Generated_Source\PSoC5/USBFS_1.c **** #endif /* (USBFS_1_EP_MANAGEMENT_DMA) */
1251:Generated_Source\PSoC5/USBFS_1.c **** 
1252:Generated_Source\PSoC5/USBFS_1.c **** 
1253:Generated_Source\PSoC5/USBFS_1.c **** #if (CY_PSOC3 || CY_PSOC5)
1254:Generated_Source\PSoC5/USBFS_1.c **** #if (USBFS_1_EP_MANAGEMENT_DMA_AUTO && (USBFS_1_EP_DMA_AUTO_OPT == 0u))
1255:Generated_Source\PSoC5/USBFS_1.c ****     /***************************************************************************
1256:Generated_Source\PSoC5/USBFS_1.c ****     * Function Name: USBFS_1_LoadNextInEP
1257:Generated_Source\PSoC5/USBFS_1.c ****     ************************************************************************//**
1258:Generated_Source\PSoC5/USBFS_1.c ****     *
1259:Generated_Source\PSoC5/USBFS_1.c ****     * Summary:
ARM GAS  C:\Users\bchir\AppData\Local\Temp\ccbc5zmo.s 			page 36


1260:Generated_Source\PSoC5/USBFS_1.c ****     *  This internal function is used for IN endpoint DMA reconfiguration in
1261:Generated_Source\PSoC5/USBFS_1.c ****     *  Auto DMA mode.
1262:Generated_Source\PSoC5/USBFS_1.c ****     *
1263:Generated_Source\PSoC5/USBFS_1.c ****     * Parameters:
1264:Generated_Source\PSoC5/USBFS_1.c ****     *  epNumber: Contains the data endpoint number.
1265:Generated_Source\PSoC5/USBFS_1.c ****     *  mode:   0 - Configure DMA to send the the rest of data.
1266:Generated_Source\PSoC5/USBFS_1.c ****     *          1 - Configure DMA to repeat 2 last bytes of the first burst.
1267:Generated_Source\PSoC5/USBFS_1.c ****     *
1268:Generated_Source\PSoC5/USBFS_1.c ****     ***************************************************************************/
1269:Generated_Source\PSoC5/USBFS_1.c ****     void USBFS_1_LoadNextInEP(uint8 epNumber, uint8 mode) 
1270:Generated_Source\PSoC5/USBFS_1.c ****     {
1271:Generated_Source\PSoC5/USBFS_1.c ****         reg16 *convert;
1272:Generated_Source\PSoC5/USBFS_1.c **** 
1273:Generated_Source\PSoC5/USBFS_1.c ****         if (mode == 0u)
1274:Generated_Source\PSoC5/USBFS_1.c ****         {
1275:Generated_Source\PSoC5/USBFS_1.c ****             /* Configure DMA to send rest of data. */
1276:Generated_Source\PSoC5/USBFS_1.c ****             /* CyDmaTdSetConfiguration API is optimized to change transfer length only and configur
1277:Generated_Source\PSoC5/USBFS_1.c ****             convert = (reg16 *) &CY_DMA_TDMEM_STRUCT_PTR[USBFS_1_DmaTd[epNumber]].TD0[0u];
1278:Generated_Source\PSoC5/USBFS_1.c ****             /* Set transfer length. */
1279:Generated_Source\PSoC5/USBFS_1.c ****             CY_SET_REG16(convert, USBFS_1_inLength[epNumber] - USBFS_1_DMA_BYTES_PER_BURST);
1280:Generated_Source\PSoC5/USBFS_1.c ****             /* CyDmaTdSetAddress API is optimized to change source address only. */
1281:Generated_Source\PSoC5/USBFS_1.c ****             convert = (reg16 *) &CY_DMA_TDMEM_STRUCT_PTR[USBFS_1_DmaTd[epNumber]].TD1[0u];
1282:Generated_Source\PSoC5/USBFS_1.c ****             CY_SET_REG16(convert, LO16((uint32)USBFS_1_inDataPointer[epNumber] +
1283:Generated_Source\PSoC5/USBFS_1.c ****                                             USBFS_1_DMA_BYTES_PER_BURST));
1284:Generated_Source\PSoC5/USBFS_1.c ****             USBFS_1_inBufFull[epNumber] = 1u;
1285:Generated_Source\PSoC5/USBFS_1.c ****         }
1286:Generated_Source\PSoC5/USBFS_1.c ****         else
1287:Generated_Source\PSoC5/USBFS_1.c ****         {
1288:Generated_Source\PSoC5/USBFS_1.c ****             /* Configure DMA to repeat 2 last bytes of the first burst. */
1289:Generated_Source\PSoC5/USBFS_1.c ****             /* CyDmaTdSetConfiguration API is optimized to change transfer length only and configur
1290:Generated_Source\PSoC5/USBFS_1.c ****             convert = (reg16 *) &CY_DMA_TDMEM_STRUCT_PTR[USBFS_1_DmaTd[epNumber]].TD0[0u];
1291:Generated_Source\PSoC5/USBFS_1.c ****             /* Set transfer length. */
1292:Generated_Source\PSoC5/USBFS_1.c ****             CY_SET_REG16(convert, USBFS_1_DMA_BYTES_REPEAT);
1293:Generated_Source\PSoC5/USBFS_1.c ****             /* CyDmaTdSetAddress API is optimized to change source address only. */
1294:Generated_Source\PSoC5/USBFS_1.c ****             convert = (reg16 *) &CY_DMA_TDMEM_STRUCT_PTR[USBFS_1_DmaTd[epNumber]].TD1[0u];
1295:Generated_Source\PSoC5/USBFS_1.c ****             CY_SET_REG16(convert,  LO16((uint32)USBFS_1_inDataPointer[epNumber] +
1296:Generated_Source\PSoC5/USBFS_1.c ****                                    (USBFS_1_DMA_BYTES_PER_BURST - USBFS_1_DMA_BYTES_REPEAT)));
1297:Generated_Source\PSoC5/USBFS_1.c ****         }
1298:Generated_Source\PSoC5/USBFS_1.c **** 
1299:Generated_Source\PSoC5/USBFS_1.c ****         /* CyDmaChSetInitialTd API is optimized to initialize TD. */
1300:Generated_Source\PSoC5/USBFS_1.c ****         CY_DMA_CH_STRUCT_PTR[USBFS_1_DmaChan[epNumber]].basic_status[1u] = USBFS_1_DmaTd[epNumber];
1301:Generated_Source\PSoC5/USBFS_1.c ****     }
1302:Generated_Source\PSoC5/USBFS_1.c **** #endif /* (USBFS_1_EP_MANAGEMENT_DMA_AUTO && (USBFS_1_EP_DMA_AUTO_OPT == 0u)) */
1303:Generated_Source\PSoC5/USBFS_1.c **** #endif /* (CY_PSOC3 || CY_PSOC5) */
1304:Generated_Source\PSoC5/USBFS_1.c **** 
1305:Generated_Source\PSoC5/USBFS_1.c **** 
1306:Generated_Source\PSoC5/USBFS_1.c **** /*******************************************************************************
1307:Generated_Source\PSoC5/USBFS_1.c **** * Function Name: USBFS_1_LoadInEP
1308:Generated_Source\PSoC5/USBFS_1.c **** ****************************************************************************//**
1309:Generated_Source\PSoC5/USBFS_1.c **** *
1310:Generated_Source\PSoC5/USBFS_1.c **** *  This function performs different functionality depending on the Component’s
1311:Generated_Source\PSoC5/USBFS_1.c **** *  configured Endpoint Buffer Management. This parameter is defined in
1312:Generated_Source\PSoC5/USBFS_1.c **** *  the Descriptor Root in Component Configure window.
1313:Generated_Source\PSoC5/USBFS_1.c **** *
1314:Generated_Source\PSoC5/USBFS_1.c **** *  *Manual (Static/Dynamic Allocation):*
1315:Generated_Source\PSoC5/USBFS_1.c **** *  This function loads and enables the specified USB data endpoint for an IN
1316:Generated_Source\PSoC5/USBFS_1.c **** *  data transfer.
ARM GAS  C:\Users\bchir\AppData\Local\Temp\ccbc5zmo.s 			page 37


1317:Generated_Source\PSoC5/USBFS_1.c **** *
1318:Generated_Source\PSoC5/USBFS_1.c **** *  *DMA with Manual Buffer Management:*
1319:Generated_Source\PSoC5/USBFS_1.c **** *  Configures DMA for a data transfer from system RAM to endpoint buffer.
1320:Generated_Source\PSoC5/USBFS_1.c **** *  Generates request for a transfer.
1321:Generated_Source\PSoC5/USBFS_1.c **** *
1322:Generated_Source\PSoC5/USBFS_1.c **** *  *DMA with Automatic Buffer Management:*
1323:Generated_Source\PSoC5/USBFS_1.c **** *  Configures DMA. This is required only once, so it is done only when parameter
1324:Generated_Source\PSoC5/USBFS_1.c **** *  pData is not NULL. When the pData pointer is NULL, the function skips this
1325:Generated_Source\PSoC5/USBFS_1.c **** *  task. Sets Data ready status: This generates the first DMA transfer and
1326:Generated_Source\PSoC5/USBFS_1.c **** *  prepares data in endpoint buffer.
1327:Generated_Source\PSoC5/USBFS_1.c **** *
1328:Generated_Source\PSoC5/USBFS_1.c **** *  \param epNumber Contains the data endpoint number.
1329:Generated_Source\PSoC5/USBFS_1.c **** *            Valid values are between 1 and 8.
1330:Generated_Source\PSoC5/USBFS_1.c **** *  \param *pData A pointer to a data array from which the data for the endpoint space
1331:Generated_Source\PSoC5/USBFS_1.c **** *          is loaded.
1332:Generated_Source\PSoC5/USBFS_1.c **** *  \param length The number of bytes to transfer from the array and then send as
1333:Generated_Source\PSoC5/USBFS_1.c **** *          a result of an IN request. Valid values are between 0 and 512
1334:Generated_Source\PSoC5/USBFS_1.c **** *          (1023 for DMA with Automatic Buffer Management mode). The value 512
1335:Generated_Source\PSoC5/USBFS_1.c **** *          is applicable if only one endpoint is used.
1336:Generated_Source\PSoC5/USBFS_1.c **** *
1337:Generated_Source\PSoC5/USBFS_1.c **** *
1338:Generated_Source\PSoC5/USBFS_1.c **** * \reentrant
1339:Generated_Source\PSoC5/USBFS_1.c **** *  No.
1340:Generated_Source\PSoC5/USBFS_1.c **** *
1341:Generated_Source\PSoC5/USBFS_1.c **** *******************************************************************************/
1342:Generated_Source\PSoC5/USBFS_1.c **** void USBFS_1_LoadInEP(uint8 epNumber, const uint8 pData[], uint16 length)
1343:Generated_Source\PSoC5/USBFS_1.c ****                                                                         
1344:Generated_Source\PSoC5/USBFS_1.c **** {
 730              		.loc 1 1344 0
 731              		.cfi_startproc
 732              		@ args = 0, pretend = 0, frame = 0
 733              		@ frame_needed = 0, uses_anonymous_args = 0
 734              		@ link register save eliminated.
 735              	.LVL43:
1345:Generated_Source\PSoC5/USBFS_1.c ****     if ((epNumber > USBFS_1_EP0) && (epNumber < USBFS_1_MAX_EP))
 736              		.loc 1 1345 0
 737 0000 431E     		subs	r3, r0, #1
 738 0002 DBB2     		uxtb	r3, r3
 739 0004 072B     		cmp	r3, #7
 740 0006 3CD8     		bhi	.L58
1344:Generated_Source\PSoC5/USBFS_1.c ****     if ((epNumber > USBFS_1_EP0) && (epNumber < USBFS_1_MAX_EP))
 741              		.loc 1 1344 0
 742 0008 F0B4     		push	{r4, r5, r6, r7}
 743              		.cfi_def_cfa_offset 16
 744              		.cfi_offset 4, -16
 745              		.cfi_offset 5, -12
 746              		.cfi_offset 6, -8
 747              		.cfi_offset 7, -4
1346:Generated_Source\PSoC5/USBFS_1.c ****     {
1347:Generated_Source\PSoC5/USBFS_1.c ****     #if (!USBFS_1_EP_MANAGEMENT_DMA_AUTO)
1348:Generated_Source\PSoC5/USBFS_1.c ****         /* Limit length to available buffer USB IP buffer size.*/
1349:Generated_Source\PSoC5/USBFS_1.c ****         if (length > (USBFS_1_EPX_DATA_BUF_MAX - USBFS_1_EP[epNumber].buffOffset))
 748              		.loc 1 1349 0
 749 000a 0746     		mov	r7, r0
 750 000c 00EB4004 		add	r4, r0, r0, lsl #1
 751 0010 A300     		lsls	r3, r4, #2
 752 0012 1C4C     		ldr	r4, .L59
ARM GAS  C:\Users\bchir\AppData\Local\Temp\ccbc5zmo.s 			page 38


 753 0014 2344     		add	r3, r3, r4
 754 0016 DB88     		ldrh	r3, [r3, #6]
 755 0018 9BB2     		uxth	r3, r3
 756 001a C3F50073 		rsb	r3, r3, #512
 757 001e 9A42     		cmp	r2, r3
 758 0020 08D9     		bls	.L51
1350:Generated_Source\PSoC5/USBFS_1.c ****         {
1351:Generated_Source\PSoC5/USBFS_1.c ****             length = USBFS_1_EPX_DATA_BUF_MAX - USBFS_1_EP[epNumber].buffOffset;
 759              		.loc 1 1351 0
 760 0022 00EB4002 		add	r2, r0, r0, lsl #1
 761              	.LVL44:
 762 0026 9300     		lsls	r3, r2, #2
 763 0028 2344     		add	r3, r3, r4
 764 002a DA88     		ldrh	r2, [r3, #6]
 765 002c 92B2     		uxth	r2, r2
 766 002e C2F50072 		rsb	r2, r2, #512
 767 0032 92B2     		uxth	r2, r2
 768              	.LVL45:
 769              	.L51:
1352:Generated_Source\PSoC5/USBFS_1.c ****         }
1353:Generated_Source\PSoC5/USBFS_1.c ****     #endif /* (!USBFS_1_EP_MANAGEMENT_DMA_AUTO) */
1354:Generated_Source\PSoC5/USBFS_1.c **** 
1355:Generated_Source\PSoC5/USBFS_1.c ****         /* Set count and data toggle. */
1356:Generated_Source\PSoC5/USBFS_1.c ****         USBFS_1_SIE_EP_BASE.sieEp[epNumber].epCnt0 = (uint8) HI8(length) | USBFS_1_EP[epNumber].epT
 770              		.loc 1 1356 0
 771 0034 00EB4004 		add	r4, r0, r0, lsl #1
 772 0038 A300     		lsls	r3, r4, #2
 773 003a 124C     		ldr	r4, .L59
 774 003c 2344     		add	r3, r3, r4
 775 003e DB78     		ldrb	r3, [r3, #3]	@ zero_extendqisi2
 776 0040 43EA1223 		orr	r3, r3, r2, lsr #8
 777 0044 104D     		ldr	r5, .L59+4
 778 0046 0401     		lsls	r4, r0, #4
 779 0048 2E19     		adds	r6, r5, r4
 780 004a 2B55     		strb	r3, [r5, r4]
1357:Generated_Source\PSoC5/USBFS_1.c ****         USBFS_1_SIE_EP_BASE.sieEp[epNumber].epCnt1 = (uint8) LO8(length);
 781              		.loc 1 1357 0
 782 004c D3B2     		uxtb	r3, r2
 783 004e 7370     		strb	r3, [r6, #1]
1358:Generated_Source\PSoC5/USBFS_1.c **** 
1359:Generated_Source\PSoC5/USBFS_1.c ****     #if (USBFS_1_EP_MANAGEMENT_MANUAL)
1360:Generated_Source\PSoC5/USBFS_1.c ****         if (NULL != pData)
 784              		.loc 1 1360 0
 785 0050 39B9     		cbnz	r1, .L55
 786              	.LBB2:
 787 0052 09E0     		b	.L53
 788              	.LVL46:
 789              	.L54:
1361:Generated_Source\PSoC5/USBFS_1.c ****         {
1362:Generated_Source\PSoC5/USBFS_1.c **** 			/* Copy data using arbiter data register. */
1363:Generated_Source\PSoC5/USBFS_1.c ****             uint16 i;
1364:Generated_Source\PSoC5/USBFS_1.c ****             for (i = 0u; i < length; ++i)
1365:Generated_Source\PSoC5/USBFS_1.c ****             {
1366:Generated_Source\PSoC5/USBFS_1.c ****                 USBFS_1_ARB_EP_BASE.arbEp[epNumber].rwDr = pData[i];
 790              		.loc 1 1366 0 discriminator 3
 791 0054 CE5C     		ldrb	r6, [r1, r3]	@ zero_extendqisi2
 792 0056 3D01     		lsls	r5, r7, #4
ARM GAS  C:\Users\bchir\AppData\Local\Temp\ccbc5zmo.s 			page 39


 793 0058 0C4C     		ldr	r4, .L59+8
 794 005a 6655     		strb	r6, [r4, r5]
1364:Generated_Source\PSoC5/USBFS_1.c ****             {
 795              		.loc 1 1364 0 discriminator 3
 796 005c 0133     		adds	r3, r3, #1
 797              	.LVL47:
 798 005e 9BB2     		uxth	r3, r3
 799              	.LVL48:
 800 0060 00E0     		b	.L52
 801              	.LVL49:
 802              	.L55:
 803              	.LBE2:
 804 0062 0023     		movs	r3, #0
 805              	.L52:
 806              	.LVL50:
 807              	.LBB3:
1364:Generated_Source\PSoC5/USBFS_1.c ****             {
 808              		.loc 1 1364 0 is_stmt 0 discriminator 1
 809 0064 9A42     		cmp	r2, r3
 810 0066 F5D8     		bhi	.L54
 811              	.LVL51:
 812              	.L53:
 813              	.LBE3:
1367:Generated_Source\PSoC5/USBFS_1.c ****             }
1368:Generated_Source\PSoC5/USBFS_1.c ****         }
1369:Generated_Source\PSoC5/USBFS_1.c **** 
1370:Generated_Source\PSoC5/USBFS_1.c ****         /* IN endpoint buffer is full - read to be read. */
1371:Generated_Source\PSoC5/USBFS_1.c ****         USBFS_1_EP[epNumber].apiEpState = USBFS_1_NO_EVENT_PENDING;
 814              		.loc 1 1371 0 is_stmt 1
 815 0068 4200     		lsls	r2, r0, #1
 816              	.LVL52:
 817 006a 0244     		add	r2, r2, r0
 818 006c 9300     		lsls	r3, r2, #2
 819 006e 054A     		ldr	r2, .L59
 820 0070 1344     		add	r3, r3, r2
 821 0072 0022     		movs	r2, #0
 822 0074 5A70     		strb	r2, [r3, #1]
1372:Generated_Source\PSoC5/USBFS_1.c **** 
1373:Generated_Source\PSoC5/USBFS_1.c ****         /* Arm IN endpoint. */
1374:Generated_Source\PSoC5/USBFS_1.c ****         USBFS_1_SIE_EP_BASE.sieEp[epNumber].epCr0 = USBFS_1_EP[epNumber].epMode;
 823              		.loc 1 1374 0
 824 0076 5A79     		ldrb	r2, [r3, #5]	@ zero_extendqisi2
 825 0078 D2B2     		uxtb	r2, r2
 826 007a 0001     		lsls	r0, r0, #4
 827              	.LVL53:
 828 007c 044B     		ldr	r3, .L59+12
 829 007e 1A54     		strb	r2, [r3, r0]
1375:Generated_Source\PSoC5/USBFS_1.c **** 
1376:Generated_Source\PSoC5/USBFS_1.c ****     #else
1377:Generated_Source\PSoC5/USBFS_1.c **** 
1378:Generated_Source\PSoC5/USBFS_1.c ****         #if (CY_PSOC3 || CY_PSOC5LP)
1379:Generated_Source\PSoC5/USBFS_1.c ****             /* Initialize DMA if it was not initialized. */
1380:Generated_Source\PSoC5/USBFS_1.c ****             if (DMA_INVALID_TD == USBFS_1_DmaTd[epNumber])
1381:Generated_Source\PSoC5/USBFS_1.c ****             {
1382:Generated_Source\PSoC5/USBFS_1.c ****                 USBFS_1_InitEP_DMA(epNumber, pData);
1383:Generated_Source\PSoC5/USBFS_1.c ****             }
1384:Generated_Source\PSoC5/USBFS_1.c ****         #endif /* (CY_PSOC3 || CY_PSOC5LP) */
ARM GAS  C:\Users\bchir\AppData\Local\Temp\ccbc5zmo.s 			page 40


1385:Generated_Source\PSoC5/USBFS_1.c **** 
1386:Generated_Source\PSoC5/USBFS_1.c ****         #if (USBFS_1_EP_MANAGEMENT_DMA_MANUAL)
1387:Generated_Source\PSoC5/USBFS_1.c ****             /* IN endpoint buffer will be fully loaded by DMA shortly. */
1388:Generated_Source\PSoC5/USBFS_1.c ****             USBFS_1_EP[epNumber].apiEpState = USBFS_1_NO_EVENT_PENDING;
1389:Generated_Source\PSoC5/USBFS_1.c **** 
1390:Generated_Source\PSoC5/USBFS_1.c ****             if ((pData != NULL) && (length > 0u))
1391:Generated_Source\PSoC5/USBFS_1.c ****             {
1392:Generated_Source\PSoC5/USBFS_1.c ****             #if (CY_PSOC4)
1393:Generated_Source\PSoC5/USBFS_1.c ****                 uint32 channelNum = (uint32) USBFS_1_DmaChan[epNumber];
1394:Generated_Source\PSoC5/USBFS_1.c **** 
1395:Generated_Source\PSoC5/USBFS_1.c ****                 /* Disable DMA channel: start configuration. */
1396:Generated_Source\PSoC5/USBFS_1.c ****                 USBFS_1_CyDmaChDisable(channelNum);
1397:Generated_Source\PSoC5/USBFS_1.c **** 
1398:Generated_Source\PSoC5/USBFS_1.c ****                 /* Configure source and destination. */
1399:Generated_Source\PSoC5/USBFS_1.c ****                 USBFS_1_CyDmaSetSrcAddress(channelNum, USBFS_1_DMA_DESCR0, (void*) pData);
1400:Generated_Source\PSoC5/USBFS_1.c ****                 USBFS_1_CyDmaSetDstAddress(channelNum, USBFS_1_DMA_DESCR0, (void*) &USBFS_1_ARB_EP_
1401:Generated_Source\PSoC5/USBFS_1.c **** 
1402:Generated_Source\PSoC5/USBFS_1.c ****                 /* Configure DMA descriptor. */
1403:Generated_Source\PSoC5/USBFS_1.c ****                 --length;
1404:Generated_Source\PSoC5/USBFS_1.c ****                 USBFS_1_CyDmaSetConfiguration(channelNum, USBFS_1_DMA_DESCR0, USBFS_1_DMA_COMMON_CF
1405:Generated_Source\PSoC5/USBFS_1.c ****                                                         CYDMA_BYTE | CYDMA_ELEMENT_WORD | CYDMA_INC
1406:Generated_Source\PSoC5/USBFS_1.c **** 
1407:Generated_Source\PSoC5/USBFS_1.c ****                 /* Validate descriptor to execute on following DMA request. */
1408:Generated_Source\PSoC5/USBFS_1.c ****                 USBFS_1_CyDmaValidateDescriptor(channelNum, USBFS_1_DMA_DESCR0);
1409:Generated_Source\PSoC5/USBFS_1.c **** 
1410:Generated_Source\PSoC5/USBFS_1.c ****                 /* Enable DMA channel: configuration complete. */
1411:Generated_Source\PSoC5/USBFS_1.c ****                 USBFS_1_CyDmaChEnable(channelNum);
1412:Generated_Source\PSoC5/USBFS_1.c ****             #else
1413:Generated_Source\PSoC5/USBFS_1.c ****                 /* Configure DMA to transfer data. */
1414:Generated_Source\PSoC5/USBFS_1.c ****                 (void) CyDmaChDisable(USBFS_1_DmaChan[epNumber]);
1415:Generated_Source\PSoC5/USBFS_1.c ****                 (void) CyDmaTdSetConfiguration(USBFS_1_DmaTd[epNumber], length, CY_DMA_DISABLE_TD, 
1416:Generated_Source\PSoC5/USBFS_1.c ****                 (void) CyDmaTdSetAddress(USBFS_1_DmaTd[epNumber], LO16((uint32) pData), LO16((uint3
1417:Generated_Source\PSoC5/USBFS_1.c **** 
1418:Generated_Source\PSoC5/USBFS_1.c ****                 /* Enable DMA channel. */
1419:Generated_Source\PSoC5/USBFS_1.c ****                 (void) CyDmaChSetInitialTd(USBFS_1_DmaChan[epNumber], USBFS_1_DmaTd[epNumber]);
1420:Generated_Source\PSoC5/USBFS_1.c ****                 (void) CyDmaChEnable(USBFS_1_DmaChan[epNumber], 1u);
1421:Generated_Source\PSoC5/USBFS_1.c ****             #endif /* (CY_PSOC4) */
1422:Generated_Source\PSoC5/USBFS_1.c **** 
1423:Generated_Source\PSoC5/USBFS_1.c ****                 /* Generate DMA request. */
1424:Generated_Source\PSoC5/USBFS_1.c ****                 USBFS_1_ARB_EP_BASE.arbEp[epNumber].epCfg |=  (uint8)  USBFS_1_ARB_EPX_CFG_DMA_REQ;
1425:Generated_Source\PSoC5/USBFS_1.c ****                 USBFS_1_ARB_EP_BASE.arbEp[epNumber].epCfg &=  (uint8) ~USBFS_1_ARB_EPX_CFG_DMA_REQ;
1426:Generated_Source\PSoC5/USBFS_1.c **** 
1427:Generated_Source\PSoC5/USBFS_1.c ****                 /* IN endpoint will be armed in ARB_ISR(source: IN_BUF_FULL) after first DMA transf
1428:Generated_Source\PSoC5/USBFS_1.c ****             }
1429:Generated_Source\PSoC5/USBFS_1.c ****             else
1430:Generated_Source\PSoC5/USBFS_1.c ****             {
1431:Generated_Source\PSoC5/USBFS_1.c ****                 /* When zero-length packet: arm IN endpoint directly. */
1432:Generated_Source\PSoC5/USBFS_1.c ****                 USBFS_1_SIE_EP_BASE.sieEp[epNumber].epCr0 = USBFS_1_EP[epNumber].epMode;
1433:Generated_Source\PSoC5/USBFS_1.c ****             }
1434:Generated_Source\PSoC5/USBFS_1.c ****         #endif /* (USBFS_1_EP_MANAGEMENT_DMA_MANUAL) */
1435:Generated_Source\PSoC5/USBFS_1.c **** 
1436:Generated_Source\PSoC5/USBFS_1.c ****         #if (USBFS_1_EP_MANAGEMENT_DMA_AUTO)
1437:Generated_Source\PSoC5/USBFS_1.c ****             if (pData != NULL)
1438:Generated_Source\PSoC5/USBFS_1.c ****             {
1439:Generated_Source\PSoC5/USBFS_1.c ****             #if (CY_PSOC4)
1440:Generated_Source\PSoC5/USBFS_1.c ****                 uint32 channelNum = (uint32) USBFS_1_DmaChan[epNumber];
1441:Generated_Source\PSoC5/USBFS_1.c **** 
ARM GAS  C:\Users\bchir\AppData\Local\Temp\ccbc5zmo.s 			page 41


1442:Generated_Source\PSoC5/USBFS_1.c ****                 /* Store address of buffer. */
1443:Generated_Source\PSoC5/USBFS_1.c ****                 USBFS_1_DmaEpBufferAddrBackup[epNumber] = (uint32) pData;
1444:Generated_Source\PSoC5/USBFS_1.c **** 
1445:Generated_Source\PSoC5/USBFS_1.c ****                 /* Disable DMA channel: start configuration. */
1446:Generated_Source\PSoC5/USBFS_1.c ****                 USBFS_1_CyDmaChDisable(channelNum);
1447:Generated_Source\PSoC5/USBFS_1.c **** 
1448:Generated_Source\PSoC5/USBFS_1.c ****                 /* Set destination address. */
1449:Generated_Source\PSoC5/USBFS_1.c ****                 USBFS_1_CyDmaSetDstAddress(channelNum, USBFS_1_DMA_DESCR0, (void*) &USBFS_1_ARB_EP_
1450:Generated_Source\PSoC5/USBFS_1.c ****                 USBFS_1_CyDmaSetDstAddress(channelNum, USBFS_1_DMA_DESCR1, (void*) &USBFS_1_ARB_EP_
1451:Generated_Source\PSoC5/USBFS_1.c **** 
1452:Generated_Source\PSoC5/USBFS_1.c ****                 /* Configure DMA descriptor. */
1453:Generated_Source\PSoC5/USBFS_1.c ****                 USBFS_1_CyDmaSetConfiguration(channelNum, USBFS_1_DMA_DESCR0, USBFS_1_DMA_COMMON_CF
1454:Generated_Source\PSoC5/USBFS_1.c ****                                                         CYDMA_BYTE | CYDMA_ELEMENT_WORD | CYDMA_INC
1455:Generated_Source\PSoC5/USBFS_1.c **** 
1456:Generated_Source\PSoC5/USBFS_1.c ****                 /* Configure DMA descriptor. */
1457:Generated_Source\PSoC5/USBFS_1.c ****                 USBFS_1_CyDmaSetConfiguration(channelNum, USBFS_1_DMA_DESCR1, USBFS_1_DMA_COMMON_CF
1458:Generated_Source\PSoC5/USBFS_1.c ****                                                         CYDMA_BYTE | CYDMA_ELEMENT_WORD | CYDMA_INC
1459:Generated_Source\PSoC5/USBFS_1.c **** 
1460:Generated_Source\PSoC5/USBFS_1.c ****                 /* Enable interrupt from DMA channel. */
1461:Generated_Source\PSoC5/USBFS_1.c ****                 USBFS_1_CyDmaSetInterruptMask(channelNum);
1462:Generated_Source\PSoC5/USBFS_1.c **** 
1463:Generated_Source\PSoC5/USBFS_1.c **** 
1464:Generated_Source\PSoC5/USBFS_1.c ****                 /* Enable DMA channel: configuration complete. */
1465:Generated_Source\PSoC5/USBFS_1.c ****                 USBFS_1_CyDmaChEnable(channelNum);
1466:Generated_Source\PSoC5/USBFS_1.c **** 
1467:Generated_Source\PSoC5/USBFS_1.c ****             #else
1468:Generated_Source\PSoC5/USBFS_1.c ****                 (void) CyDmaChDisable(USBFS_1_DmaChan[epNumber]);
1469:Generated_Source\PSoC5/USBFS_1.c **** 
1470:Generated_Source\PSoC5/USBFS_1.c ****                 #if (USBFS_1_EP_DMA_AUTO_OPT == 0u)
1471:Generated_Source\PSoC5/USBFS_1.c ****                     USBFS_1_inLength[epNumber] = length;
1472:Generated_Source\PSoC5/USBFS_1.c ****                     USBFS_1_inDataPointer[epNumber] = pData;
1473:Generated_Source\PSoC5/USBFS_1.c **** 
1474:Generated_Source\PSoC5/USBFS_1.c ****                     /* Configure DMA to send data only for first burst */
1475:Generated_Source\PSoC5/USBFS_1.c ****                     (void) CyDmaTdSetConfiguration(USBFS_1_DmaTd[epNumber],
1476:Generated_Source\PSoC5/USBFS_1.c ****                         (length > USBFS_1_DMA_BYTES_PER_BURST) ? USBFS_1_DMA_BYTES_PER_BURST : leng
1477:Generated_Source\PSoC5/USBFS_1.c ****                         USBFS_1_DmaNextTd[epNumber], TD_TERMIN_EN | TD_INC_SRC_ADR);
1478:Generated_Source\PSoC5/USBFS_1.c ****                     (void) CyDmaTdSetAddress(USBFS_1_DmaTd[epNumber], LO16((uint32) pData),
1479:Generated_Source\PSoC5/USBFS_1.c ****                                                                                LO16((uint32) &USBFS
1480:Generated_Source\PSoC5/USBFS_1.c **** 
1481:Generated_Source\PSoC5/USBFS_1.c ****                     /* The second TD will be executed only when the first one fails.
1482:Generated_Source\PSoC5/USBFS_1.c ****                     *  The intention of this TD is to generate NRQ interrupt
1483:Generated_Source\PSoC5/USBFS_1.c ****                     *  and repeat 2 last bytes of the first burst.
1484:Generated_Source\PSoC5/USBFS_1.c ****                     */
1485:Generated_Source\PSoC5/USBFS_1.c ****                     (void) CyDmaTdSetConfiguration(USBFS_1_DmaNextTd[epNumber], 1u,
1486:Generated_Source\PSoC5/USBFS_1.c ****                                                    USBFS_1_DmaNextTd[epNumber],
1487:Generated_Source\PSoC5/USBFS_1.c ****                                                    USBFS_1_epX_TD_TERMOUT_EN[epNumber]);
1488:Generated_Source\PSoC5/USBFS_1.c **** 
1489:Generated_Source\PSoC5/USBFS_1.c ****                     /* Configure DmaNextTd to clear Data Ready status. */
1490:Generated_Source\PSoC5/USBFS_1.c ****                     (void) CyDmaTdSetAddress(USBFS_1_DmaNextTd[epNumber], LO16((uint32) &clearInDat
1491:Generated_Source\PSoC5/USBFS_1.c ****                                                                                    LO16((uint32) &U
1492:Generated_Source\PSoC5/USBFS_1.c ****                 #else
1493:Generated_Source\PSoC5/USBFS_1.c ****                     /* Configure DMA to send all data. */
1494:Generated_Source\PSoC5/USBFS_1.c ****                     (void) CyDmaTdSetConfiguration(USBFS_1_DmaTd[epNumber], length,
1495:Generated_Source\PSoC5/USBFS_1.c ****                                                    USBFS_1_DmaTd[epNumber], TD_TERMIN_EN | TD_INC_S
1496:Generated_Source\PSoC5/USBFS_1.c ****                     (void) CyDmaTdSetAddress(USBFS_1_DmaTd[epNumber], LO16((uint32) pData),
1497:Generated_Source\PSoC5/USBFS_1.c ****                                                                                LO16((uint32) &USBFS
1498:Generated_Source\PSoC5/USBFS_1.c ****                 #endif /* (USBFS_1_EP_DMA_AUTO_OPT == 0u) */
ARM GAS  C:\Users\bchir\AppData\Local\Temp\ccbc5zmo.s 			page 42


1499:Generated_Source\PSoC5/USBFS_1.c **** 
1500:Generated_Source\PSoC5/USBFS_1.c ****                 /* Clear any potential pending DMA requests before starting DMA channel to transfer
1501:Generated_Source\PSoC5/USBFS_1.c ****                 (void) CyDmaClearPendingDrq(USBFS_1_DmaChan[epNumber]);
1502:Generated_Source\PSoC5/USBFS_1.c ****                 /* Enable DMA. */
1503:Generated_Source\PSoC5/USBFS_1.c ****                 (void) CyDmaChSetInitialTd(USBFS_1_DmaChan[epNumber], USBFS_1_DmaTd[epNumber]);
1504:Generated_Source\PSoC5/USBFS_1.c ****                 (void) CyDmaChEnable(USBFS_1_DmaChan[epNumber], 1u);
1505:Generated_Source\PSoC5/USBFS_1.c ****             #endif /* (CY_PSOC4) */
1506:Generated_Source\PSoC5/USBFS_1.c ****             }
1507:Generated_Source\PSoC5/USBFS_1.c ****             else
1508:Generated_Source\PSoC5/USBFS_1.c ****             {
1509:Generated_Source\PSoC5/USBFS_1.c ****                 /* IN endpoint buffer (32 bytes) will shortly be preloaded by DMA. */
1510:Generated_Source\PSoC5/USBFS_1.c ****                 USBFS_1_EP[epNumber].apiEpState = USBFS_1_NO_EVENT_PENDING;
1511:Generated_Source\PSoC5/USBFS_1.c **** 
1512:Generated_Source\PSoC5/USBFS_1.c ****                 if (length > 0u)
1513:Generated_Source\PSoC5/USBFS_1.c ****                 {
1514:Generated_Source\PSoC5/USBFS_1.c ****                 #if (CY_PSOC4)
1515:Generated_Source\PSoC5/USBFS_1.c ****                     uint32 lengthDescr0, lengthDescr1;
1516:Generated_Source\PSoC5/USBFS_1.c ****                     uint32 channelNum = (uint32) USBFS_1_DmaChan[epNumber];
1517:Generated_Source\PSoC5/USBFS_1.c **** 
1518:Generated_Source\PSoC5/USBFS_1.c ****                     /* Get number of full bursts. */
1519:Generated_Source\PSoC5/USBFS_1.c ****                     USBFS_1_DmaEpBurstCnt[epNumber] = (uint8) (length / USBFS_1_DMA_BYTES_PER_BURST
1520:Generated_Source\PSoC5/USBFS_1.c **** 
1521:Generated_Source\PSoC5/USBFS_1.c ****                     /* Get number of elements in the last burst. */
1522:Generated_Source\PSoC5/USBFS_1.c ****                     USBFS_1_DmaEpLastBurstEl[epNumber] = (uint8) (length % USBFS_1_DMA_BYTES_PER_BU
1523:Generated_Source\PSoC5/USBFS_1.c **** 
1524:Generated_Source\PSoC5/USBFS_1.c ****                     /* Get total number of bursts. */
1525:Generated_Source\PSoC5/USBFS_1.c ****                     USBFS_1_DmaEpBurstCnt[epNumber] += (0u != USBFS_1_DmaEpLastBurstEl[epNumber]) ?
1526:Generated_Source\PSoC5/USBFS_1.c **** 
1527:Generated_Source\PSoC5/USBFS_1.c ****                     /* Adjust number of data elements transferred in last burst. */
1528:Generated_Source\PSoC5/USBFS_1.c ****                     USBFS_1_DmaEpLastBurstEl[epNumber] = (0u != USBFS_1_DmaEpLastBurstEl[epNumber])
1529:Generated_Source\PSoC5/USBFS_1.c ****                                                                           (USBFS_1_DmaEpLastBurstEl
1530:Generated_Source\PSoC5/USBFS_1.c ****                                                                           (USBFS_1_DMA_BYTES_PER_BU
1531:Generated_Source\PSoC5/USBFS_1.c **** 
1532:Generated_Source\PSoC5/USBFS_1.c ****                     /* Get number of data elements to transfer for descriptor 0 and 1. */
1533:Generated_Source\PSoC5/USBFS_1.c ****                     lengthDescr0 = (1u == USBFS_1_DmaEpBurstCnt[epNumber]) ? USBFS_1_DmaEpLastBurst
1534:Generated_Source\PSoC5/USBFS_1.c ****                     lengthDescr1 = (2u == USBFS_1_DmaEpBurstCnt[epNumber]) ? USBFS_1_DmaEpLastBurst
1535:Generated_Source\PSoC5/USBFS_1.c **** 
1536:Generated_Source\PSoC5/USBFS_1.c **** 
1537:Generated_Source\PSoC5/USBFS_1.c ****                     /* Mark which descriptor is last one to execute. */
1538:Generated_Source\PSoC5/USBFS_1.c ****                     USBFS_1_DmaEpLastBurstEl[epNumber] |= (0u != (USBFS_1_DmaEpBurstCnt[epNumber] &
1539:Generated_Source\PSoC5/USBFS_1.c ****                                                                             USBFS_1_DMA_DESCR0_MASK
1540:Generated_Source\PSoC5/USBFS_1.c **** 
1541:Generated_Source\PSoC5/USBFS_1.c ****                     /* Restore DMA settings for current transfer. */
1542:Generated_Source\PSoC5/USBFS_1.c ****                     USBFS_1_CyDmaChDisable(channelNum);
1543:Generated_Source\PSoC5/USBFS_1.c **** 
1544:Generated_Source\PSoC5/USBFS_1.c ****                     /* Restore destination address for input endpoint. */
1545:Generated_Source\PSoC5/USBFS_1.c ****                     USBFS_1_CyDmaSetSrcAddress(channelNum, USBFS_1_DMA_DESCR0, (void*) ((uint32) US
1546:Generated_Source\PSoC5/USBFS_1.c ****                     USBFS_1_CyDmaSetSrcAddress(channelNum, USBFS_1_DMA_DESCR1, (void*) ((uint32) US
1547:Generated_Source\PSoC5/USBFS_1.c ****                                                                                                    
1548:Generated_Source\PSoC5/USBFS_1.c **** 
1549:Generated_Source\PSoC5/USBFS_1.c ****                     /* Set number of elements to transfer. */
1550:Generated_Source\PSoC5/USBFS_1.c ****                     USBFS_1_CyDmaSetNumDataElements(channelNum, USBFS_1_DMA_DESCR0, lengthDescr0);
1551:Generated_Source\PSoC5/USBFS_1.c ****                     USBFS_1_CyDmaSetNumDataElements(channelNum, USBFS_1_DMA_DESCR1, lengthDescr1);
1552:Generated_Source\PSoC5/USBFS_1.c **** 
1553:Generated_Source\PSoC5/USBFS_1.c ****                     /* Validate descriptor 0 and command to start with it. */
1554:Generated_Source\PSoC5/USBFS_1.c ****                     USBFS_1_CyDmaValidateDescriptor(channelNum, USBFS_1_DMA_DESCR0);
1555:Generated_Source\PSoC5/USBFS_1.c ****                     USBFS_1_CyDmaSetDescriptor0Next(channelNum);
ARM GAS  C:\Users\bchir\AppData\Local\Temp\ccbc5zmo.s 			page 43


1556:Generated_Source\PSoC5/USBFS_1.c **** 
1557:Generated_Source\PSoC5/USBFS_1.c ****                     /* Validate descriptor 1. */
1558:Generated_Source\PSoC5/USBFS_1.c ****                     if (USBFS_1_DmaEpBurstCnt[epNumber] > 1u)
1559:Generated_Source\PSoC5/USBFS_1.c ****                     {
1560:Generated_Source\PSoC5/USBFS_1.c ****                         USBFS_1_CyDmaValidateDescriptor(channelNum, USBFS_1_DMA_DESCR1); 
1561:Generated_Source\PSoC5/USBFS_1.c ****                     }                   
1562:Generated_Source\PSoC5/USBFS_1.c **** 
1563:Generated_Source\PSoC5/USBFS_1.c ****                     /* Adjust burst counter taking to account: 2 valid descriptors and interrupt tr
1564:Generated_Source\PSoC5/USBFS_1.c ****                     USBFS_1_DmaEpBurstCnt[epNumber] = USBFS_1_DMA_GET_BURST_CNT(USBFS_1_DmaEpBurstC
1565:Generated_Source\PSoC5/USBFS_1.c **** 
1566:Generated_Source\PSoC5/USBFS_1.c ****                     /* Enable DMA channel: configuration complete. */
1567:Generated_Source\PSoC5/USBFS_1.c ****                     USBFS_1_CyDmaChEnable(channelNum);
1568:Generated_Source\PSoC5/USBFS_1.c **** 
1569:Generated_Source\PSoC5/USBFS_1.c ****                 #elif (USBFS_1_EP_DMA_AUTO_OPT == 0u)
1570:Generated_Source\PSoC5/USBFS_1.c ****                     USBFS_1_inLength[epNumber]  = length;
1571:Generated_Source\PSoC5/USBFS_1.c ****                     USBFS_1_inBufFull[epNumber] = 0u;
1572:Generated_Source\PSoC5/USBFS_1.c **** 
1573:Generated_Source\PSoC5/USBFS_1.c ****                     (void) CyDmaChDisable(USBFS_1_DmaChan[epNumber]);
1574:Generated_Source\PSoC5/USBFS_1.c ****                     /* Configure DMA to send data only for first burst. */
1575:Generated_Source\PSoC5/USBFS_1.c ****                     (void) CyDmaTdSetConfiguration(
1576:Generated_Source\PSoC5/USBFS_1.c ****                         USBFS_1_DmaTd[epNumber], (length > USBFS_1_DMA_BYTES_PER_BURST) ?
1577:Generated_Source\PSoC5/USBFS_1.c ****                         USBFS_1_DMA_BYTES_PER_BURST : length,
1578:Generated_Source\PSoC5/USBFS_1.c ****                         USBFS_1_DmaNextTd[epNumber], TD_TERMIN_EN | TD_INC_SRC_ADR );
1579:Generated_Source\PSoC5/USBFS_1.c ****                     (void) CyDmaTdSetAddress(USBFS_1_DmaTd[epNumber], LO16((uint32)  USBFS_1_inData
1580:Generated_Source\PSoC5/USBFS_1.c ****                                                                                LO16((uint32) &USBFS
1581:Generated_Source\PSoC5/USBFS_1.c ****                     /* Clear Any potential pending DMA requests before starting DMA channel to tran
1582:Generated_Source\PSoC5/USBFS_1.c ****                     (void) CyDmaClearPendingDrq(USBFS_1_DmaChan[epNumber]);
1583:Generated_Source\PSoC5/USBFS_1.c ****                     /* Enable DMA. */
1584:Generated_Source\PSoC5/USBFS_1.c ****                     (void) CyDmaChSetInitialTd(USBFS_1_DmaChan[epNumber], USBFS_1_DmaTd[epNumber]);
1585:Generated_Source\PSoC5/USBFS_1.c ****                     (void) CyDmaChEnable(USBFS_1_DmaChan[epNumber], 1u);
1586:Generated_Source\PSoC5/USBFS_1.c ****                 #endif /* (CY_PSOC4) */
1587:Generated_Source\PSoC5/USBFS_1.c **** 
1588:Generated_Source\PSoC5/USBFS_1.c ****                 #if !defined (USBFS_1_MANUAL_IN_EP_ARM)
1589:Generated_Source\PSoC5/USBFS_1.c ****                     /* Set IN data ready to generate DMA request to load data into endpoint buffer.
1590:Generated_Source\PSoC5/USBFS_1.c ****                     USBFS_1_ARB_EP_BASE.arbEp[epNumber].epCfg |= USBFS_1_ARB_EPX_CFG_IN_DATA_RDY;
1591:Generated_Source\PSoC5/USBFS_1.c ****                 #endif  /* (USBFS_1_MANUAL_IN_EP_ARM) */
1592:Generated_Source\PSoC5/USBFS_1.c **** 
1593:Generated_Source\PSoC5/USBFS_1.c ****                     /* IN endpoint will be armed in ARB_ISR(source: IN_BUF_FULL) after first DMA tr
1594:Generated_Source\PSoC5/USBFS_1.c ****                 }
1595:Generated_Source\PSoC5/USBFS_1.c ****                 else
1596:Generated_Source\PSoC5/USBFS_1.c ****                 {
1597:Generated_Source\PSoC5/USBFS_1.c ****                     /* When zero-length packet: arm IN endpoint directly. */
1598:Generated_Source\PSoC5/USBFS_1.c ****                     USBFS_1_SIE_EP_BASE.sieEp[epNumber].epCr0 = USBFS_1_EP[epNumber].epMode;
1599:Generated_Source\PSoC5/USBFS_1.c ****                 }
1600:Generated_Source\PSoC5/USBFS_1.c ****             }
1601:Generated_Source\PSoC5/USBFS_1.c ****         #endif /* (USBFS_1_EP_MANAGEMENT_DMA_AUTO) */
1602:Generated_Source\PSoC5/USBFS_1.c ****     #endif /* (USBFS_1_EP_MANAGEMENT_MANUAL) */
1603:Generated_Source\PSoC5/USBFS_1.c ****     }
1604:Generated_Source\PSoC5/USBFS_1.c **** }
 830              		.loc 1 1604 0
 831 0080 F0BC     		pop	{r4, r5, r6, r7}
 832              		.cfi_restore 7
 833              		.cfi_restore 6
 834              		.cfi_restore 5
 835              		.cfi_restore 4
 836              		.cfi_def_cfa_offset 0
 837              	.L58:
ARM GAS  C:\Users\bchir\AppData\Local\Temp\ccbc5zmo.s 			page 44


 838 0082 7047     		bx	lr
 839              	.L60:
 840              		.align	2
 841              	.L59:
 842 0084 00000000 		.word	USBFS_1_EP
 843 0088 FC5F0040 		.word	1073766396
 844 008c 78600040 		.word	1073766520
 845 0090 FE5F0040 		.word	1073766398
 846              		.cfi_endproc
 847              	.LFE11:
 848              		.size	USBFS_1_LoadInEP, .-USBFS_1_LoadInEP
 849              		.section	.text.USBFS_1_EnableOutEP,"ax",%progbits
 850              		.align	2
 851              		.global	USBFS_1_EnableOutEP
 852              		.thumb
 853              		.thumb_func
 854              		.type	USBFS_1_EnableOutEP, %function
 855              	USBFS_1_EnableOutEP:
 856              	.LFB13:
1605:Generated_Source\PSoC5/USBFS_1.c **** 
1606:Generated_Source\PSoC5/USBFS_1.c **** 
1607:Generated_Source\PSoC5/USBFS_1.c **** /*******************************************************************************
1608:Generated_Source\PSoC5/USBFS_1.c **** * Function Name: USBFS_1_ReadOutEP
1609:Generated_Source\PSoC5/USBFS_1.c **** ****************************************************************************//**
1610:Generated_Source\PSoC5/USBFS_1.c **** *
1611:Generated_Source\PSoC5/USBFS_1.c **** *   This function performs different functionality depending on the Component’s
1612:Generated_Source\PSoC5/USBFS_1.c **** *   configured Endpoint Buffer Management. This parameter is defined in the
1613:Generated_Source\PSoC5/USBFS_1.c **** *   Descriptor Root in Component Configure window.
1614:Generated_Source\PSoC5/USBFS_1.c **** *
1615:Generated_Source\PSoC5/USBFS_1.c **** *   *Manual (Static/Dynamic Allocation):*
1616:Generated_Source\PSoC5/USBFS_1.c **** *   This function moves the specified number of bytes from endpoint buffer to
1617:Generated_Source\PSoC5/USBFS_1.c **** *   system RAM. The number of bytes actually transferred from endpoint buffer to
1618:Generated_Source\PSoC5/USBFS_1.c **** *   system RAM is the lesser of the actual number of bytes sent by the host or
1619:Generated_Source\PSoC5/USBFS_1.c **** *   the number of bytes requested by the length parameter.
1620:Generated_Source\PSoC5/USBFS_1.c **** *
1621:Generated_Source\PSoC5/USBFS_1.c **** *   *DMA with Manual Buffer Management:*
1622:Generated_Source\PSoC5/USBFS_1.c **** *   Configure DMA to transfer data from endpoint buffer to system RAM. Generate
1623:Generated_Source\PSoC5/USBFS_1.c **** *   a DMA request. The firmware must wait until the DMA completes the data
1624:Generated_Source\PSoC5/USBFS_1.c **** *   transfer after calling the USBFS_1_ReadOutEP() API. For example,
1625:Generated_Source\PSoC5/USBFS_1.c **** *   by checking EPstate:
1626:Generated_Source\PSoC5/USBFS_1.c **** *
1627:Generated_Source\PSoC5/USBFS_1.c **** *   \snippet /USBFS_sut_02.cydsn/main.c checking EPstatey
1628:Generated_Source\PSoC5/USBFS_1.c **** *
1629:Generated_Source\PSoC5/USBFS_1.c **** *   The USBFS_EnableOutEP() has to be called to allow host to write data into
1630:Generated_Source\PSoC5/USBFS_1.c **** *   the endpoint buffer after DMA has completed transfer data from OUT endpoint
1631:Generated_Source\PSoC5/USBFS_1.c **** *   buffer to SRAM.
1632:Generated_Source\PSoC5/USBFS_1.c **** *
1633:Generated_Source\PSoC5/USBFS_1.c **** *   *DMA with Automatic Buffer Management:*
1634:Generated_Source\PSoC5/USBFS_1.c **** *   Configure DMA. This is required only once and automatically generates DMA
1635:Generated_Source\PSoC5/USBFS_1.c **** *   requests as data arrives
1636:Generated_Source\PSoC5/USBFS_1.c **** *
1637:Generated_Source\PSoC5/USBFS_1.c **** *  \param epNumber: Contains the data endpoint number.
1638:Generated_Source\PSoC5/USBFS_1.c **** *            Valid values are between 1 and 8.
1639:Generated_Source\PSoC5/USBFS_1.c **** *  \param pData: A pointer to a data array from which the data for the endpoint
1640:Generated_Source\PSoC5/USBFS_1.c **** *         space is loaded.
1641:Generated_Source\PSoC5/USBFS_1.c **** *  \param length: The number of bytes to transfer from the USB Out endpoint and
1642:Generated_Source\PSoC5/USBFS_1.c **** *          loads it into data array. Valid values are between 0 and 1023. The
ARM GAS  C:\Users\bchir\AppData\Local\Temp\ccbc5zmo.s 			page 45


1643:Generated_Source\PSoC5/USBFS_1.c **** *          function moves fewer than the requested number of bytes if the host
1644:Generated_Source\PSoC5/USBFS_1.c **** *          sends fewer bytes than requested.
1645:Generated_Source\PSoC5/USBFS_1.c **** *
1646:Generated_Source\PSoC5/USBFS_1.c **** * \return
1647:Generated_Source\PSoC5/USBFS_1.c **** *  Number of bytes received, 0 for an invalid endpoint.
1648:Generated_Source\PSoC5/USBFS_1.c **** *
1649:Generated_Source\PSoC5/USBFS_1.c **** * \reentrant
1650:Generated_Source\PSoC5/USBFS_1.c **** *  No.
1651:Generated_Source\PSoC5/USBFS_1.c **** *
1652:Generated_Source\PSoC5/USBFS_1.c **** *******************************************************************************/
1653:Generated_Source\PSoC5/USBFS_1.c **** uint16 USBFS_1_ReadOutEP(uint8 epNumber, uint8 pData[], uint16 length)
1654:Generated_Source\PSoC5/USBFS_1.c ****                                                                         
1655:Generated_Source\PSoC5/USBFS_1.c **** {
1656:Generated_Source\PSoC5/USBFS_1.c ****     if ((pData != NULL) && (epNumber > USBFS_1_EP0) && (epNumber < USBFS_1_MAX_EP))
1657:Generated_Source\PSoC5/USBFS_1.c ****     {
1658:Generated_Source\PSoC5/USBFS_1.c ****     #if (!USBFS_1_EP_MANAGEMENT_DMA_AUTO)
1659:Generated_Source\PSoC5/USBFS_1.c ****         /* Adjust requested length to available data. */
1660:Generated_Source\PSoC5/USBFS_1.c ****         length = (length > USBFS_1_GetEPCount(epNumber)) ? USBFS_1_GetEPCount(epNumber) : length;
1661:Generated_Source\PSoC5/USBFS_1.c ****     #endif /* (!USBFS_1_EP_MANAGEMENT_DMA_AUTO) */
1662:Generated_Source\PSoC5/USBFS_1.c **** 
1663:Generated_Source\PSoC5/USBFS_1.c ****     #if (USBFS_1_EP_MANAGEMENT_MANUAL)
1664:Generated_Source\PSoC5/USBFS_1.c ****         {
1665:Generated_Source\PSoC5/USBFS_1.c ****             /* Copy data using arbiter data register. */
1666:Generated_Source\PSoC5/USBFS_1.c ****             uint16 i;
1667:Generated_Source\PSoC5/USBFS_1.c ****             for (i = 0u; i < length; ++i)
1668:Generated_Source\PSoC5/USBFS_1.c ****             {
1669:Generated_Source\PSoC5/USBFS_1.c ****                 pData[i] = (uint8) USBFS_1_ARB_EP_BASE.arbEp[epNumber].rwDr;
1670:Generated_Source\PSoC5/USBFS_1.c ****             }
1671:Generated_Source\PSoC5/USBFS_1.c ****         }
1672:Generated_Source\PSoC5/USBFS_1.c **** 
1673:Generated_Source\PSoC5/USBFS_1.c ****         /* Arm OUT endpoint after data has been copied from endpoint buffer. */
1674:Generated_Source\PSoC5/USBFS_1.c ****         USBFS_1_EnableOutEP(epNumber);
1675:Generated_Source\PSoC5/USBFS_1.c ****     #else
1676:Generated_Source\PSoC5/USBFS_1.c **** 
1677:Generated_Source\PSoC5/USBFS_1.c ****         #if (CY_PSOC3 || CY_PSOC5LP)
1678:Generated_Source\PSoC5/USBFS_1.c ****             /* Initialize DMA if it was not initialized. */
1679:Generated_Source\PSoC5/USBFS_1.c ****             if (DMA_INVALID_TD == USBFS_1_DmaTd[epNumber])
1680:Generated_Source\PSoC5/USBFS_1.c ****             {
1681:Generated_Source\PSoC5/USBFS_1.c ****                 USBFS_1_InitEP_DMA(epNumber, pData);
1682:Generated_Source\PSoC5/USBFS_1.c ****             }
1683:Generated_Source\PSoC5/USBFS_1.c ****         #endif /* (CY_PSOC3 || CY_PSOC5LP) */
1684:Generated_Source\PSoC5/USBFS_1.c **** 
1685:Generated_Source\PSoC5/USBFS_1.c ****         #if (USBFS_1_EP_MANAGEMENT_DMA_MANUAL)
1686:Generated_Source\PSoC5/USBFS_1.c ****         #if (CY_PSOC4)
1687:Generated_Source\PSoC5/USBFS_1.c ****         {
1688:Generated_Source\PSoC5/USBFS_1.c ****             uint32 channelNum = (uint32) USBFS_1_DmaChan[epNumber];
1689:Generated_Source\PSoC5/USBFS_1.c **** 
1690:Generated_Source\PSoC5/USBFS_1.c ****             /* Disable DMA channel: start configuration. */
1691:Generated_Source\PSoC5/USBFS_1.c ****             USBFS_1_CyDmaChDisable(channelNum);
1692:Generated_Source\PSoC5/USBFS_1.c **** 
1693:Generated_Source\PSoC5/USBFS_1.c ****             /* Configure source and destination. */
1694:Generated_Source\PSoC5/USBFS_1.c ****             USBFS_1_CyDmaSetSrcAddress(channelNum, USBFS_1_DMA_DESCR0, (void*) &USBFS_1_ARB_EP_BASE
1695:Generated_Source\PSoC5/USBFS_1.c ****             USBFS_1_CyDmaSetDstAddress(channelNum, USBFS_1_DMA_DESCR0, (void*) pData);
1696:Generated_Source\PSoC5/USBFS_1.c **** 
1697:Generated_Source\PSoC5/USBFS_1.c ****             /* Configure DMA descriptor. */
1698:Generated_Source\PSoC5/USBFS_1.c ****             USBFS_1_CyDmaSetConfiguration(channelNum, USBFS_1_DMA_DESCR0, USBFS_1_DMA_COMMON_CFG | 
1699:Generated_Source\PSoC5/USBFS_1.c ****                                                     CYDMA_BYTE | CYDMA_WORD_ELEMENT | CYDMA_INC_DST
ARM GAS  C:\Users\bchir\AppData\Local\Temp\ccbc5zmo.s 			page 46


1700:Generated_Source\PSoC5/USBFS_1.c **** 
1701:Generated_Source\PSoC5/USBFS_1.c ****             /* Validate descriptor to execute on following DMA request. */
1702:Generated_Source\PSoC5/USBFS_1.c ****             USBFS_1_CyDmaValidateDescriptor(channelNum, USBFS_1_DMA_DESCR0);
1703:Generated_Source\PSoC5/USBFS_1.c **** 
1704:Generated_Source\PSoC5/USBFS_1.c ****             /* Enable DMA channel: configuration complete. */
1705:Generated_Source\PSoC5/USBFS_1.c ****             USBFS_1_CyDmaChEnable(channelNum);
1706:Generated_Source\PSoC5/USBFS_1.c ****         }
1707:Generated_Source\PSoC5/USBFS_1.c ****         #else
1708:Generated_Source\PSoC5/USBFS_1.c ****             /* Configure DMA to transfer data. */
1709:Generated_Source\PSoC5/USBFS_1.c ****             (void) CyDmaChDisable(USBFS_1_DmaChan[epNumber]);
1710:Generated_Source\PSoC5/USBFS_1.c ****             (void) CyDmaTdSetConfiguration(USBFS_1_DmaTd[epNumber], length, CY_DMA_DISABLE_TD, TD_T
1711:Generated_Source\PSoC5/USBFS_1.c ****             (void) CyDmaTdSetAddress(USBFS_1_DmaTd[epNumber], LO16((uint32) &USBFS_1_ARB_EP_BASE.ar
1712:Generated_Source\PSoC5/USBFS_1.c **** 
1713:Generated_Source\PSoC5/USBFS_1.c ****             /* Enable DMA channel. */
1714:Generated_Source\PSoC5/USBFS_1.c ****             (void) CyDmaChSetInitialTd(USBFS_1_DmaChan[epNumber], USBFS_1_DmaTd[epNumber]);
1715:Generated_Source\PSoC5/USBFS_1.c ****             (void) CyDmaChEnable(USBFS_1_DmaChan[epNumber], 1u);
1716:Generated_Source\PSoC5/USBFS_1.c ****         #endif /* (CY_PSOC4) */
1717:Generated_Source\PSoC5/USBFS_1.c **** 
1718:Generated_Source\PSoC5/USBFS_1.c ****             /* Generate DMA request. */
1719:Generated_Source\PSoC5/USBFS_1.c ****             USBFS_1_ARB_EP_BASE.arbEp[epNumber].epCfg |=  (uint8)  USBFS_1_ARB_EPX_CFG_DMA_REQ;
1720:Generated_Source\PSoC5/USBFS_1.c ****             USBFS_1_ARB_EP_BASE.arbEp[epNumber].epCfg &=  (uint8) ~USBFS_1_ARB_EPX_CFG_DMA_REQ;
1721:Generated_Source\PSoC5/USBFS_1.c **** 
1722:Generated_Source\PSoC5/USBFS_1.c ****             /* OUT endpoint has to be armed again by user when DMA transfers have been completed.
1723:Generated_Source\PSoC5/USBFS_1.c ****             * NO_EVENT_PENDING: notifies that data has been copied from endpoint buffer.
1724:Generated_Source\PSoC5/USBFS_1.c ****             */
1725:Generated_Source\PSoC5/USBFS_1.c **** 
1726:Generated_Source\PSoC5/USBFS_1.c ****         #endif /* (USBFS_1_EP_MANAGEMENT_DMA_MANUAL) */
1727:Generated_Source\PSoC5/USBFS_1.c **** 
1728:Generated_Source\PSoC5/USBFS_1.c ****         #if (USBFS_1_EP_MANAGEMENT_DMA_AUTO)
1729:Generated_Source\PSoC5/USBFS_1.c ****         #if (CY_PSOC4)
1730:Generated_Source\PSoC5/USBFS_1.c ****         {
1731:Generated_Source\PSoC5/USBFS_1.c ****             uint32 channelNum = (uint32) USBFS_1_DmaChan[epNumber];
1732:Generated_Source\PSoC5/USBFS_1.c ****             uint32 lengthDescr0, lengthDescr1;
1733:Generated_Source\PSoC5/USBFS_1.c **** 
1734:Generated_Source\PSoC5/USBFS_1.c ****             /* Get number of full bursts. */
1735:Generated_Source\PSoC5/USBFS_1.c ****             USBFS_1_DmaEpBurstCnt[epNumber] = (uint8) (length / USBFS_1_DMA_BYTES_PER_BURST);
1736:Generated_Source\PSoC5/USBFS_1.c **** 
1737:Generated_Source\PSoC5/USBFS_1.c ****             /* Get number of elements in the last burst. */
1738:Generated_Source\PSoC5/USBFS_1.c ****             USBFS_1_DmaEpLastBurstEl[epNumber] = (uint8) (length % USBFS_1_DMA_BYTES_PER_BURST);
1739:Generated_Source\PSoC5/USBFS_1.c **** 
1740:Generated_Source\PSoC5/USBFS_1.c ****             /* Get total number of bursts. */
1741:Generated_Source\PSoC5/USBFS_1.c ****             USBFS_1_DmaEpBurstCnt[epNumber] += (0u != USBFS_1_DmaEpLastBurstEl[epNumber]) ? 1u : 0u
1742:Generated_Source\PSoC5/USBFS_1.c **** 
1743:Generated_Source\PSoC5/USBFS_1.c ****             /* Adjust number of the data elements transfered in last burst. */
1744:Generated_Source\PSoC5/USBFS_1.c ****             USBFS_1_DmaEpLastBurstEl[epNumber] = (0u != USBFS_1_DmaEpLastBurstEl[epNumber]) ?
1745:Generated_Source\PSoC5/USBFS_1.c ****                                                                   (USBFS_1_DmaEpLastBurstEl[epNumbe
1746:Generated_Source\PSoC5/USBFS_1.c ****                                                                   (USBFS_1_DMA_BYTES_PER_BURST - 1u
1747:Generated_Source\PSoC5/USBFS_1.c **** 
1748:Generated_Source\PSoC5/USBFS_1.c ****             /* Get number of data elements to transfer for descriptor 0 and 1. */
1749:Generated_Source\PSoC5/USBFS_1.c ****             lengthDescr0 = (1u == USBFS_1_DmaEpBurstCnt[epNumber]) ? USBFS_1_DmaEpLastBurstEl[epNum
1750:Generated_Source\PSoC5/USBFS_1.c ****             lengthDescr1 = (2u == USBFS_1_DmaEpBurstCnt[epNumber]) ? USBFS_1_DmaEpLastBurstEl[epNum
1751:Generated_Source\PSoC5/USBFS_1.c **** 
1752:Generated_Source\PSoC5/USBFS_1.c ****             /* Mark if revert number of data elements in descriptor after transfer completion. */
1753:Generated_Source\PSoC5/USBFS_1.c ****             USBFS_1_DmaEpLastBurstEl[epNumber] |= (USBFS_1_DmaEpBurstCnt[epNumber] > 2u) ? USBFS_1_
1754:Generated_Source\PSoC5/USBFS_1.c **** 
1755:Generated_Source\PSoC5/USBFS_1.c ****             /* Mark last descriptor to be executed. */
1756:Generated_Source\PSoC5/USBFS_1.c ****             USBFS_1_DmaEpLastBurstEl[epNumber] |= (0u != (USBFS_1_DmaEpBurstCnt[epNumber] & 0x1u)) 
ARM GAS  C:\Users\bchir\AppData\Local\Temp\ccbc5zmo.s 			page 47


1757:Generated_Source\PSoC5/USBFS_1.c ****                                                                     USBFS_1_DMA_DESCR0_MASK : USBFS
1758:Generated_Source\PSoC5/USBFS_1.c **** 
1759:Generated_Source\PSoC5/USBFS_1.c ****             /* Store address of buffer and burst counter for endpoint. */
1760:Generated_Source\PSoC5/USBFS_1.c ****             USBFS_1_DmaEpBufferAddrBackup[epNumber] = (uint32) pData;
1761:Generated_Source\PSoC5/USBFS_1.c ****             USBFS_1_DmaEpBurstCntBackup[epNumber]   = USBFS_1_DmaEpBurstCnt[epNumber];
1762:Generated_Source\PSoC5/USBFS_1.c **** 
1763:Generated_Source\PSoC5/USBFS_1.c ****             /* Adjust burst counter taking to account: 2 valid descriptors and interrupt trigger af
1764:Generated_Source\PSoC5/USBFS_1.c ****             USBFS_1_DmaEpBurstCnt[epNumber] = USBFS_1_DMA_GET_BURST_CNT(USBFS_1_DmaEpBurstCnt[epNum
1765:Generated_Source\PSoC5/USBFS_1.c **** 
1766:Generated_Source\PSoC5/USBFS_1.c ****             /* Disable DMA channel: start configuration. */
1767:Generated_Source\PSoC5/USBFS_1.c ****             USBFS_1_CyDmaChDisable(channelNum);
1768:Generated_Source\PSoC5/USBFS_1.c **** 
1769:Generated_Source\PSoC5/USBFS_1.c ****             /* Set destination address. */
1770:Generated_Source\PSoC5/USBFS_1.c ****             USBFS_1_CyDmaSetSrcAddress(channelNum, USBFS_1_DMA_DESCR0, (void*) &USBFS_1_ARB_EP_BASE
1771:Generated_Source\PSoC5/USBFS_1.c ****             USBFS_1_CyDmaSetSrcAddress(channelNum, USBFS_1_DMA_DESCR1, (void*) &USBFS_1_ARB_EP_BASE
1772:Generated_Source\PSoC5/USBFS_1.c **** 
1773:Generated_Source\PSoC5/USBFS_1.c ****             USBFS_1_CyDmaSetDstAddress(channelNum, USBFS_1_DMA_DESCR0, (void*) ((uint32) pData));
1774:Generated_Source\PSoC5/USBFS_1.c ****             USBFS_1_CyDmaSetDstAddress(channelNum, USBFS_1_DMA_DESCR1, (void*) ((uint32) pData + US
1775:Generated_Source\PSoC5/USBFS_1.c **** 
1776:Generated_Source\PSoC5/USBFS_1.c ****             /* Configure DMA descriptor. */
1777:Generated_Source\PSoC5/USBFS_1.c ****             USBFS_1_CyDmaSetConfiguration(channelNum, USBFS_1_DMA_DESCR0, USBFS_1_DMA_COMMON_CFG  |
1778:Generated_Source\PSoC5/USBFS_1.c ****                                                     CYDMA_BYTE | CYDMA_WORD_ELEMENT | CYDMA_INC_DST
1779:Generated_Source\PSoC5/USBFS_1.c **** 
1780:Generated_Source\PSoC5/USBFS_1.c ****             /* Configure DMA descriptor. */
1781:Generated_Source\PSoC5/USBFS_1.c ****             USBFS_1_CyDmaSetConfiguration(channelNum, USBFS_1_DMA_DESCR1, USBFS_1_DMA_COMMON_CFG  |
1782:Generated_Source\PSoC5/USBFS_1.c ****                                                     CYDMA_BYTE | CYDMA_WORD_ELEMENT | CYDMA_INC_DST
1783:Generated_Source\PSoC5/USBFS_1.c **** 
1784:Generated_Source\PSoC5/USBFS_1.c ****             /* Enable interrupt from DMA channel. */
1785:Generated_Source\PSoC5/USBFS_1.c ****             USBFS_1_CyDmaSetInterruptMask(channelNum);
1786:Generated_Source\PSoC5/USBFS_1.c **** 
1787:Generated_Source\PSoC5/USBFS_1.c ****             /* Validate DMA descriptor 0 and 1. */
1788:Generated_Source\PSoC5/USBFS_1.c ****             USBFS_1_CyDmaValidateDescriptor(channelNum, USBFS_1_DMA_DESCR0);
1789:Generated_Source\PSoC5/USBFS_1.c **** 
1790:Generated_Source\PSoC5/USBFS_1.c ****             if (USBFS_1_DmaEpBurstCntBackup[epNumber] > 1u)
1791:Generated_Source\PSoC5/USBFS_1.c ****             {
1792:Generated_Source\PSoC5/USBFS_1.c ****                 USBFS_1_CyDmaValidateDescriptor(channelNum, USBFS_1_DMA_DESCR1);
1793:Generated_Source\PSoC5/USBFS_1.c ****             }
1794:Generated_Source\PSoC5/USBFS_1.c **** 
1795:Generated_Source\PSoC5/USBFS_1.c ****             /* Enable DMA channel: configuration complete. */
1796:Generated_Source\PSoC5/USBFS_1.c ****             USBFS_1_CyDmaChEnable(channelNum);
1797:Generated_Source\PSoC5/USBFS_1.c ****         }
1798:Generated_Source\PSoC5/USBFS_1.c ****         #else
1799:Generated_Source\PSoC5/USBFS_1.c ****             (void) CyDmaChDisable(USBFS_1_DmaChan[epNumber]);
1800:Generated_Source\PSoC5/USBFS_1.c ****             (void) CyDmaTdSetConfiguration(USBFS_1_DmaTd[epNumber], length,  USBFS_1_DmaTd[epNumber
1801:Generated_Source\PSoC5/USBFS_1.c ****             (void) CyDmaTdSetAddress(USBFS_1_DmaTd[epNumber], LO16((uint32) &USBFS_1_ARB_EP_BASE.ar
1802:Generated_Source\PSoC5/USBFS_1.c **** 
1803:Generated_Source\PSoC5/USBFS_1.c ****             /* Clear Any potential pending DMA requests before starting DMA channel to transfer dat
1804:Generated_Source\PSoC5/USBFS_1.c ****             (void) CyDmaClearPendingDrq(USBFS_1_DmaChan[epNumber]);
1805:Generated_Source\PSoC5/USBFS_1.c **** 
1806:Generated_Source\PSoC5/USBFS_1.c ****             /* Enable DMA channel. */
1807:Generated_Source\PSoC5/USBFS_1.c ****             (void) CyDmaChSetInitialTd(USBFS_1_DmaChan[epNumber], USBFS_1_DmaTd[epNumber]);
1808:Generated_Source\PSoC5/USBFS_1.c ****             (void) CyDmaChEnable(USBFS_1_DmaChan[epNumber], 1u);
1809:Generated_Source\PSoC5/USBFS_1.c ****         #endif /* (CY_PSOC4) */
1810:Generated_Source\PSoC5/USBFS_1.c **** 
1811:Generated_Source\PSoC5/USBFS_1.c ****             /* OUT endpoint has to be armed again by user when DMA transfers have been completed.
1812:Generated_Source\PSoC5/USBFS_1.c ****             * NO_EVENT_PENDING: notifies that data has been copied from endpoint buffer.
1813:Generated_Source\PSoC5/USBFS_1.c ****             */
ARM GAS  C:\Users\bchir\AppData\Local\Temp\ccbc5zmo.s 			page 48


1814:Generated_Source\PSoC5/USBFS_1.c **** 
1815:Generated_Source\PSoC5/USBFS_1.c ****         #endif /* (USBFS_1_EP_MANAGEMENT_DMA_AUTO) */
1816:Generated_Source\PSoC5/USBFS_1.c ****     #endif /* (USBFS_1_EP_MANAGEMENT_MANUAL) */
1817:Generated_Source\PSoC5/USBFS_1.c ****     }
1818:Generated_Source\PSoC5/USBFS_1.c ****     else
1819:Generated_Source\PSoC5/USBFS_1.c ****     {
1820:Generated_Source\PSoC5/USBFS_1.c ****         length = 0u;
1821:Generated_Source\PSoC5/USBFS_1.c ****     }
1822:Generated_Source\PSoC5/USBFS_1.c **** 
1823:Generated_Source\PSoC5/USBFS_1.c ****     return (length);
1824:Generated_Source\PSoC5/USBFS_1.c **** }
1825:Generated_Source\PSoC5/USBFS_1.c **** 
1826:Generated_Source\PSoC5/USBFS_1.c **** 
1827:Generated_Source\PSoC5/USBFS_1.c **** #if (USBFS_1_16BITS_EP_ACCESS_ENABLE)
1828:Generated_Source\PSoC5/USBFS_1.c **** /*******************************************************************************
1829:Generated_Source\PSoC5/USBFS_1.c **** * Function Name: USBFS_1_LoadInEP16
1830:Generated_Source\PSoC5/USBFS_1.c **** ****************************************************************************//**
1831:Generated_Source\PSoC5/USBFS_1.c **** *
1832:Generated_Source\PSoC5/USBFS_1.c **** *  This function performs different functionality depending on the Component’s
1833:Generated_Source\PSoC5/USBFS_1.c **** *  configured Endpoint Buffer Management. This parameter is defined in
1834:Generated_Source\PSoC5/USBFS_1.c **** *  the Descriptor Root in Component Configure window.
1835:Generated_Source\PSoC5/USBFS_1.c **** *
1836:Generated_Source\PSoC5/USBFS_1.c **** *  *Manual (Static/Dynamic Allocation):*
1837:Generated_Source\PSoC5/USBFS_1.c **** *  This function loads and enables the specified USB data endpoint for an IN
1838:Generated_Source\PSoC5/USBFS_1.c **** *  data transfer.
1839:Generated_Source\PSoC5/USBFS_1.c **** *
1840:Generated_Source\PSoC5/USBFS_1.c **** *  *DMA with Manual Buffer Management:*
1841:Generated_Source\PSoC5/USBFS_1.c **** *  Configures DMA for a data transfer from system RAM to endpoint buffer.
1842:Generated_Source\PSoC5/USBFS_1.c **** *  Generates request for a transfer.
1843:Generated_Source\PSoC5/USBFS_1.c **** *
1844:Generated_Source\PSoC5/USBFS_1.c **** *  *DMA with Automatic Buffer Management:*
1845:Generated_Source\PSoC5/USBFS_1.c **** *  Configures DMA. This is required only once, so it is done only when parameter
1846:Generated_Source\PSoC5/USBFS_1.c **** *  pData is not NULL. When the pData pointer is NULL, the function skips this
1847:Generated_Source\PSoC5/USBFS_1.c **** *  task. Sets Data ready status: This generates the first DMA transfer and
1848:Generated_Source\PSoC5/USBFS_1.c **** *  prepares data in endpoint buffer.
1849:Generated_Source\PSoC5/USBFS_1.c **** *
1850:Generated_Source\PSoC5/USBFS_1.c **** *  \param epNumber Contains the data endpoint number.
1851:Generated_Source\PSoC5/USBFS_1.c **** *        Valid values are between 1 and 8.
1852:Generated_Source\PSoC5/USBFS_1.c **** *  \param *pData A pointer to a data array from which the data for the endpoint
1853:Generated_Source\PSoC5/USBFS_1.c **** *        space is loaded. It shall be ensured that this pointer address is even
1854:Generated_Source\PSoC5/USBFS_1.c **** *        to ensure the 16-bit transfer is aligned to even address. Else, a hard
1855:Generated_Source\PSoC5/USBFS_1.c **** *        fault condition can occur.
1856:Generated_Source\PSoC5/USBFS_1.c **** *  \param length The number of bytes to transfer from the array and then send as
1857:Generated_Source\PSoC5/USBFS_1.c **** *        a result of an IN request. Valid values are between 0 and 512 (1023 for
1858:Generated_Source\PSoC5/USBFS_1.c **** *        DMA with Automatic Buffer Management mode). The value 512 is applicable
1859:Generated_Source\PSoC5/USBFS_1.c **** *        if only one endpoint is used.
1860:Generated_Source\PSoC5/USBFS_1.c **** *
1861:Generated_Source\PSoC5/USBFS_1.c **** * \reentrant
1862:Generated_Source\PSoC5/USBFS_1.c **** *  No.
1863:Generated_Source\PSoC5/USBFS_1.c **** *
1864:Generated_Source\PSoC5/USBFS_1.c **** *******************************************************************************/
1865:Generated_Source\PSoC5/USBFS_1.c **** void USBFS_1_LoadInEP16(uint8 epNumber, const uint8 pData[], uint16 length)
1866:Generated_Source\PSoC5/USBFS_1.c **** {
1867:Generated_Source\PSoC5/USBFS_1.c ****     /* Check array alignment on half-word boundary. */
1868:Generated_Source\PSoC5/USBFS_1.c ****     CYASSERT(0u == (((uint32) pData) & 0x01u));
1869:Generated_Source\PSoC5/USBFS_1.c **** 
1870:Generated_Source\PSoC5/USBFS_1.c ****     if ((epNumber > USBFS_1_EP0) && (epNumber < USBFS_1_MAX_EP))
ARM GAS  C:\Users\bchir\AppData\Local\Temp\ccbc5zmo.s 			page 49


1871:Generated_Source\PSoC5/USBFS_1.c ****     {
1872:Generated_Source\PSoC5/USBFS_1.c ****     #if (!USBFS_1_EP_MANAGEMENT_DMA_AUTO)
1873:Generated_Source\PSoC5/USBFS_1.c ****         /* Limit length to available buffer USB IP buffer size. */
1874:Generated_Source\PSoC5/USBFS_1.c ****         if (length > (USBFS_1_EPX_DATA_BUF_MAX - USBFS_1_EP[epNumber].buffOffset))
1875:Generated_Source\PSoC5/USBFS_1.c ****         {
1876:Generated_Source\PSoC5/USBFS_1.c ****             length = USBFS_1_EPX_DATA_BUF_MAX - USBFS_1_EP[epNumber].buffOffset;
1877:Generated_Source\PSoC5/USBFS_1.c ****         }
1878:Generated_Source\PSoC5/USBFS_1.c ****     #endif /* (!USBFS_1_EP_MANAGEMENT_DMA_AUTO) */
1879:Generated_Source\PSoC5/USBFS_1.c **** 
1880:Generated_Source\PSoC5/USBFS_1.c ****         /* Set count and data toggle. */
1881:Generated_Source\PSoC5/USBFS_1.c ****         USBFS_1_SIE_EP_BASE.sieEp[epNumber].epCnt0 = (uint32) HI8(length) | USBFS_1_EP[epNumber].ep
1882:Generated_Source\PSoC5/USBFS_1.c ****         USBFS_1_SIE_EP_BASE.sieEp[epNumber].epCnt1 = (uint32) LO8(length);
1883:Generated_Source\PSoC5/USBFS_1.c **** 
1884:Generated_Source\PSoC5/USBFS_1.c ****         /* Adjust requested length: 2 bytes are handled at one data register access. */
1885:Generated_Source\PSoC5/USBFS_1.c ****         length += (length & 0x01u);
1886:Generated_Source\PSoC5/USBFS_1.c **** 
1887:Generated_Source\PSoC5/USBFS_1.c ****     #if (USBFS_1_EP_MANAGEMENT_MANUAL)
1888:Generated_Source\PSoC5/USBFS_1.c ****         if (NULL != pData)
1889:Generated_Source\PSoC5/USBFS_1.c ****         {
1890:Generated_Source\PSoC5/USBFS_1.c ****             /* Convert uint8 array to uint16. */
1891:Generated_Source\PSoC5/USBFS_1.c ****             const uint16 *dataBuf = (uint16 *) pData;
1892:Generated_Source\PSoC5/USBFS_1.c **** 
1893:Generated_Source\PSoC5/USBFS_1.c ****             /* Copy data using 16-bits arbiter data register. */
1894:Generated_Source\PSoC5/USBFS_1.c ****             uint16 i;
1895:Generated_Source\PSoC5/USBFS_1.c ****             for (i = 0u; i < (length >> 1u); ++i)
1896:Generated_Source\PSoC5/USBFS_1.c ****             {
1897:Generated_Source\PSoC5/USBFS_1.c ****                 USBFS_1_ARB_EP16_BASE.arbEp[epNumber].rwDr16 = dataBuf[i];
1898:Generated_Source\PSoC5/USBFS_1.c ****             }
1899:Generated_Source\PSoC5/USBFS_1.c ****         }
1900:Generated_Source\PSoC5/USBFS_1.c **** 
1901:Generated_Source\PSoC5/USBFS_1.c ****         /* IN endpoint buffer is full - read to be read. */
1902:Generated_Source\PSoC5/USBFS_1.c ****         USBFS_1_EP[epNumber].apiEpState = USBFS_1_NO_EVENT_PENDING;
1903:Generated_Source\PSoC5/USBFS_1.c **** 
1904:Generated_Source\PSoC5/USBFS_1.c ****         /* Arm IN endpoint. */
1905:Generated_Source\PSoC5/USBFS_1.c ****         USBFS_1_SIE_EP_BASE.sieEp[epNumber].epCr0 = USBFS_1_EP[epNumber].epMode;
1906:Generated_Source\PSoC5/USBFS_1.c **** 
1907:Generated_Source\PSoC5/USBFS_1.c ****     #else
1908:Generated_Source\PSoC5/USBFS_1.c **** 
1909:Generated_Source\PSoC5/USBFS_1.c ****         #if (USBFS_1_EP_MANAGEMENT_DMA_MANUAL)
1910:Generated_Source\PSoC5/USBFS_1.c ****             /* IN endpoint buffer will be fully loaded by DMA shortly. */
1911:Generated_Source\PSoC5/USBFS_1.c ****             USBFS_1_EP[epNumber].apiEpState = USBFS_1_NO_EVENT_PENDING;
1912:Generated_Source\PSoC5/USBFS_1.c **** 
1913:Generated_Source\PSoC5/USBFS_1.c ****             if ((pData != NULL) && (length > 0u))
1914:Generated_Source\PSoC5/USBFS_1.c ****             {
1915:Generated_Source\PSoC5/USBFS_1.c ****                 uint32 channelNum = (uint32) USBFS_1_DmaChan[epNumber];
1916:Generated_Source\PSoC5/USBFS_1.c **** 
1917:Generated_Source\PSoC5/USBFS_1.c ****                 /* Disable DMA channel: start configuration. */
1918:Generated_Source\PSoC5/USBFS_1.c ****                 USBFS_1_CyDmaChDisable(channelNum);
1919:Generated_Source\PSoC5/USBFS_1.c **** 
1920:Generated_Source\PSoC5/USBFS_1.c ****                 /* Configure source and destination. */
1921:Generated_Source\PSoC5/USBFS_1.c ****                 USBFS_1_CyDmaSetSrcAddress(channelNum, USBFS_1_DMA_DESCR0, (void*) pData);
1922:Generated_Source\PSoC5/USBFS_1.c ****                 USBFS_1_CyDmaSetDstAddress(channelNum, USBFS_1_DMA_DESCR0, (void*) &USBFS_1_ARB_EP1
1923:Generated_Source\PSoC5/USBFS_1.c **** 
1924:Generated_Source\PSoC5/USBFS_1.c ****                 /* Configure DMA descriptor. */
1925:Generated_Source\PSoC5/USBFS_1.c ****                 length = (length >> 1u) - 1u;
1926:Generated_Source\PSoC5/USBFS_1.c ****                 USBFS_1_CyDmaSetConfiguration(channelNum, USBFS_1_DMA_DESCR0, USBFS_1_DMA_COMMON_CF
1927:Generated_Source\PSoC5/USBFS_1.c ****                                                         CYDMA_HALFWORD | CYDMA_ELEMENT_WORD | CYDMA
ARM GAS  C:\Users\bchir\AppData\Local\Temp\ccbc5zmo.s 			page 50


1928:Generated_Source\PSoC5/USBFS_1.c **** 
1929:Generated_Source\PSoC5/USBFS_1.c ****                 /* Validate descriptor to execute on following DMA request. */
1930:Generated_Source\PSoC5/USBFS_1.c ****                 USBFS_1_CyDmaValidateDescriptor(channelNum, USBFS_1_DMA_DESCR0);
1931:Generated_Source\PSoC5/USBFS_1.c **** 
1932:Generated_Source\PSoC5/USBFS_1.c ****                 /* Enable DMA channel: configuration complete. */
1933:Generated_Source\PSoC5/USBFS_1.c ****                 USBFS_1_CyDmaChEnable(channelNum);
1934:Generated_Source\PSoC5/USBFS_1.c **** 
1935:Generated_Source\PSoC5/USBFS_1.c ****                 /* Generate DMA request. */
1936:Generated_Source\PSoC5/USBFS_1.c ****                 USBFS_1_ARB_EP_BASE.arbEp[epNumber].epCfg |=  (uint32)  USBFS_1_ARB_EPX_CFG_DMA_REQ
1937:Generated_Source\PSoC5/USBFS_1.c ****                 USBFS_1_ARB_EP_BASE.arbEp[epNumber].epCfg &=  (uint32) ~USBFS_1_ARB_EPX_CFG_DMA_REQ
1938:Generated_Source\PSoC5/USBFS_1.c **** 
1939:Generated_Source\PSoC5/USBFS_1.c ****                 /* IN endpoint will be armed in ARB_ISR(source: IN_BUF_FULL) after first DMA transf
1940:Generated_Source\PSoC5/USBFS_1.c ****             }
1941:Generated_Source\PSoC5/USBFS_1.c ****             else
1942:Generated_Source\PSoC5/USBFS_1.c ****             {
1943:Generated_Source\PSoC5/USBFS_1.c ****                 /* When zero-length packet: arm IN endpoint directly. */
1944:Generated_Source\PSoC5/USBFS_1.c ****                 USBFS_1_SIE_EP_BASE.sieEp[epNumber].epCr0 = USBFS_1_EP[epNumber].epMode;
1945:Generated_Source\PSoC5/USBFS_1.c ****             }
1946:Generated_Source\PSoC5/USBFS_1.c ****         #endif /* (USBFS_1_EP_MANAGEMENT_DMA_MANUAL) */
1947:Generated_Source\PSoC5/USBFS_1.c **** 
1948:Generated_Source\PSoC5/USBFS_1.c ****         #if (USBFS_1_EP_MANAGEMENT_DMA_AUTO)
1949:Generated_Source\PSoC5/USBFS_1.c ****             if (pData != NULL)
1950:Generated_Source\PSoC5/USBFS_1.c ****             {
1951:Generated_Source\PSoC5/USBFS_1.c ****                 uint32 channelNum = (uint32) USBFS_1_DmaChan[epNumber];
1952:Generated_Source\PSoC5/USBFS_1.c **** 
1953:Generated_Source\PSoC5/USBFS_1.c ****                 /* Store address of buffer. */
1954:Generated_Source\PSoC5/USBFS_1.c ****                 USBFS_1_DmaEpBufferAddrBackup[epNumber] = (uint32) pData;
1955:Generated_Source\PSoC5/USBFS_1.c **** 
1956:Generated_Source\PSoC5/USBFS_1.c ****                 /* Disable DMA channel: start configuration. */
1957:Generated_Source\PSoC5/USBFS_1.c ****                 USBFS_1_CyDmaChDisable(channelNum);
1958:Generated_Source\PSoC5/USBFS_1.c **** 
1959:Generated_Source\PSoC5/USBFS_1.c ****                 /* Set destination address. */
1960:Generated_Source\PSoC5/USBFS_1.c ****                 USBFS_1_CyDmaSetDstAddress(channelNum, USBFS_1_DMA_DESCR0, (void*) &USBFS_1_ARB_EP1
1961:Generated_Source\PSoC5/USBFS_1.c ****                 USBFS_1_CyDmaSetDstAddress(channelNum, USBFS_1_DMA_DESCR1, (void*) &USBFS_1_ARB_EP1
1962:Generated_Source\PSoC5/USBFS_1.c **** 
1963:Generated_Source\PSoC5/USBFS_1.c ****                 /* Configure DMA descriptor. */
1964:Generated_Source\PSoC5/USBFS_1.c ****                 USBFS_1_CyDmaSetConfiguration(channelNum, USBFS_1_DMA_DESCR0, USBFS_1_DMA_COMMON_CF
1965:Generated_Source\PSoC5/USBFS_1.c ****                                                         CYDMA_HALFWORD | CYDMA_ELEMENT_WORD | CYDMA
1966:Generated_Source\PSoC5/USBFS_1.c **** 
1967:Generated_Source\PSoC5/USBFS_1.c ****                 /* Configure DMA descriptor. */
1968:Generated_Source\PSoC5/USBFS_1.c ****                 USBFS_1_CyDmaSetConfiguration(channelNum, USBFS_1_DMA_DESCR1, USBFS_1_DMA_COMMON_CF
1969:Generated_Source\PSoC5/USBFS_1.c ****                                                         CYDMA_HALFWORD | CYDMA_ELEMENT_WORD | CYDMA
1970:Generated_Source\PSoC5/USBFS_1.c **** 
1971:Generated_Source\PSoC5/USBFS_1.c ****                 /* Enable interrupt from DMA channel. */
1972:Generated_Source\PSoC5/USBFS_1.c ****                 USBFS_1_CyDmaSetInterruptMask(channelNum);
1973:Generated_Source\PSoC5/USBFS_1.c **** 
1974:Generated_Source\PSoC5/USBFS_1.c ****                 /* Enable DMA channel: configuration complete. */
1975:Generated_Source\PSoC5/USBFS_1.c ****                 USBFS_1_CyDmaChEnable(channelNum);
1976:Generated_Source\PSoC5/USBFS_1.c ****             }
1977:Generated_Source\PSoC5/USBFS_1.c ****             else
1978:Generated_Source\PSoC5/USBFS_1.c ****             {
1979:Generated_Source\PSoC5/USBFS_1.c ****                 /* IN endpoint buffer (32 bytes) will shortly be preloaded by DMA. */
1980:Generated_Source\PSoC5/USBFS_1.c ****                 USBFS_1_EP[epNumber].apiEpState = USBFS_1_NO_EVENT_PENDING;
1981:Generated_Source\PSoC5/USBFS_1.c **** 
1982:Generated_Source\PSoC5/USBFS_1.c ****                 if (length > 0u)
1983:Generated_Source\PSoC5/USBFS_1.c ****                 {
1984:Generated_Source\PSoC5/USBFS_1.c ****                     uint32 lengthDescr0, lengthDescr1;
ARM GAS  C:\Users\bchir\AppData\Local\Temp\ccbc5zmo.s 			page 51


1985:Generated_Source\PSoC5/USBFS_1.c ****                     uint32 channelNum = (uint32) USBFS_1_DmaChan[epNumber];
1986:Generated_Source\PSoC5/USBFS_1.c **** 
1987:Generated_Source\PSoC5/USBFS_1.c ****                     /* Get number of full bursts. */
1988:Generated_Source\PSoC5/USBFS_1.c ****                     USBFS_1_DmaEpBurstCnt[epNumber] = (uint8) (length / USBFS_1_DMA_BYTES_PER_BURST
1989:Generated_Source\PSoC5/USBFS_1.c **** 
1990:Generated_Source\PSoC5/USBFS_1.c ****                     /* Get number of elements in the last burst. */
1991:Generated_Source\PSoC5/USBFS_1.c ****                     USBFS_1_DmaEpLastBurstEl[epNumber] = (uint8) (length % USBFS_1_DMA_BYTES_PER_BU
1992:Generated_Source\PSoC5/USBFS_1.c **** 
1993:Generated_Source\PSoC5/USBFS_1.c ****                     /* Get total number of bursts. */
1994:Generated_Source\PSoC5/USBFS_1.c ****                     USBFS_1_DmaEpBurstCnt[epNumber] += (0u != USBFS_1_DmaEpLastBurstEl[epNumber]) ?
1995:Generated_Source\PSoC5/USBFS_1.c **** 
1996:Generated_Source\PSoC5/USBFS_1.c ****                     /* Adjust number of data elements transferred in last burst. */
1997:Generated_Source\PSoC5/USBFS_1.c ****                     USBFS_1_DmaEpLastBurstEl[epNumber] = (0u != USBFS_1_DmaEpLastBurstEl[epNumber])
1998:Generated_Source\PSoC5/USBFS_1.c ****                                                                           ((USBFS_1_DmaEpLastBurstE
1999:Generated_Source\PSoC5/USBFS_1.c ****                                                                            (USBFS_1_DMA_HALFWORDS_P
2000:Generated_Source\PSoC5/USBFS_1.c **** 
2001:Generated_Source\PSoC5/USBFS_1.c ****                     /* Get number of data elements to transfer for descriptor 0 and 1. */
2002:Generated_Source\PSoC5/USBFS_1.c ****                     lengthDescr0 = (1u == USBFS_1_DmaEpBurstCnt[epNumber]) ? USBFS_1_DmaEpLastBurst
2003:Generated_Source\PSoC5/USBFS_1.c ****                     lengthDescr1 = (2u == USBFS_1_DmaEpBurstCnt[epNumber]) ? USBFS_1_DmaEpLastBurst
2004:Generated_Source\PSoC5/USBFS_1.c **** 
2005:Generated_Source\PSoC5/USBFS_1.c ****                     /* Mark which descriptor is last one to execute. */
2006:Generated_Source\PSoC5/USBFS_1.c ****                     USBFS_1_DmaEpLastBurstEl[epNumber] |= (0u != (USBFS_1_DmaEpBurstCnt[epNumber] &
2007:Generated_Source\PSoC5/USBFS_1.c ****                                                                             USBFS_1_DMA_DESCR0_MASK
2008:Generated_Source\PSoC5/USBFS_1.c **** 
2009:Generated_Source\PSoC5/USBFS_1.c ****                     /* Restore DMA settings for current transfer. */
2010:Generated_Source\PSoC5/USBFS_1.c ****                     USBFS_1_CyDmaChDisable(channelNum);
2011:Generated_Source\PSoC5/USBFS_1.c **** 
2012:Generated_Source\PSoC5/USBFS_1.c ****                     /* Restore destination address for input endpoint. */
2013:Generated_Source\PSoC5/USBFS_1.c ****                     USBFS_1_CyDmaSetSrcAddress(channelNum, USBFS_1_DMA_DESCR0, (void*) ((uint32) US
2014:Generated_Source\PSoC5/USBFS_1.c ****                     USBFS_1_CyDmaSetSrcAddress(channelNum, USBFS_1_DMA_DESCR1, (void*) ((uint32) US
2015:Generated_Source\PSoC5/USBFS_1.c ****                                                                                                    
2016:Generated_Source\PSoC5/USBFS_1.c **** 
2017:Generated_Source\PSoC5/USBFS_1.c ****                     /* Set number of elements to transfer. */
2018:Generated_Source\PSoC5/USBFS_1.c ****                     USBFS_1_CyDmaSetNumDataElements(channelNum, USBFS_1_DMA_DESCR0, lengthDescr0);
2019:Generated_Source\PSoC5/USBFS_1.c ****                     USBFS_1_CyDmaSetNumDataElements(channelNum, USBFS_1_DMA_DESCR1, lengthDescr1);
2020:Generated_Source\PSoC5/USBFS_1.c **** 
2021:Generated_Source\PSoC5/USBFS_1.c ****                     /* Validate descriptor 0 and command to start with it. */
2022:Generated_Source\PSoC5/USBFS_1.c ****                     USBFS_1_CyDmaValidateDescriptor(channelNum, USBFS_1_DMA_DESCR0);
2023:Generated_Source\PSoC5/USBFS_1.c ****                     USBFS_1_CyDmaSetDescriptor0Next(channelNum);
2024:Generated_Source\PSoC5/USBFS_1.c **** 
2025:Generated_Source\PSoC5/USBFS_1.c ****                     /* Validate descriptor 1. */
2026:Generated_Source\PSoC5/USBFS_1.c ****                     if (USBFS_1_DmaEpBurstCnt[epNumber] > 1u)
2027:Generated_Source\PSoC5/USBFS_1.c ****                     {
2028:Generated_Source\PSoC5/USBFS_1.c ****                         USBFS_1_CyDmaValidateDescriptor(channelNum, USBFS_1_DMA_DESCR1);
2029:Generated_Source\PSoC5/USBFS_1.c ****                     }
2030:Generated_Source\PSoC5/USBFS_1.c **** 
2031:Generated_Source\PSoC5/USBFS_1.c ****                     /* Adjust burst counter taking to account: 2 valid descriptors and interrupt tr
2032:Generated_Source\PSoC5/USBFS_1.c ****                     USBFS_1_DmaEpBurstCnt[epNumber] = USBFS_1_DMA_GET_BURST_CNT(USBFS_1_DmaEpBurstC
2033:Generated_Source\PSoC5/USBFS_1.c **** 
2034:Generated_Source\PSoC5/USBFS_1.c ****                     /* Enable DMA channel: configuration complete. */
2035:Generated_Source\PSoC5/USBFS_1.c ****                     USBFS_1_CyDmaChEnable(channelNum);
2036:Generated_Source\PSoC5/USBFS_1.c **** 
2037:Generated_Source\PSoC5/USBFS_1.c ****                 #if !defined (USBFS_1_MANUAL_IN_EP_ARM)
2038:Generated_Source\PSoC5/USBFS_1.c ****                     /* Set IN data ready to generate DMA request to load data into endpoint buffer.
2039:Generated_Source\PSoC5/USBFS_1.c ****                     USBFS_1_ARB_EP_BASE.arbEp[epNumber].epCfg |= USBFS_1_ARB_EPX_CFG_IN_DATA_RDY;
2040:Generated_Source\PSoC5/USBFS_1.c ****                 #endif  /* (USBFS_1_MANUAL_IN_EP_ARM) */
2041:Generated_Source\PSoC5/USBFS_1.c **** 
ARM GAS  C:\Users\bchir\AppData\Local\Temp\ccbc5zmo.s 			page 52


2042:Generated_Source\PSoC5/USBFS_1.c ****                     /* IN endpoint will be armed in ARB_ISR(source: IN_BUF_FULL) after first DMA tr
2043:Generated_Source\PSoC5/USBFS_1.c ****                 }
2044:Generated_Source\PSoC5/USBFS_1.c ****                 else
2045:Generated_Source\PSoC5/USBFS_1.c ****                 {
2046:Generated_Source\PSoC5/USBFS_1.c ****                     /* When zero-length packet: arm IN endpoint directly. */
2047:Generated_Source\PSoC5/USBFS_1.c ****                     USBFS_1_SIE_EP_BASE.sieEp[epNumber].epCr0 = USBFS_1_EP[epNumber].epMode;
2048:Generated_Source\PSoC5/USBFS_1.c ****                 }
2049:Generated_Source\PSoC5/USBFS_1.c ****             }
2050:Generated_Source\PSoC5/USBFS_1.c ****         #endif /* (USBFS_1_EP_MANAGEMENT_DMA_AUTO) */
2051:Generated_Source\PSoC5/USBFS_1.c ****     #endif /* (USBFS_1_EP_MANAGEMENT_MANUAL) */
2052:Generated_Source\PSoC5/USBFS_1.c ****     }
2053:Generated_Source\PSoC5/USBFS_1.c **** }
2054:Generated_Source\PSoC5/USBFS_1.c **** 
2055:Generated_Source\PSoC5/USBFS_1.c **** 
2056:Generated_Source\PSoC5/USBFS_1.c **** /*******************************************************************************
2057:Generated_Source\PSoC5/USBFS_1.c **** * Function Name: USBFS_1_ReadOutEP16
2058:Generated_Source\PSoC5/USBFS_1.c **** ****************************************************************************//**
2059:Generated_Source\PSoC5/USBFS_1.c **** *
2060:Generated_Source\PSoC5/USBFS_1.c **** *   This function performs different functionality depending on the Component’s
2061:Generated_Source\PSoC5/USBFS_1.c **** *   configured Endpoint Buffer Management. This parameter is defined in the
2062:Generated_Source\PSoC5/USBFS_1.c **** *   Descriptor Root in Component Configure window.
2063:Generated_Source\PSoC5/USBFS_1.c **** *
2064:Generated_Source\PSoC5/USBFS_1.c **** *   *Manual (Static/Dynamic Allocation):*
2065:Generated_Source\PSoC5/USBFS_1.c **** *   This function moves the specified number of bytes from endpoint buffer to
2066:Generated_Source\PSoC5/USBFS_1.c **** *   system RAM. The number of bytes actually transferred from endpoint buffer to
2067:Generated_Source\PSoC5/USBFS_1.c **** *   system RAM is the lesser of the actual number of bytes sent by the host or
2068:Generated_Source\PSoC5/USBFS_1.c **** *   the number of bytes requested by the length parameter.
2069:Generated_Source\PSoC5/USBFS_1.c **** *
2070:Generated_Source\PSoC5/USBFS_1.c **** *   *DMA with Manual Buffer Management:*
2071:Generated_Source\PSoC5/USBFS_1.c **** *   Configure DMA to transfer data from endpoint buffer to system RAM. Generate
2072:Generated_Source\PSoC5/USBFS_1.c **** *   a DMA request. The firmware must wait until the DMA completes the data
2073:Generated_Source\PSoC5/USBFS_1.c **** *   transfer after calling the USBFS_1_ReadOutEP() API. For example,
2074:Generated_Source\PSoC5/USBFS_1.c **** *   by checking EPstate:
2075:Generated_Source\PSoC5/USBFS_1.c **** *
2076:Generated_Source\PSoC5/USBFS_1.c **** *   \snippet /USBFS_sut_02.cydsn/main.c checking EPstatey
2077:Generated_Source\PSoC5/USBFS_1.c **** *
2078:Generated_Source\PSoC5/USBFS_1.c **** *   The USBFS_EnableOutEP() has to be called to allow host to write data into
2079:Generated_Source\PSoC5/USBFS_1.c **** *   the endpoint buffer after DMA has completed transfer data from OUT endpoint
2080:Generated_Source\PSoC5/USBFS_1.c **** *   buffer to SRAM.
2081:Generated_Source\PSoC5/USBFS_1.c **** *
2082:Generated_Source\PSoC5/USBFS_1.c **** *   *DMA with Automatic Buffer Management:*
2083:Generated_Source\PSoC5/USBFS_1.c **** *   Configure DMA. This is required only once and automatically generates DMA
2084:Generated_Source\PSoC5/USBFS_1.c **** *   requests as data arrives
2085:Generated_Source\PSoC5/USBFS_1.c **** *
2086:Generated_Source\PSoC5/USBFS_1.c **** *  \param epNumber: Contains the data endpoint number.
2087:Generated_Source\PSoC5/USBFS_1.c **** *         Valid values are between 1 and 8.
2088:Generated_Source\PSoC5/USBFS_1.c **** *  \param pData: A pointer to a data array into which the data for the endpoint
2089:Generated_Source\PSoC5/USBFS_1.c **** *         space is copied. It shall be ensured that this pointer address is
2090:Generated_Source\PSoC5/USBFS_1.c **** *         even to ensure the 16-bit transfer is aligned to even address. Else,
2091:Generated_Source\PSoC5/USBFS_1.c **** *         a hard fault condition can occur.
2092:Generated_Source\PSoC5/USBFS_1.c **** *  \param length: The number of bytes to transfer from the USB Out endpoint and
2093:Generated_Source\PSoC5/USBFS_1.c **** *         loads it into data array. Valid values are between 0 and 1023. The
2094:Generated_Source\PSoC5/USBFS_1.c **** *         function moves fewer than the requested number of bytes if the host
2095:Generated_Source\PSoC5/USBFS_1.c **** *         sends fewer bytes than requested.
2096:Generated_Source\PSoC5/USBFS_1.c **** *
2097:Generated_Source\PSoC5/USBFS_1.c **** * \return
2098:Generated_Source\PSoC5/USBFS_1.c **** *  Number of bytes received, 0 for an invalid endpoint.
ARM GAS  C:\Users\bchir\AppData\Local\Temp\ccbc5zmo.s 			page 53


2099:Generated_Source\PSoC5/USBFS_1.c **** *
2100:Generated_Source\PSoC5/USBFS_1.c **** * \reentrant
2101:Generated_Source\PSoC5/USBFS_1.c **** *  No.
2102:Generated_Source\PSoC5/USBFS_1.c **** *
2103:Generated_Source\PSoC5/USBFS_1.c **** *******************************************************************************/
2104:Generated_Source\PSoC5/USBFS_1.c **** uint16 USBFS_1_ReadOutEP16(uint8 epNumber, uint8 pData[], uint16 length)
2105:Generated_Source\PSoC5/USBFS_1.c **** {
2106:Generated_Source\PSoC5/USBFS_1.c ****     uint32 adjLength;
2107:Generated_Source\PSoC5/USBFS_1.c **** 
2108:Generated_Source\PSoC5/USBFS_1.c ****     /* Check array alignment on half-word boundary */
2109:Generated_Source\PSoC5/USBFS_1.c ****     CYASSERT(0u == (((uint32) pData) & 0x01u));
2110:Generated_Source\PSoC5/USBFS_1.c **** 
2111:Generated_Source\PSoC5/USBFS_1.c ****     if ((pData != NULL) && (epNumber > USBFS_1_EP0) && (epNumber < USBFS_1_MAX_EP))
2112:Generated_Source\PSoC5/USBFS_1.c ****     {
2113:Generated_Source\PSoC5/USBFS_1.c ****     #if (!USBFS_1_EP_MANAGEMENT_DMA_AUTO)
2114:Generated_Source\PSoC5/USBFS_1.c ****         /* Adjust requested length to available data. */
2115:Generated_Source\PSoC5/USBFS_1.c ****         length = (length > USBFS_1_GetEPCount(epNumber)) ? USBFS_1_GetEPCount(epNumber) : length;
2116:Generated_Source\PSoC5/USBFS_1.c ****     #endif /* (!USBFS_1_EP_MANAGEMENT_DMA_AUTO) */
2117:Generated_Source\PSoC5/USBFS_1.c **** 
2118:Generated_Source\PSoC5/USBFS_1.c ****     /* Adjust requested length: 2 bytes are handled at one data register access. */
2119:Generated_Source\PSoC5/USBFS_1.c ****     adjLength =  length + ((uint32)length & 1u);
2120:Generated_Source\PSoC5/USBFS_1.c **** 
2121:Generated_Source\PSoC5/USBFS_1.c ****     #if (USBFS_1_EP_MANAGEMENT_MANUAL)
2122:Generated_Source\PSoC5/USBFS_1.c ****         {
2123:Generated_Source\PSoC5/USBFS_1.c ****             /* Convert uint8 array to uint16. */
2124:Generated_Source\PSoC5/USBFS_1.c ****             uint16 *dataBuf = (uint16 *) pData;
2125:Generated_Source\PSoC5/USBFS_1.c **** 
2126:Generated_Source\PSoC5/USBFS_1.c ****             /* Copy data using 16-bits arbiter data register. */
2127:Generated_Source\PSoC5/USBFS_1.c ****             uint16 i;
2128:Generated_Source\PSoC5/USBFS_1.c ****             for (i = 0u; i < (adjLength >> 1u); ++i)
2129:Generated_Source\PSoC5/USBFS_1.c ****             {
2130:Generated_Source\PSoC5/USBFS_1.c ****                 dataBuf[i] = (uint16) USBFS_1_ARB_EP16_BASE.arbEp[epNumber].rwDr16;
2131:Generated_Source\PSoC5/USBFS_1.c ****             }
2132:Generated_Source\PSoC5/USBFS_1.c ****         }
2133:Generated_Source\PSoC5/USBFS_1.c **** 
2134:Generated_Source\PSoC5/USBFS_1.c ****         /* Arm OUT endpoint after data has been read from endpoint buffer. */
2135:Generated_Source\PSoC5/USBFS_1.c ****         USBFS_1_EnableOutEP(epNumber);
2136:Generated_Source\PSoC5/USBFS_1.c ****     #else
2137:Generated_Source\PSoC5/USBFS_1.c **** 
2138:Generated_Source\PSoC5/USBFS_1.c ****         #if (USBFS_1_EP_MANAGEMENT_DMA_MANUAL)
2139:Generated_Source\PSoC5/USBFS_1.c ****         {
2140:Generated_Source\PSoC5/USBFS_1.c ****             uint32 channelNum = (uint32) USBFS_1_DmaChan[epNumber];
2141:Generated_Source\PSoC5/USBFS_1.c **** 
2142:Generated_Source\PSoC5/USBFS_1.c ****             /* Disable DMA channel: start configuration. */
2143:Generated_Source\PSoC5/USBFS_1.c ****             USBFS_1_CyDmaChDisable(channelNum);
2144:Generated_Source\PSoC5/USBFS_1.c **** 
2145:Generated_Source\PSoC5/USBFS_1.c ****             /* Configure source and destination. */
2146:Generated_Source\PSoC5/USBFS_1.c ****             USBFS_1_CyDmaSetSrcAddress(channelNum, USBFS_1_DMA_DESCR0, (void*) &USBFS_1_ARB_EP16_BA
2147:Generated_Source\PSoC5/USBFS_1.c ****             USBFS_1_CyDmaSetDstAddress(channelNum, USBFS_1_DMA_DESCR0, (void*) pData);
2148:Generated_Source\PSoC5/USBFS_1.c **** 
2149:Generated_Source\PSoC5/USBFS_1.c ****             /* Configure DMA descriptor. */
2150:Generated_Source\PSoC5/USBFS_1.c ****             USBFS_1_CyDmaSetConfiguration(channelNum, USBFS_1_DMA_DESCR0, USBFS_1_DMA_COMMON_CFG | 
2151:Generated_Source\PSoC5/USBFS_1.c ****                                                     CYDMA_HALFWORD | CYDMA_WORD_ELEMENT | CYDMA_INC
2152:Generated_Source\PSoC5/USBFS_1.c **** 
2153:Generated_Source\PSoC5/USBFS_1.c ****             /* Validate descriptor to execute on following DMA request. */
2154:Generated_Source\PSoC5/USBFS_1.c ****             USBFS_1_CyDmaValidateDescriptor(channelNum, USBFS_1_DMA_DESCR0);
2155:Generated_Source\PSoC5/USBFS_1.c **** 
ARM GAS  C:\Users\bchir\AppData\Local\Temp\ccbc5zmo.s 			page 54


2156:Generated_Source\PSoC5/USBFS_1.c ****             /* Enable DMA channel: configuration complete. */
2157:Generated_Source\PSoC5/USBFS_1.c ****             USBFS_1_CyDmaChEnable(channelNum);
2158:Generated_Source\PSoC5/USBFS_1.c **** 
2159:Generated_Source\PSoC5/USBFS_1.c ****             /* Generate DMA request. */
2160:Generated_Source\PSoC5/USBFS_1.c ****             USBFS_1_ARB_EP_BASE.arbEp[epNumber].epCfg |=  (uint32)  USBFS_1_ARB_EPX_CFG_DMA_REQ;
2161:Generated_Source\PSoC5/USBFS_1.c ****             USBFS_1_ARB_EP_BASE.arbEp[epNumber].epCfg &=  (uint32) ~USBFS_1_ARB_EPX_CFG_DMA_REQ;
2162:Generated_Source\PSoC5/USBFS_1.c **** 
2163:Generated_Source\PSoC5/USBFS_1.c ****             /* OUT endpoint has to be armed again by user when DMA transfers have been completed.
2164:Generated_Source\PSoC5/USBFS_1.c ****             * NO_EVENT_PENDING: notifies that data has been copied from endpoint buffer.
2165:Generated_Source\PSoC5/USBFS_1.c ****             */
2166:Generated_Source\PSoC5/USBFS_1.c ****         }
2167:Generated_Source\PSoC5/USBFS_1.c ****         #endif /* (USBFS_1_EP_MANAGEMENT_DMA_MANUAL) */
2168:Generated_Source\PSoC5/USBFS_1.c **** 
2169:Generated_Source\PSoC5/USBFS_1.c ****         #if (USBFS_1_EP_MANAGEMENT_DMA_AUTO)
2170:Generated_Source\PSoC5/USBFS_1.c ****         {
2171:Generated_Source\PSoC5/USBFS_1.c ****             uint32 lengthDescr0, lengthDescr1;
2172:Generated_Source\PSoC5/USBFS_1.c ****             uint32 channelNum = (uint32) USBFS_1_DmaChan[epNumber];
2173:Generated_Source\PSoC5/USBFS_1.c **** 
2174:Generated_Source\PSoC5/USBFS_1.c ****             /* Get number of full bursts. */
2175:Generated_Source\PSoC5/USBFS_1.c ****             USBFS_1_DmaEpBurstCnt[epNumber] = (uint8) (adjLength / USBFS_1_DMA_BYTES_PER_BURST);
2176:Generated_Source\PSoC5/USBFS_1.c **** 
2177:Generated_Source\PSoC5/USBFS_1.c ****             /* Get number of elements in last burst. */
2178:Generated_Source\PSoC5/USBFS_1.c ****             USBFS_1_DmaEpLastBurstEl[epNumber] = (uint8) (adjLength % USBFS_1_DMA_BYTES_PER_BURST);
2179:Generated_Source\PSoC5/USBFS_1.c **** 
2180:Generated_Source\PSoC5/USBFS_1.c ****             /* Get total number of bursts. */
2181:Generated_Source\PSoC5/USBFS_1.c ****             USBFS_1_DmaEpBurstCnt[epNumber] += (0u != USBFS_1_DmaEpLastBurstEl[epNumber]) ? 1u : 0u
2182:Generated_Source\PSoC5/USBFS_1.c **** 
2183:Generated_Source\PSoC5/USBFS_1.c ****             /* Adjust number of data elements transferred in last burst. */
2184:Generated_Source\PSoC5/USBFS_1.c ****             USBFS_1_DmaEpLastBurstEl[epNumber] = (0u != USBFS_1_DmaEpLastBurstEl[epNumber]) ?
2185:Generated_Source\PSoC5/USBFS_1.c ****                                                                   ((USBFS_1_DmaEpLastBurstEl[epNumb
2186:Generated_Source\PSoC5/USBFS_1.c ****                                                                    (USBFS_1_DMA_HALFWORDS_PER_BURST
2187:Generated_Source\PSoC5/USBFS_1.c **** 
2188:Generated_Source\PSoC5/USBFS_1.c ****             /* Get number of data elements to transfer for descriptor 0 and 1. */
2189:Generated_Source\PSoC5/USBFS_1.c ****             lengthDescr0 = (1u == USBFS_1_DmaEpBurstCnt[epNumber]) ? USBFS_1_DmaEpLastBurstEl[epNum
2190:Generated_Source\PSoC5/USBFS_1.c ****             lengthDescr1 = (2u == USBFS_1_DmaEpBurstCnt[epNumber]) ? USBFS_1_DmaEpLastBurstEl[epNum
2191:Generated_Source\PSoC5/USBFS_1.c **** 
2192:Generated_Source\PSoC5/USBFS_1.c ****             /* Mark last descriptor to be executed. */
2193:Generated_Source\PSoC5/USBFS_1.c ****             USBFS_1_DmaEpLastBurstEl[epNumber] |= (0u != (USBFS_1_DmaEpBurstCnt[epNumber] & 0x1u)) 
2194:Generated_Source\PSoC5/USBFS_1.c ****                                                                     USBFS_1_DMA_DESCR0_MASK : USBFS
2195:Generated_Source\PSoC5/USBFS_1.c **** 
2196:Generated_Source\PSoC5/USBFS_1.c ****             /* Mark if revert number of data elements in descriptor after transfer completion. */
2197:Generated_Source\PSoC5/USBFS_1.c ****             USBFS_1_DmaEpLastBurstEl[epNumber] |= (USBFS_1_DmaEpBurstCnt[epNumber] > 2u) ? USBFS_1_
2198:Generated_Source\PSoC5/USBFS_1.c **** 
2199:Generated_Source\PSoC5/USBFS_1.c ****             /* Mark that 16-bits access to data register is performed. */
2200:Generated_Source\PSoC5/USBFS_1.c ****             USBFS_1_DmaEpLastBurstEl[epNumber] |= USBFS_1_DMA_DESCR_16BITS;
2201:Generated_Source\PSoC5/USBFS_1.c **** 
2202:Generated_Source\PSoC5/USBFS_1.c ****             /* Store address of buffer and burst counter for endpoint. */
2203:Generated_Source\PSoC5/USBFS_1.c ****             USBFS_1_DmaEpBufferAddrBackup[epNumber] = (uint32) pData;
2204:Generated_Source\PSoC5/USBFS_1.c ****             USBFS_1_DmaEpBurstCntBackup[epNumber]   = USBFS_1_DmaEpBurstCnt[epNumber];
2205:Generated_Source\PSoC5/USBFS_1.c **** 
2206:Generated_Source\PSoC5/USBFS_1.c ****             /* Adjust burst counter taking to account: 2 valid descriptors and interrupt trigger af
2207:Generated_Source\PSoC5/USBFS_1.c ****             USBFS_1_DmaEpBurstCnt[epNumber] = USBFS_1_DMA_GET_BURST_CNT(USBFS_1_DmaEpBurstCnt[epNum
2208:Generated_Source\PSoC5/USBFS_1.c **** 
2209:Generated_Source\PSoC5/USBFS_1.c ****             /* Disable DMA channel: start configuration. */
2210:Generated_Source\PSoC5/USBFS_1.c ****             USBFS_1_CyDmaChDisable(channelNum);
2211:Generated_Source\PSoC5/USBFS_1.c **** 
2212:Generated_Source\PSoC5/USBFS_1.c ****             /* Set destination address. */
ARM GAS  C:\Users\bchir\AppData\Local\Temp\ccbc5zmo.s 			page 55


2213:Generated_Source\PSoC5/USBFS_1.c ****             USBFS_1_CyDmaSetSrcAddress(channelNum, USBFS_1_DMA_DESCR0, (void*) &USBFS_1_ARB_EP16_BA
2214:Generated_Source\PSoC5/USBFS_1.c ****             USBFS_1_CyDmaSetSrcAddress(channelNum, USBFS_1_DMA_DESCR1, (void*) &USBFS_1_ARB_EP16_BA
2215:Generated_Source\PSoC5/USBFS_1.c **** 
2216:Generated_Source\PSoC5/USBFS_1.c ****             USBFS_1_CyDmaSetDstAddress(channelNum, USBFS_1_DMA_DESCR0, (void*) ((uint32) pData));
2217:Generated_Source\PSoC5/USBFS_1.c ****             USBFS_1_CyDmaSetDstAddress(channelNum, USBFS_1_DMA_DESCR1, (void*) ((uint32) pData + US
2218:Generated_Source\PSoC5/USBFS_1.c **** 
2219:Generated_Source\PSoC5/USBFS_1.c ****             /* Configure DMA descriptor 0. */
2220:Generated_Source\PSoC5/USBFS_1.c ****             USBFS_1_CyDmaSetConfiguration(channelNum, USBFS_1_DMA_DESCR0, USBFS_1_DMA_COMMON_CFG  |
2221:Generated_Source\PSoC5/USBFS_1.c ****                                                     CYDMA_HALFWORD | CYDMA_WORD_ELEMENT | CYDMA_INC
2222:Generated_Source\PSoC5/USBFS_1.c **** 
2223:Generated_Source\PSoC5/USBFS_1.c ****             /* Configure DMA descriptor 1. */
2224:Generated_Source\PSoC5/USBFS_1.c ****             USBFS_1_CyDmaSetConfiguration(channelNum, USBFS_1_DMA_DESCR1, USBFS_1_DMA_COMMON_CFG  |
2225:Generated_Source\PSoC5/USBFS_1.c ****                                                     CYDMA_HALFWORD | CYDMA_WORD_ELEMENT | CYDMA_INC
2226:Generated_Source\PSoC5/USBFS_1.c **** 
2227:Generated_Source\PSoC5/USBFS_1.c ****             /* Enable interrupt from DMA channel. */
2228:Generated_Source\PSoC5/USBFS_1.c ****             USBFS_1_CyDmaSetInterruptMask(channelNum);
2229:Generated_Source\PSoC5/USBFS_1.c **** 
2230:Generated_Source\PSoC5/USBFS_1.c ****             /* Validate DMA descriptor 0 and 1. */
2231:Generated_Source\PSoC5/USBFS_1.c ****             USBFS_1_CyDmaValidateDescriptor(channelNum, USBFS_1_DMA_DESCR0);
2232:Generated_Source\PSoC5/USBFS_1.c ****             
2233:Generated_Source\PSoC5/USBFS_1.c ****             if (USBFS_1_DmaEpBurstCntBackup[epNumber] > 1u)
2234:Generated_Source\PSoC5/USBFS_1.c ****             {
2235:Generated_Source\PSoC5/USBFS_1.c ****                 USBFS_1_CyDmaValidateDescriptor(channelNum, USBFS_1_DMA_DESCR1);
2236:Generated_Source\PSoC5/USBFS_1.c ****             }
2237:Generated_Source\PSoC5/USBFS_1.c **** 
2238:Generated_Source\PSoC5/USBFS_1.c ****             /* Enable DMA channel: configuration complete. */
2239:Generated_Source\PSoC5/USBFS_1.c ****             USBFS_1_CyDmaChEnable(channelNum);
2240:Generated_Source\PSoC5/USBFS_1.c **** 
2241:Generated_Source\PSoC5/USBFS_1.c ****             /* OUT endpoint has to be armed again by user when DMA transfers have been completed.
2242:Generated_Source\PSoC5/USBFS_1.c ****             * NO_EVENT_PENDING: notifies that data has been copied from endpoint buffer.
2243:Generated_Source\PSoC5/USBFS_1.c ****             */
2244:Generated_Source\PSoC5/USBFS_1.c ****         }
2245:Generated_Source\PSoC5/USBFS_1.c ****         #endif /* (USBFS_1_EP_MANAGEMENT_DMA_AUTO) */
2246:Generated_Source\PSoC5/USBFS_1.c ****     #endif /* (USBFS_1_EP_MANAGEMENT_MANUAL) */
2247:Generated_Source\PSoC5/USBFS_1.c ****     }
2248:Generated_Source\PSoC5/USBFS_1.c ****     else
2249:Generated_Source\PSoC5/USBFS_1.c ****     {
2250:Generated_Source\PSoC5/USBFS_1.c ****         length = 0u;
2251:Generated_Source\PSoC5/USBFS_1.c ****     }
2252:Generated_Source\PSoC5/USBFS_1.c **** 
2253:Generated_Source\PSoC5/USBFS_1.c ****     return (length);
2254:Generated_Source\PSoC5/USBFS_1.c **** }
2255:Generated_Source\PSoC5/USBFS_1.c **** #endif /* (USBFS_1_16BITS_EP_ACCESS_ENABLE) */
2256:Generated_Source\PSoC5/USBFS_1.c **** 
2257:Generated_Source\PSoC5/USBFS_1.c **** 
2258:Generated_Source\PSoC5/USBFS_1.c **** /*******************************************************************************
2259:Generated_Source\PSoC5/USBFS_1.c **** * Function Name: USBFS_1_EnableOutEP
2260:Generated_Source\PSoC5/USBFS_1.c **** ****************************************************************************//**
2261:Generated_Source\PSoC5/USBFS_1.c **** *
2262:Generated_Source\PSoC5/USBFS_1.c **** *  This function enables the specified endpoint for OUT transfers. Do not call
2263:Generated_Source\PSoC5/USBFS_1.c **** *  this function for IN endpoints.
2264:Generated_Source\PSoC5/USBFS_1.c **** *
2265:Generated_Source\PSoC5/USBFS_1.c **** *  \param epNumber: Contains the data endpoint number. Valid values are between
2266:Generated_Source\PSoC5/USBFS_1.c **** *  1 and 8.
2267:Generated_Source\PSoC5/USBFS_1.c **** *
2268:Generated_Source\PSoC5/USBFS_1.c **** * \globalvars
2269:Generated_Source\PSoC5/USBFS_1.c **** *
ARM GAS  C:\Users\bchir\AppData\Local\Temp\ccbc5zmo.s 			page 56


2270:Generated_Source\PSoC5/USBFS_1.c **** *  \ref USBFS_1_EP[epNumber].apiEpState - set to NO_EVENT_PENDING
2271:Generated_Source\PSoC5/USBFS_1.c **** *
2272:Generated_Source\PSoC5/USBFS_1.c **** * \reentrant
2273:Generated_Source\PSoC5/USBFS_1.c **** *  No.
2274:Generated_Source\PSoC5/USBFS_1.c **** *
2275:Generated_Source\PSoC5/USBFS_1.c **** *******************************************************************************/
2276:Generated_Source\PSoC5/USBFS_1.c **** void USBFS_1_EnableOutEP(uint8 epNumber) 
2277:Generated_Source\PSoC5/USBFS_1.c **** {
 857              		.loc 1 2277 0
 858              		.cfi_startproc
 859              		@ args = 0, pretend = 0, frame = 0
 860              		@ frame_needed = 0, uses_anonymous_args = 0
 861              		@ link register save eliminated.
 862              	.LVL54:
2278:Generated_Source\PSoC5/USBFS_1.c ****     if ((epNumber > USBFS_1_EP0) && (epNumber < USBFS_1_MAX_EP))
 863              		.loc 1 2278 0
 864 0000 431E     		subs	r3, r0, #1
 865 0002 DBB2     		uxtb	r3, r3
 866 0004 072B     		cmp	r3, #7
 867 0006 0BD8     		bhi	.L61
2279:Generated_Source\PSoC5/USBFS_1.c ****     {
2280:Generated_Source\PSoC5/USBFS_1.c ****         USBFS_1_EP[epNumber].apiEpState = USBFS_1_NO_EVENT_PENDING;
 868              		.loc 1 2280 0
 869 0008 4200     		lsls	r2, r0, #1
 870 000a 0244     		add	r2, r2, r0
 871 000c 9300     		lsls	r3, r2, #2
 872 000e 054A     		ldr	r2, .L63
 873 0010 1344     		add	r3, r3, r2
 874 0012 0022     		movs	r2, #0
 875 0014 5A70     		strb	r2, [r3, #1]
2281:Generated_Source\PSoC5/USBFS_1.c **** 
2282:Generated_Source\PSoC5/USBFS_1.c ****         /* Enable OUT endpoint to be written by Host. */
2283:Generated_Source\PSoC5/USBFS_1.c ****         USBFS_1_SIE_EP_BASE.sieEp[epNumber].epCr0 = USBFS_1_EP[epNumber].epMode;
 876              		.loc 1 2283 0
 877 0016 5A79     		ldrb	r2, [r3, #5]	@ zero_extendqisi2
 878 0018 D2B2     		uxtb	r2, r2
 879 001a 0001     		lsls	r0, r0, #4
 880              	.LVL55:
 881 001c 024B     		ldr	r3, .L63+4
 882 001e 1A54     		strb	r2, [r3, r0]
 883              	.L61:
 884 0020 7047     		bx	lr
 885              	.L64:
 886 0022 00BF     		.align	2
 887              	.L63:
 888 0024 00000000 		.word	USBFS_1_EP
 889 0028 FE5F0040 		.word	1073766398
 890              		.cfi_endproc
 891              	.LFE13:
 892              		.size	USBFS_1_EnableOutEP, .-USBFS_1_EnableOutEP
 893              		.section	.text.USBFS_1_ReadOutEP,"ax",%progbits
 894              		.align	2
 895              		.global	USBFS_1_ReadOutEP
 896              		.thumb
 897              		.thumb_func
 898              		.type	USBFS_1_ReadOutEP, %function
 899              	USBFS_1_ReadOutEP:
ARM GAS  C:\Users\bchir\AppData\Local\Temp\ccbc5zmo.s 			page 57


 900              	.LFB12:
1655:Generated_Source\PSoC5/USBFS_1.c ****     if ((pData != NULL) && (epNumber > USBFS_1_EP0) && (epNumber < USBFS_1_MAX_EP))
 901              		.loc 1 1655 0
 902              		.cfi_startproc
 903              		@ args = 0, pretend = 0, frame = 0
 904              		@ frame_needed = 0, uses_anonymous_args = 0
 905              	.LVL56:
 906 0000 70B5     		push	{r4, r5, r6, lr}
 907              		.cfi_def_cfa_offset 16
 908              		.cfi_offset 4, -16
 909              		.cfi_offset 5, -12
 910              		.cfi_offset 6, -8
 911              		.cfi_offset 14, -4
1656:Generated_Source\PSoC5/USBFS_1.c ****     {
 912              		.loc 1 1656 0
 913 0002 D9B1     		cbz	r1, .L70
 914 0004 0546     		mov	r5, r0
 915 0006 1446     		mov	r4, r2
 916 0008 0E46     		mov	r6, r1
1656:Generated_Source\PSoC5/USBFS_1.c ****     {
 917              		.loc 1 1656 0 is_stmt 0 discriminator 1
 918 000a C8B1     		cbz	r0, .L71
1656:Generated_Source\PSoC5/USBFS_1.c ****     {
 919              		.loc 1 1656 0 discriminator 2
 920 000c 0828     		cmp	r0, #8
 921 000e 19D8     		bhi	.L72
1660:Generated_Source\PSoC5/USBFS_1.c ****     #endif /* (!USBFS_1_EP_MANAGEMENT_DMA_AUTO) */
 922              		.loc 1 1660 0 is_stmt 1
 923 0010 FFF7FEFF 		bl	USBFS_1_GetEPCount
 924              	.LVL57:
 925 0014 A042     		cmp	r0, r4
 926 0016 03D2     		bcs	.L67
1660:Generated_Source\PSoC5/USBFS_1.c ****     #endif /* (!USBFS_1_EP_MANAGEMENT_DMA_AUTO) */
 927              		.loc 1 1660 0 is_stmt 0 discriminator 1
 928 0018 2846     		mov	r0, r5
 929 001a FFF7FEFF 		bl	USBFS_1_GetEPCount
 930              	.LVL58:
 931 001e 0446     		mov	r4, r0
 932              	.L67:
 933              	.LVL59:
 934              	.LBB4:
1667:Generated_Source\PSoC5/USBFS_1.c ****             {
 935              		.loc 1 1667 0 is_stmt 1 discriminator 4
 936 0020 0023     		movs	r3, #0
 937 0022 05E0     		b	.L68
 938              	.LVL60:
 939              	.L69:
1669:Generated_Source\PSoC5/USBFS_1.c ****             }
 940              		.loc 1 1669 0 discriminator 3
 941 0024 2901     		lsls	r1, r5, #4
 942 0026 094A     		ldr	r2, .L74
 943 0028 525C     		ldrb	r2, [r2, r1]	@ zero_extendqisi2
 944 002a F254     		strb	r2, [r6, r3]
1667:Generated_Source\PSoC5/USBFS_1.c ****             {
 945              		.loc 1 1667 0 discriminator 3
 946 002c 0133     		adds	r3, r3, #1
 947              	.LVL61:
ARM GAS  C:\Users\bchir\AppData\Local\Temp\ccbc5zmo.s 			page 58


 948 002e 9BB2     		uxth	r3, r3
 949              	.LVL62:
 950              	.L68:
1667:Generated_Source\PSoC5/USBFS_1.c ****             {
 951              		.loc 1 1667 0 is_stmt 0 discriminator 1
 952 0030 A342     		cmp	r3, r4
 953 0032 F7D3     		bcc	.L69
 954              	.LBE4:
1674:Generated_Source\PSoC5/USBFS_1.c ****     #else
 955              		.loc 1 1674 0 is_stmt 1
 956 0034 2846     		mov	r0, r5
 957 0036 FFF7FEFF 		bl	USBFS_1_EnableOutEP
 958              	.LVL63:
 959 003a 04E0     		b	.L66
 960              	.LVL64:
 961              	.L70:
1820:Generated_Source\PSoC5/USBFS_1.c ****     }
 962              		.loc 1 1820 0
 963 003c 0024     		movs	r4, #0
 964 003e 02E0     		b	.L66
 965              	.L71:
 966 0040 0024     		movs	r4, #0
 967 0042 00E0     		b	.L66
 968              	.L72:
 969 0044 0024     		movs	r4, #0
 970              	.LVL65:
 971              	.L66:
1824:Generated_Source\PSoC5/USBFS_1.c **** 
 972              		.loc 1 1824 0
 973 0046 2046     		mov	r0, r4
 974 0048 70BD     		pop	{r4, r5, r6, pc}
 975              	.LVL66:
 976              	.L75:
 977 004a 00BF     		.align	2
 978              	.L74:
 979 004c 78600040 		.word	1073766520
 980              		.cfi_endproc
 981              	.LFE12:
 982              		.size	USBFS_1_ReadOutEP, .-USBFS_1_ReadOutEP
 983              		.section	.text.USBFS_1_DisableOutEP,"ax",%progbits
 984              		.align	2
 985              		.global	USBFS_1_DisableOutEP
 986              		.thumb
 987              		.thumb_func
 988              		.type	USBFS_1_DisableOutEP, %function
 989              	USBFS_1_DisableOutEP:
 990              	.LFB14:
2284:Generated_Source\PSoC5/USBFS_1.c ****         
2285:Generated_Source\PSoC5/USBFS_1.c ****     }
2286:Generated_Source\PSoC5/USBFS_1.c **** }
2287:Generated_Source\PSoC5/USBFS_1.c **** 
2288:Generated_Source\PSoC5/USBFS_1.c **** 
2289:Generated_Source\PSoC5/USBFS_1.c **** /*******************************************************************************
2290:Generated_Source\PSoC5/USBFS_1.c **** * Function Name: USBFS_1_DisableOutEP
2291:Generated_Source\PSoC5/USBFS_1.c **** ****************************************************************************//**
2292:Generated_Source\PSoC5/USBFS_1.c **** *
2293:Generated_Source\PSoC5/USBFS_1.c **** *  This function disables the specified USBFS OUT endpoint. Do not call this
ARM GAS  C:\Users\bchir\AppData\Local\Temp\ccbc5zmo.s 			page 59


2294:Generated_Source\PSoC5/USBFS_1.c **** *  function for IN endpoints.
2295:Generated_Source\PSoC5/USBFS_1.c **** *
2296:Generated_Source\PSoC5/USBFS_1.c **** *  \param epNumber: Contains the data endpoint number.
2297:Generated_Source\PSoC5/USBFS_1.c **** *            Valid values are between 1 and 8.
2298:Generated_Source\PSoC5/USBFS_1.c **** *
2299:Generated_Source\PSoC5/USBFS_1.c **** *******************************************************************************/
2300:Generated_Source\PSoC5/USBFS_1.c **** void USBFS_1_DisableOutEP(uint8 epNumber) 
2301:Generated_Source\PSoC5/USBFS_1.c **** {
 991              		.loc 1 2301 0
 992              		.cfi_startproc
 993              		@ args = 0, pretend = 0, frame = 0
 994              		@ frame_needed = 0, uses_anonymous_args = 0
 995              		@ link register save eliminated.
 996              	.LVL67:
2302:Generated_Source\PSoC5/USBFS_1.c ****     if ((epNumber > USBFS_1_EP0) && (epNumber < USBFS_1_MAX_EP))
 997              		.loc 1 2302 0
 998 0000 431E     		subs	r3, r0, #1
 999 0002 DBB2     		uxtb	r3, r3
 1000 0004 072B     		cmp	r3, #7
 1001 0006 03D8     		bhi	.L76
2303:Generated_Source\PSoC5/USBFS_1.c ****     {
2304:Generated_Source\PSoC5/USBFS_1.c ****         /* Set NAK response for OUT endpoint. */
2305:Generated_Source\PSoC5/USBFS_1.c ****         USBFS_1_SIE_EP_BASE.sieEp[epNumber].epCr0 = USBFS_1_MODE_NAK_OUT;
 1002              		.loc 1 2305 0
 1003 0008 0001     		lsls	r0, r0, #4
 1004              	.LVL68:
 1005 000a 024B     		ldr	r3, .L78
 1006 000c 0822     		movs	r2, #8
 1007 000e 1A54     		strb	r2, [r3, r0]
 1008              	.L76:
 1009 0010 7047     		bx	lr
 1010              	.L79:
 1011 0012 00BF     		.align	2
 1012              	.L78:
 1013 0014 FE5F0040 		.word	1073766398
 1014              		.cfi_endproc
 1015              	.LFE14:
 1016              		.size	USBFS_1_DisableOutEP, .-USBFS_1_DisableOutEP
 1017              		.section	.text.USBFS_1_Force,"ax",%progbits
 1018              		.align	2
 1019              		.global	USBFS_1_Force
 1020              		.thumb
 1021              		.thumb_func
 1022              		.type	USBFS_1_Force, %function
 1023              	USBFS_1_Force:
 1024              	.LFB15:
2306:Generated_Source\PSoC5/USBFS_1.c ****     }
2307:Generated_Source\PSoC5/USBFS_1.c **** }
2308:Generated_Source\PSoC5/USBFS_1.c **** 
2309:Generated_Source\PSoC5/USBFS_1.c **** 
2310:Generated_Source\PSoC5/USBFS_1.c **** /*******************************************************************************
2311:Generated_Source\PSoC5/USBFS_1.c **** * Function Name: USBFS_1_Force
2312:Generated_Source\PSoC5/USBFS_1.c **** ****************************************************************************//**
2313:Generated_Source\PSoC5/USBFS_1.c **** *
2314:Generated_Source\PSoC5/USBFS_1.c **** *  This function forces a USB J, K, or SE0 state on the D+/D– lines. It provides
2315:Generated_Source\PSoC5/USBFS_1.c **** *  the necessary mechanism for a USB device application to perform a USB Remote
2316:Generated_Source\PSoC5/USBFS_1.c **** *  Wakeup. For more information, see the USB 2.0 Specification for details on
ARM GAS  C:\Users\bchir\AppData\Local\Temp\ccbc5zmo.s 			page 60


2317:Generated_Source\PSoC5/USBFS_1.c **** *  Suspend and Resume.
2318:Generated_Source\PSoC5/USBFS_1.c **** *
2319:Generated_Source\PSoC5/USBFS_1.c **** *  \param state A byte indicating which of the four bus states to enable.
2320:Generated_Source\PSoC5/USBFS_1.c **** *        Symbolic names  and their associated values are listed here:
2321:Generated_Source\PSoC5/USBFS_1.c **** *    State                      |Description
2322:Generated_Source\PSoC5/USBFS_1.c **** *    ---------------------------|----------------------------------------------
2323:Generated_Source\PSoC5/USBFS_1.c **** *    USBFS_1_FORCE_J   | Force a J State onto the D+/D– lines
2324:Generated_Source\PSoC5/USBFS_1.c **** *    USBFS_1_FORCE_K   | Force a K State onto the D+/D– lines
2325:Generated_Source\PSoC5/USBFS_1.c **** *    USBFS_1_FORCE_SE0 | Force a Single Ended 0 onto the D+/D– lines
2326:Generated_Source\PSoC5/USBFS_1.c **** *    USBFS_1_FORCE_NONE| Return bus to SIE control
2327:Generated_Source\PSoC5/USBFS_1.c **** *
2328:Generated_Source\PSoC5/USBFS_1.c **** *
2329:Generated_Source\PSoC5/USBFS_1.c **** *******************************************************************************/
2330:Generated_Source\PSoC5/USBFS_1.c **** void USBFS_1_Force(uint8 bState) 
2331:Generated_Source\PSoC5/USBFS_1.c **** {
 1025              		.loc 1 2331 0
 1026              		.cfi_startproc
 1027              		@ args = 0, pretend = 0, frame = 0
 1028              		@ frame_needed = 0, uses_anonymous_args = 0
 1029              		@ link register save eliminated.
 1030              	.LVL69:
2332:Generated_Source\PSoC5/USBFS_1.c ****     /* This registers is used only for manual control of SIE (no masking is
2333:Generated_Source\PSoC5/USBFS_1.c ****     * needed before write into it).
2334:Generated_Source\PSoC5/USBFS_1.c ****     */
2335:Generated_Source\PSoC5/USBFS_1.c ****     USBFS_1_USBIO_CR0_REG = bState;
 1031              		.loc 1 2335 0
 1032 0000 014B     		ldr	r3, .L81
 1033 0002 1870     		strb	r0, [r3]
 1034 0004 7047     		bx	lr
 1035              	.L82:
 1036 0006 00BF     		.align	2
 1037              	.L81:
 1038 0008 10600040 		.word	1073766416
 1039              		.cfi_endproc
 1040              	.LFE15:
 1041              		.size	USBFS_1_Force, .-USBFS_1_Force
 1042              		.section	.text.USBFS_1_GetEPAckState,"ax",%progbits
 1043              		.align	2
 1044              		.global	USBFS_1_GetEPAckState
 1045              		.thumb
 1046              		.thumb_func
 1047              		.type	USBFS_1_GetEPAckState, %function
 1048              	USBFS_1_GetEPAckState:
 1049              	.LFB16:
2336:Generated_Source\PSoC5/USBFS_1.c **** }
2337:Generated_Source\PSoC5/USBFS_1.c **** 
2338:Generated_Source\PSoC5/USBFS_1.c **** 
2339:Generated_Source\PSoC5/USBFS_1.c **** /*******************************************************************************
2340:Generated_Source\PSoC5/USBFS_1.c **** * Function Name: USBFS_1_GetEPAckState
2341:Generated_Source\PSoC5/USBFS_1.c **** ****************************************************************************//**
2342:Generated_Source\PSoC5/USBFS_1.c **** *
2343:Generated_Source\PSoC5/USBFS_1.c **** *  This function determines whether an ACK transaction occurred on this endpoint
2344:Generated_Source\PSoC5/USBFS_1.c **** *  by reading the ACK bit in the control register of the endpoint. It does not
2345:Generated_Source\PSoC5/USBFS_1.c **** *  clear the ACK bit.
2346:Generated_Source\PSoC5/USBFS_1.c **** *
2347:Generated_Source\PSoC5/USBFS_1.c **** *  \param epNumber Contains the data endpoint number.
2348:Generated_Source\PSoC5/USBFS_1.c **** *            Valid values are between 1 and 8.
ARM GAS  C:\Users\bchir\AppData\Local\Temp\ccbc5zmo.s 			page 61


2349:Generated_Source\PSoC5/USBFS_1.c **** *
2350:Generated_Source\PSoC5/USBFS_1.c **** *  \return
2351:Generated_Source\PSoC5/USBFS_1.c **** *  If an ACKed transaction occurred, this function returns a non-zero value.
2352:Generated_Source\PSoC5/USBFS_1.c **** *  Otherwise, it returns zero.
2353:Generated_Source\PSoC5/USBFS_1.c **** *
2354:Generated_Source\PSoC5/USBFS_1.c **** *******************************************************************************/
2355:Generated_Source\PSoC5/USBFS_1.c **** uint8 USBFS_1_GetEPAckState(uint8 epNumber) 
2356:Generated_Source\PSoC5/USBFS_1.c **** {
 1050              		.loc 1 2356 0
 1051              		.cfi_startproc
 1052              		@ args = 0, pretend = 0, frame = 0
 1053              		@ frame_needed = 0, uses_anonymous_args = 0
 1054              		@ link register save eliminated.
 1055              	.LVL70:
2357:Generated_Source\PSoC5/USBFS_1.c ****     uint8 cr = 0u;
2358:Generated_Source\PSoC5/USBFS_1.c **** 
2359:Generated_Source\PSoC5/USBFS_1.c ****     if ((epNumber > USBFS_1_EP0) && (epNumber < USBFS_1_MAX_EP))
 1056              		.loc 1 2359 0
 1057 0000 431E     		subs	r3, r0, #1
 1058 0002 DBB2     		uxtb	r3, r3
 1059 0004 072B     		cmp	r3, #7
 1060 0006 06D8     		bhi	.L85
2360:Generated_Source\PSoC5/USBFS_1.c ****     {
2361:Generated_Source\PSoC5/USBFS_1.c ****         cr = USBFS_1_SIE_EP_BASE.sieEp[epNumber].epCr0 & USBFS_1_MODE_ACKD;
 1061              		.loc 1 2361 0
 1062 0008 0001     		lsls	r0, r0, #4
 1063              	.LVL71:
 1064 000a 044B     		ldr	r3, .L86
 1065 000c 185C     		ldrb	r0, [r3, r0]	@ zero_extendqisi2
 1066 000e 00F01000 		and	r0, r0, #16
 1067 0012 C0B2     		uxtb	r0, r0
 1068              	.LVL72:
 1069 0014 7047     		bx	lr
 1070              	.LVL73:
 1071              	.L85:
2357:Generated_Source\PSoC5/USBFS_1.c ****     uint8 cr = 0u;
 1072              		.loc 1 2357 0
 1073 0016 0020     		movs	r0, #0
 1074              	.LVL74:
2362:Generated_Source\PSoC5/USBFS_1.c ****     }
2363:Generated_Source\PSoC5/USBFS_1.c **** 
2364:Generated_Source\PSoC5/USBFS_1.c ****     return ((uint8) cr);
2365:Generated_Source\PSoC5/USBFS_1.c **** }
 1075              		.loc 1 2365 0
 1076 0018 7047     		bx	lr
 1077              	.L87:
 1078 001a 00BF     		.align	2
 1079              	.L86:
 1080 001c FE5F0040 		.word	1073766398
 1081              		.cfi_endproc
 1082              	.LFE16:
 1083              		.size	USBFS_1_GetEPAckState, .-USBFS_1_GetEPAckState
 1084              		.section	.text.USBFS_1_SetPowerStatus,"ax",%progbits
 1085              		.align	2
 1086              		.global	USBFS_1_SetPowerStatus
 1087              		.thumb
 1088              		.thumb_func
ARM GAS  C:\Users\bchir\AppData\Local\Temp\ccbc5zmo.s 			page 62


 1089              		.type	USBFS_1_SetPowerStatus, %function
 1090              	USBFS_1_SetPowerStatus:
 1091              	.LFB17:
2366:Generated_Source\PSoC5/USBFS_1.c **** 
2367:Generated_Source\PSoC5/USBFS_1.c **** 
2368:Generated_Source\PSoC5/USBFS_1.c **** /*******************************************************************************
2369:Generated_Source\PSoC5/USBFS_1.c **** * Function Name: USBFS_1_SetPowerStatus
2370:Generated_Source\PSoC5/USBFS_1.c **** ****************************************************************************//**
2371:Generated_Source\PSoC5/USBFS_1.c **** *
2372:Generated_Source\PSoC5/USBFS_1.c **** *  This function sets the current power status. The device replies to USB
2373:Generated_Source\PSoC5/USBFS_1.c **** *  GET_STATUS requests based on this value. This allows the device to properly
2374:Generated_Source\PSoC5/USBFS_1.c **** *  report its status for USB Chapter 9 compliance. Devices can change their
2375:Generated_Source\PSoC5/USBFS_1.c **** *  power source from self powered to bus powered at any time and report their
2376:Generated_Source\PSoC5/USBFS_1.c **** *  current power source as part of the device status. You should call this
2377:Generated_Source\PSoC5/USBFS_1.c **** *  function any time your device changes from self powered to bus powered or
2378:Generated_Source\PSoC5/USBFS_1.c **** *  vice versa, and set the status appropriately.
2379:Generated_Source\PSoC5/USBFS_1.c **** *
2380:Generated_Source\PSoC5/USBFS_1.c **** *  \param powerStatus: Contains the desired power status, one for self powered
2381:Generated_Source\PSoC5/USBFS_1.c **** *        or zero for bus powered. Symbolic names and their associated values are
2382:Generated_Source\PSoC5/USBFS_1.c **** *        given here:
2383:Generated_Source\PSoC5/USBFS_1.c **** *  Power Status                                |Description
2384:Generated_Source\PSoC5/USBFS_1.c **** *  --------------------------------------------|---------------------------
2385:Generated_Source\PSoC5/USBFS_1.c **** *  USBFS_1_DEVICE_STATUS_BUS_POWERED  | Set the device to bus powered
2386:Generated_Source\PSoC5/USBFS_1.c **** *  USBFS_1_DEVICE_STATUS_SELF_POWERED | Set the device to self powered
2387:Generated_Source\PSoC5/USBFS_1.c **** *
2388:Generated_Source\PSoC5/USBFS_1.c **** * \globalvars
2389:Generated_Source\PSoC5/USBFS_1.c **** *
2390:Generated_Source\PSoC5/USBFS_1.c **** *  \ref USBFS_1_deviceStatus - set power status
2391:Generated_Source\PSoC5/USBFS_1.c **** *
2392:Generated_Source\PSoC5/USBFS_1.c **** * \reentrant
2393:Generated_Source\PSoC5/USBFS_1.c **** *  No.
2394:Generated_Source\PSoC5/USBFS_1.c **** *
2395:Generated_Source\PSoC5/USBFS_1.c **** *******************************************************************************/
2396:Generated_Source\PSoC5/USBFS_1.c **** void USBFS_1_SetPowerStatus(uint8 powerStatus) 
2397:Generated_Source\PSoC5/USBFS_1.c **** {
 1092              		.loc 1 2397 0
 1093              		.cfi_startproc
 1094              		@ args = 0, pretend = 0, frame = 0
 1095              		@ frame_needed = 0, uses_anonymous_args = 0
 1096              		@ link register save eliminated.
 1097              	.LVL75:
2398:Generated_Source\PSoC5/USBFS_1.c ****     if (powerStatus != USBFS_1_DEVICE_STATUS_BUS_POWERED)
 1098              		.loc 1 2398 0
 1099 0000 28B1     		cbz	r0, .L89
2399:Generated_Source\PSoC5/USBFS_1.c ****     {
2400:Generated_Source\PSoC5/USBFS_1.c ****         USBFS_1_deviceStatus |= (uint8)  USBFS_1_DEVICE_STATUS_SELF_POWERED;
 1100              		.loc 1 2400 0
 1101 0002 064A     		ldr	r2, .L91
 1102 0004 1378     		ldrb	r3, [r2]	@ zero_extendqisi2
 1103 0006 43F00103 		orr	r3, r3, #1
 1104 000a 1370     		strb	r3, [r2]
 1105 000c 7047     		bx	lr
 1106              	.L89:
2401:Generated_Source\PSoC5/USBFS_1.c ****     }
2402:Generated_Source\PSoC5/USBFS_1.c ****     else
2403:Generated_Source\PSoC5/USBFS_1.c ****     {
2404:Generated_Source\PSoC5/USBFS_1.c ****         USBFS_1_deviceStatus &= (uint8) ~USBFS_1_DEVICE_STATUS_SELF_POWERED;
ARM GAS  C:\Users\bchir\AppData\Local\Temp\ccbc5zmo.s 			page 63


 1107              		.loc 1 2404 0
 1108 000e 034A     		ldr	r2, .L91
 1109 0010 1378     		ldrb	r3, [r2]	@ zero_extendqisi2
 1110 0012 03F0FE03 		and	r3, r3, #254
 1111 0016 1370     		strb	r3, [r2]
 1112 0018 7047     		bx	lr
 1113              	.L92:
 1114 001a 00BF     		.align	2
 1115              	.L91:
 1116 001c 00000000 		.word	USBFS_1_deviceStatus
 1117              		.cfi_endproc
 1118              	.LFE17:
 1119              		.size	USBFS_1_SetPowerStatus, .-USBFS_1_SetPowerStatus
 1120              		.section	.text.USBFS_1_RWUEnabled,"ax",%progbits
 1121              		.align	2
 1122              		.global	USBFS_1_RWUEnabled
 1123              		.thumb
 1124              		.thumb_func
 1125              		.type	USBFS_1_RWUEnabled, %function
 1126              	USBFS_1_RWUEnabled:
 1127              	.LFB18:
2405:Generated_Source\PSoC5/USBFS_1.c ****     }
2406:Generated_Source\PSoC5/USBFS_1.c **** }
2407:Generated_Source\PSoC5/USBFS_1.c **** 
2408:Generated_Source\PSoC5/USBFS_1.c **** 
2409:Generated_Source\PSoC5/USBFS_1.c **** #if (USBFS_1_VBUS_MONITORING_ENABLE)
2410:Generated_Source\PSoC5/USBFS_1.c ****     /***************************************************************************
2411:Generated_Source\PSoC5/USBFS_1.c ****     * Function Name: USBFS_1_VBusPresent
2412:Generated_Source\PSoC5/USBFS_1.c ****     ************************************************************************//**
2413:Generated_Source\PSoC5/USBFS_1.c ****     *
2414:Generated_Source\PSoC5/USBFS_1.c ****     *  Determines VBUS presence for self-powered devices. This function is
2415:Generated_Source\PSoC5/USBFS_1.c ****     *  available when the VBUS Monitoring option is enabled in the Advanced tab.
2416:Generated_Source\PSoC5/USBFS_1.c ****     *
2417:Generated_Source\PSoC5/USBFS_1.c ****     * \return
2418:Generated_Source\PSoC5/USBFS_1.c ****     *  The return value can be the following:
2419:Generated_Source\PSoC5/USBFS_1.c ****     *  Return Value | Description
2420:Generated_Source\PSoC5/USBFS_1.c ****     *  -------------|-----------------
2421:Generated_Source\PSoC5/USBFS_1.c ****     *  1            | VBUS is present
2422:Generated_Source\PSoC5/USBFS_1.c ****     *  0            | VBUS is absent
2423:Generated_Source\PSoC5/USBFS_1.c ****     *
2424:Generated_Source\PSoC5/USBFS_1.c ****     *
2425:Generated_Source\PSoC5/USBFS_1.c ****     ***************************************************************************/
2426:Generated_Source\PSoC5/USBFS_1.c ****     uint8 USBFS_1_VBusPresent(void) 
2427:Generated_Source\PSoC5/USBFS_1.c ****     {
2428:Generated_Source\PSoC5/USBFS_1.c ****         return ((0u != (USBFS_1_VBUS_STATUS_REG & USBFS_1_VBUS_VALID)) ? (uint8) 1u : (uint8) 0u);
2429:Generated_Source\PSoC5/USBFS_1.c ****     }
2430:Generated_Source\PSoC5/USBFS_1.c **** #endif /* (USBFS_1_VBUS_MONITORING_ENABLE) */
2431:Generated_Source\PSoC5/USBFS_1.c **** 
2432:Generated_Source\PSoC5/USBFS_1.c **** 
2433:Generated_Source\PSoC5/USBFS_1.c **** /*******************************************************************************
2434:Generated_Source\PSoC5/USBFS_1.c **** * Function Name: USBFS_1_RWUEnabled
2435:Generated_Source\PSoC5/USBFS_1.c **** ****************************************************************************//**
2436:Generated_Source\PSoC5/USBFS_1.c **** *
2437:Generated_Source\PSoC5/USBFS_1.c **** *  This function returns the current remote wakeup status.
2438:Generated_Source\PSoC5/USBFS_1.c **** *  If the device supports remote wakeup, the application should use this
2439:Generated_Source\PSoC5/USBFS_1.c **** *  function to determine if remote wakeup was enabled by the host. When the
2440:Generated_Source\PSoC5/USBFS_1.c **** *  device is suspended and it determines the conditions to initiate a remote
ARM GAS  C:\Users\bchir\AppData\Local\Temp\ccbc5zmo.s 			page 64


2441:Generated_Source\PSoC5/USBFS_1.c **** *  wakeup are met, the application should use the USBFS_Force() function to
2442:Generated_Source\PSoC5/USBFS_1.c **** *  force the appropriate J and K states onto the USB bus, signaling a remote
2443:Generated_Source\PSoC5/USBFS_1.c **** *  wakeup.
2444:Generated_Source\PSoC5/USBFS_1.c **** *
2445:Generated_Source\PSoC5/USBFS_1.c **** *
2446:Generated_Source\PSoC5/USBFS_1.c **** * \return
2447:Generated_Source\PSoC5/USBFS_1.c **** *  Returns non-zero value if remote wakeup is enabled and zero otherwise.
2448:Generated_Source\PSoC5/USBFS_1.c **** *
2449:Generated_Source\PSoC5/USBFS_1.c **** * \globalvars
2450:Generated_Source\PSoC5/USBFS_1.c **** *  USBFS_1_deviceStatus - checked to determine remote status
2451:Generated_Source\PSoC5/USBFS_1.c **** *
2452:Generated_Source\PSoC5/USBFS_1.c **** *******************************************************************************/
2453:Generated_Source\PSoC5/USBFS_1.c **** uint8 USBFS_1_RWUEnabled(void) 
2454:Generated_Source\PSoC5/USBFS_1.c **** {
 1128              		.loc 1 2454 0
 1129              		.cfi_startproc
 1130              		@ args = 0, pretend = 0, frame = 0
 1131              		@ frame_needed = 0, uses_anonymous_args = 0
 1132              		@ link register save eliminated.
 1133              	.LVL76:
2455:Generated_Source\PSoC5/USBFS_1.c ****     uint8 result = USBFS_1_FALSE;
2456:Generated_Source\PSoC5/USBFS_1.c **** 
2457:Generated_Source\PSoC5/USBFS_1.c ****     if (0u != (USBFS_1_deviceStatus & USBFS_1_DEVICE_STATUS_REMOTE_WAKEUP))
 1134              		.loc 1 2457 0
 1135 0000 044B     		ldr	r3, .L96
 1136 0002 1B78     		ldrb	r3, [r3]	@ zero_extendqisi2
 1137 0004 13F0020F 		tst	r3, #2
 1138 0008 01D1     		bne	.L95
2455:Generated_Source\PSoC5/USBFS_1.c ****     uint8 result = USBFS_1_FALSE;
 1139              		.loc 1 2455 0
 1140 000a 0020     		movs	r0, #0
 1141 000c 7047     		bx	lr
 1142              	.L95:
2458:Generated_Source\PSoC5/USBFS_1.c ****     {
2459:Generated_Source\PSoC5/USBFS_1.c ****         result = USBFS_1_TRUE;
 1143              		.loc 1 2459 0
 1144 000e 0120     		movs	r0, #1
 1145              	.LVL77:
2460:Generated_Source\PSoC5/USBFS_1.c ****     }
2461:Generated_Source\PSoC5/USBFS_1.c **** 
2462:Generated_Source\PSoC5/USBFS_1.c ****     return (result);
2463:Generated_Source\PSoC5/USBFS_1.c **** }
 1146              		.loc 1 2463 0
 1147 0010 7047     		bx	lr
 1148              	.L97:
 1149 0012 00BF     		.align	2
 1150              	.L96:
 1151 0014 00000000 		.word	USBFS_1_deviceStatus
 1152              		.cfi_endproc
 1153              	.LFE18:
 1154              		.size	USBFS_1_RWUEnabled, .-USBFS_1_RWUEnabled
 1155              		.section	.text.USBFS_1_GetDeviceAddress,"ax",%progbits
 1156              		.align	2
 1157              		.global	USBFS_1_GetDeviceAddress
 1158              		.thumb
 1159              		.thumb_func
 1160              		.type	USBFS_1_GetDeviceAddress, %function
ARM GAS  C:\Users\bchir\AppData\Local\Temp\ccbc5zmo.s 			page 65


 1161              	USBFS_1_GetDeviceAddress:
 1162              	.LFB19:
2464:Generated_Source\PSoC5/USBFS_1.c **** 
2465:Generated_Source\PSoC5/USBFS_1.c **** 
2466:Generated_Source\PSoC5/USBFS_1.c **** /*******************************************************************************
2467:Generated_Source\PSoC5/USBFS_1.c **** * Function Name: USBFS_1_GetDeviceAddress
2468:Generated_Source\PSoC5/USBFS_1.c **** ****************************************************************************//**
2469:Generated_Source\PSoC5/USBFS_1.c **** *
2470:Generated_Source\PSoC5/USBFS_1.c **** *  This function returns the currently assigned address for the USB device.
2471:Generated_Source\PSoC5/USBFS_1.c **** *
2472:Generated_Source\PSoC5/USBFS_1.c **** * \return
2473:Generated_Source\PSoC5/USBFS_1.c **** *  Returns the currently assigned address.
2474:Generated_Source\PSoC5/USBFS_1.c **** *  Returns 0 if the device has not yet been assigned an address.
2475:Generated_Source\PSoC5/USBFS_1.c **** *
2476:Generated_Source\PSoC5/USBFS_1.c **** *******************************************************************************/
2477:Generated_Source\PSoC5/USBFS_1.c **** uint8 USBFS_1_GetDeviceAddress(void) 
2478:Generated_Source\PSoC5/USBFS_1.c **** {
 1163              		.loc 1 2478 0
 1164              		.cfi_startproc
 1165              		@ args = 0, pretend = 0, frame = 0
 1166              		@ frame_needed = 0, uses_anonymous_args = 0
 1167              		@ link register save eliminated.
2479:Generated_Source\PSoC5/USBFS_1.c ****     return (uint8)(USBFS_1_CR0_REG & USBFS_1_CR0_DEVICE_ADDRESS_MASK);
 1168              		.loc 1 2479 0
 1169 0000 024B     		ldr	r3, .L99
 1170 0002 1878     		ldrb	r0, [r3]	@ zero_extendqisi2
2480:Generated_Source\PSoC5/USBFS_1.c **** }
 1171              		.loc 1 2480 0
 1172 0004 00F07F00 		and	r0, r0, #127
 1173 0008 7047     		bx	lr
 1174              	.L100:
 1175 000a 00BF     		.align	2
 1176              	.L99:
 1177 000c 08600040 		.word	1073766408
 1178              		.cfi_endproc
 1179              	.LFE19:
 1180              		.size	USBFS_1_GetDeviceAddress, .-USBFS_1_GetDeviceAddress
 1181              		.section	.text.USBFS_1_EnableSofInt,"ax",%progbits
 1182              		.align	2
 1183              		.global	USBFS_1_EnableSofInt
 1184              		.thumb
 1185              		.thumb_func
 1186              		.type	USBFS_1_EnableSofInt, %function
 1187              	USBFS_1_EnableSofInt:
 1188              	.LFB20:
2481:Generated_Source\PSoC5/USBFS_1.c **** 
2482:Generated_Source\PSoC5/USBFS_1.c **** 
2483:Generated_Source\PSoC5/USBFS_1.c **** /*******************************************************************************
2484:Generated_Source\PSoC5/USBFS_1.c **** * Function Name: USBFS_1_EnableSofInt
2485:Generated_Source\PSoC5/USBFS_1.c **** ****************************************************************************//**
2486:Generated_Source\PSoC5/USBFS_1.c **** *
2487:Generated_Source\PSoC5/USBFS_1.c **** *  This function enables interrupt generation when a Start-of-Frame (SOF)
2488:Generated_Source\PSoC5/USBFS_1.c **** *  packet is received from the host.
2489:Generated_Source\PSoC5/USBFS_1.c **** *
2490:Generated_Source\PSoC5/USBFS_1.c **** *******************************************************************************/
2491:Generated_Source\PSoC5/USBFS_1.c **** void USBFS_1_EnableSofInt(void) 
2492:Generated_Source\PSoC5/USBFS_1.c **** {
ARM GAS  C:\Users\bchir\AppData\Local\Temp\ccbc5zmo.s 			page 66


 1189              		.loc 1 2492 0
 1190              		.cfi_startproc
 1191              		@ args = 0, pretend = 0, frame = 0
 1192              		@ frame_needed = 0, uses_anonymous_args = 0
 1193              		@ link register save eliminated.
 1194 0000 7047     		bx	lr
 1195              		.cfi_endproc
 1196              	.LFE20:
 1197              		.size	USBFS_1_EnableSofInt, .-USBFS_1_EnableSofInt
 1198 0002 00BF     		.section	.text.USBFS_1_DisableSofInt,"ax",%progbits
 1199              		.align	2
 1200              		.global	USBFS_1_DisableSofInt
 1201              		.thumb
 1202              		.thumb_func
 1203              		.type	USBFS_1_DisableSofInt, %function
 1204              	USBFS_1_DisableSofInt:
 1205              	.LFB21:
2493:Generated_Source\PSoC5/USBFS_1.c **** #if (CY_PSOC4)
2494:Generated_Source\PSoC5/USBFS_1.c ****     /* Enable SOF interrupt interrupt source. */
2495:Generated_Source\PSoC5/USBFS_1.c ****     USBFS_1_INTR_SIE_MASK_REG |= (uint32) USBFS_1_INTR_SIE_SOF_INTR;
2496:Generated_Source\PSoC5/USBFS_1.c **** #else
2497:Generated_Source\PSoC5/USBFS_1.c ****     /* Enable SOF interrupt if it is present. */
2498:Generated_Source\PSoC5/USBFS_1.c ****     #if (USBFS_1_SOF_ISR_ACTIVE)
2499:Generated_Source\PSoC5/USBFS_1.c ****         CyIntEnable(USBFS_1_SOF_VECT_NUM);
2500:Generated_Source\PSoC5/USBFS_1.c ****     #endif /* (USBFS_1_SOF_ISR_ACTIVE) */
2501:Generated_Source\PSoC5/USBFS_1.c **** #endif /* (CY_PSOC4) */
2502:Generated_Source\PSoC5/USBFS_1.c **** }
2503:Generated_Source\PSoC5/USBFS_1.c **** 
2504:Generated_Source\PSoC5/USBFS_1.c **** 
2505:Generated_Source\PSoC5/USBFS_1.c **** /*******************************************************************************
2506:Generated_Source\PSoC5/USBFS_1.c **** * Function Name: USBFS_1_DisableSofInt
2507:Generated_Source\PSoC5/USBFS_1.c **** ****************************************************************************//**
2508:Generated_Source\PSoC5/USBFS_1.c **** *
2509:Generated_Source\PSoC5/USBFS_1.c **** *  This function disables interrupt generation when a Start-of-Frame (SOF)
2510:Generated_Source\PSoC5/USBFS_1.c **** *  packet is received from the host.
2511:Generated_Source\PSoC5/USBFS_1.c **** *
2512:Generated_Source\PSoC5/USBFS_1.c **** *******************************************************************************/
2513:Generated_Source\PSoC5/USBFS_1.c **** void USBFS_1_DisableSofInt(void) 
2514:Generated_Source\PSoC5/USBFS_1.c **** {
 1206              		.loc 1 2514 0
 1207              		.cfi_startproc
 1208              		@ args = 0, pretend = 0, frame = 0
 1209              		@ frame_needed = 0, uses_anonymous_args = 0
 1210              		@ link register save eliminated.
 1211 0000 7047     		bx	lr
 1212              		.cfi_endproc
 1213              	.LFE21:
 1214              		.size	USBFS_1_DisableSofInt, .-USBFS_1_DisableSofInt
 1215              		.global	USBFS_1_initVar
 1216 0002 00BF     		.bss
 1217              		.set	.LANCHOR0,. + 0
 1218              		.type	USBFS_1_initVar, %object
 1219              		.size	USBFS_1_initVar, 1
 1220              	USBFS_1_initVar:
 1221 0000 00       		.space	1
 1222              		.text
 1223              	.Letext0:
ARM GAS  C:\Users\bchir\AppData\Local\Temp\ccbc5zmo.s 			page 67


 1224              		.file 2 "Generated_Source\\PSoC5\\cytypes.h"
 1225              		.file 3 "Generated_Source\\PSoC5\\USBFS_1.h"
 1226              		.file 4 "Generated_Source\\PSoC5\\USBFS_1_pvt.h"
 1227              		.file 5 "Generated_Source\\PSoC5\\CyLib.h"
 1228              		.file 6 "Generated_Source\\PSoC5\\USBFS_1_Dp.h"
 1229              		.section	.debug_info,"",%progbits
 1230              	.Ldebug_info0:
 1231 0000 0C090000 		.4byte	0x90c
 1232 0004 0400     		.2byte	0x4
 1233 0006 00000000 		.4byte	.Ldebug_abbrev0
 1234 000a 04       		.byte	0x4
 1235 000b 01       		.uleb128 0x1
 1236 000c 71040000 		.4byte	.LASF99
 1237 0010 0C       		.byte	0xc
 1238 0011 24040000 		.4byte	.LASF100
 1239 0015 7C030000 		.4byte	.LASF101
 1240 0019 18000000 		.4byte	.Ldebug_ranges0+0x18
 1241 001d 00000000 		.4byte	0
 1242 0021 00000000 		.4byte	.Ldebug_line0
 1243 0025 02       		.uleb128 0x2
 1244 0026 01       		.byte	0x1
 1245 0027 06       		.byte	0x6
 1246 0028 B5000000 		.4byte	.LASF0
 1247 002c 02       		.uleb128 0x2
 1248 002d 01       		.byte	0x1
 1249 002e 08       		.byte	0x8
 1250 002f 16040000 		.4byte	.LASF1
 1251 0033 02       		.uleb128 0x2
 1252 0034 02       		.byte	0x2
 1253 0035 05       		.byte	0x5
 1254 0036 45040000 		.4byte	.LASF2
 1255 003a 02       		.uleb128 0x2
 1256 003b 02       		.byte	0x2
 1257 003c 07       		.byte	0x7
 1258 003d 47020000 		.4byte	.LASF3
 1259 0041 02       		.uleb128 0x2
 1260 0042 04       		.byte	0x4
 1261 0043 05       		.byte	0x5
 1262 0044 C6000000 		.4byte	.LASF4
 1263 0048 02       		.uleb128 0x2
 1264 0049 04       		.byte	0x4
 1265 004a 07       		.byte	0x7
 1266 004b BC010000 		.4byte	.LASF5
 1267 004f 02       		.uleb128 0x2
 1268 0050 08       		.byte	0x8
 1269 0051 05       		.byte	0x5
 1270 0052 A7000000 		.4byte	.LASF6
 1271 0056 02       		.uleb128 0x2
 1272 0057 08       		.byte	0x8
 1273 0058 07       		.byte	0x7
 1274 0059 54000000 		.4byte	.LASF7
 1275 005d 03       		.uleb128 0x3
 1276 005e 04       		.byte	0x4
 1277 005f 05       		.byte	0x5
 1278 0060 696E7400 		.ascii	"int\000"
 1279 0064 02       		.uleb128 0x2
 1280 0065 04       		.byte	0x4
ARM GAS  C:\Users\bchir\AppData\Local\Temp\ccbc5zmo.s 			page 68


 1281 0066 07       		.byte	0x7
 1282 0067 83010000 		.4byte	.LASF8
 1283 006b 04       		.uleb128 0x4
 1284 006c E1000000 		.4byte	.LASF9
 1285 0070 02       		.byte	0x2
 1286 0071 E901     		.2byte	0x1e9
 1287 0073 2C000000 		.4byte	0x2c
 1288 0077 04       		.uleb128 0x4
 1289 0078 00000000 		.4byte	.LASF10
 1290 007c 02       		.byte	0x2
 1291 007d EA01     		.2byte	0x1ea
 1292 007f 3A000000 		.4byte	0x3a
 1293 0083 04       		.uleb128 0x4
 1294 0084 33010000 		.4byte	.LASF11
 1295 0088 02       		.byte	0x2
 1296 0089 EB01     		.2byte	0x1eb
 1297 008b 48000000 		.4byte	0x48
 1298 008f 02       		.uleb128 0x2
 1299 0090 04       		.byte	0x4
 1300 0091 04       		.byte	0x4
 1301 0092 B0030000 		.4byte	.LASF12
 1302 0096 02       		.uleb128 0x2
 1303 0097 08       		.byte	0x8
 1304 0098 04       		.byte	0x4
 1305 0099 06010000 		.4byte	.LASF13
 1306 009d 02       		.uleb128 0x2
 1307 009e 01       		.byte	0x1
 1308 009f 08       		.byte	0x8
 1309 00a0 4E050000 		.4byte	.LASF14
 1310 00a4 04       		.uleb128 0x4
 1311 00a5 11040000 		.4byte	.LASF15
 1312 00a9 02       		.byte	0x2
 1313 00aa 9302     		.2byte	0x293
 1314 00ac B0000000 		.4byte	0xb0
 1315 00b0 05       		.uleb128 0x5
 1316 00b1 6B000000 		.4byte	0x6b
 1317 00b5 04       		.uleb128 0x4
 1318 00b6 D3020000 		.4byte	.LASF16
 1319 00ba 02       		.byte	0x2
 1320 00bb 9502     		.2byte	0x295
 1321 00bd C1000000 		.4byte	0xc1
 1322 00c1 05       		.uleb128 0x5
 1323 00c2 83000000 		.4byte	0x83
 1324 00c6 02       		.uleb128 0x2
 1325 00c7 08       		.byte	0x8
 1326 00c8 04       		.byte	0x4
 1327 00c9 18030000 		.4byte	.LASF17
 1328 00cd 02       		.uleb128 0x2
 1329 00ce 04       		.byte	0x4
 1330 00cf 07       		.byte	0x7
 1331 00d0 FC020000 		.4byte	.LASF18
 1332 00d4 06       		.uleb128 0x6
 1333 00d5 0C       		.byte	0xc
 1334 00d6 03       		.byte	0x3
 1335 00d7 88       		.byte	0x88
 1336 00d8 49010000 		.4byte	0x149
 1337 00dc 07       		.uleb128 0x7
ARM GAS  C:\Users\bchir\AppData\Local\Temp\ccbc5zmo.s 			page 69


 1338 00dd 24030000 		.4byte	.LASF19
 1339 00e1 03       		.byte	0x3
 1340 00e2 8A       		.byte	0x8a
 1341 00e3 6B000000 		.4byte	0x6b
 1342 00e7 00       		.byte	0
 1343 00e8 07       		.uleb128 0x7
 1344 00e9 CC030000 		.4byte	.LASF20
 1345 00ed 03       		.byte	0x3
 1346 00ee 8B       		.byte	0x8b
 1347 00ef 6B000000 		.4byte	0x6b
 1348 00f3 01       		.byte	0x1
 1349 00f4 07       		.uleb128 0x7
 1350 00f5 D9020000 		.4byte	.LASF21
 1351 00f9 03       		.byte	0x3
 1352 00fa 8C       		.byte	0x8c
 1353 00fb 6B000000 		.4byte	0x6b
 1354 00ff 02       		.byte	0x2
 1355 0100 07       		.uleb128 0x7
 1356 0101 E7000000 		.4byte	.LASF22
 1357 0105 03       		.byte	0x3
 1358 0106 8D       		.byte	0x8d
 1359 0107 6B000000 		.4byte	0x6b
 1360 010b 03       		.byte	0x3
 1361 010c 07       		.uleb128 0x7
 1362 010d 81000000 		.4byte	.LASF23
 1363 0111 03       		.byte	0x3
 1364 0112 8E       		.byte	0x8e
 1365 0113 6B000000 		.4byte	0x6b
 1366 0117 04       		.byte	0x4
 1367 0118 07       		.uleb128 0x7
 1368 0119 46010000 		.4byte	.LASF24
 1369 011d 03       		.byte	0x3
 1370 011e 8F       		.byte	0x8f
 1371 011f 6B000000 		.4byte	0x6b
 1372 0123 05       		.byte	0x5
 1373 0124 07       		.uleb128 0x7
 1374 0125 63050000 		.4byte	.LASF25
 1375 0129 03       		.byte	0x3
 1376 012a 90       		.byte	0x90
 1377 012b 77000000 		.4byte	0x77
 1378 012f 06       		.byte	0x6
 1379 0130 07       		.uleb128 0x7
 1380 0131 58050000 		.4byte	.LASF26
 1381 0135 03       		.byte	0x3
 1382 0136 91       		.byte	0x91
 1383 0137 77000000 		.4byte	0x77
 1384 013b 08       		.byte	0x8
 1385 013c 07       		.uleb128 0x7
 1386 013d C2020000 		.4byte	.LASF27
 1387 0141 03       		.byte	0x3
 1388 0142 92       		.byte	0x92
 1389 0143 6B000000 		.4byte	0x6b
 1390 0147 0A       		.byte	0xa
 1391 0148 00       		.byte	0
 1392 0149 08       		.uleb128 0x8
 1393 014a 69020000 		.4byte	.LASF28
 1394 014e 03       		.byte	0x3
ARM GAS  C:\Users\bchir\AppData\Local\Temp\ccbc5zmo.s 			page 70


 1395 014f 93       		.byte	0x93
 1396 0150 D4000000 		.4byte	0xd4
 1397 0154 06       		.uleb128 0x6
 1398 0155 10       		.byte	0x10
 1399 0156 03       		.byte	0x3
 1400 0157 CF       		.byte	0xcf
 1401 0158 8D010000 		.4byte	0x18d
 1402 015c 07       		.uleb128 0x7
 1403 015d 52030000 		.4byte	.LASF29
 1404 0161 03       		.byte	0x3
 1405 0162 D1       		.byte	0xd1
 1406 0163 6B000000 		.4byte	0x6b
 1407 0167 00       		.byte	0
 1408 0168 07       		.uleb128 0x7
 1409 0169 59030000 		.4byte	.LASF30
 1410 016d 03       		.byte	0x3
 1411 016e D2       		.byte	0xd2
 1412 016f 6B000000 		.4byte	0x6b
 1413 0173 01       		.byte	0x1
 1414 0174 07       		.uleb128 0x7
 1415 0175 76030000 		.4byte	.LASF31
 1416 0179 03       		.byte	0x3
 1417 017a D3       		.byte	0xd3
 1418 017b 6B000000 		.4byte	0x6b
 1419 017f 02       		.byte	0x2
 1420 0180 09       		.uleb128 0x9
 1421 0181 67617000 		.ascii	"gap\000"
 1422 0185 03       		.byte	0x3
 1423 0186 D4       		.byte	0xd4
 1424 0187 8D010000 		.4byte	0x18d
 1425 018b 03       		.byte	0x3
 1426 018c 00       		.byte	0
 1427 018d 0A       		.uleb128 0xa
 1428 018e 6B000000 		.4byte	0x6b
 1429 0192 9D010000 		.4byte	0x19d
 1430 0196 0B       		.uleb128 0xb
 1431 0197 CD000000 		.4byte	0xcd
 1432 019b 0C       		.byte	0xc
 1433 019c 00       		.byte	0
 1434 019d 08       		.uleb128 0x8
 1435 019e 60030000 		.4byte	.LASF32
 1436 01a2 03       		.byte	0x3
 1437 01a3 D5       		.byte	0xd5
 1438 01a4 54010000 		.4byte	0x154
 1439 01a8 06       		.uleb128 0x6
 1440 01a9 10       		.byte	0x10
 1441 01aa 03       		.byte	0x3
 1442 01ab E1       		.byte	0xe1
 1443 01ac 29020000 		.4byte	0x229
 1444 01b0 07       		.uleb128 0x7
 1445 01b1 86000000 		.4byte	.LASF33
 1446 01b5 03       		.byte	0x3
 1447 01b6 E3       		.byte	0xe3
 1448 01b7 6B000000 		.4byte	0x6b
 1449 01bb 00       		.byte	0
 1450 01bc 07       		.uleb128 0x7
 1451 01bd 09060000 		.4byte	.LASF34
ARM GAS  C:\Users\bchir\AppData\Local\Temp\ccbc5zmo.s 			page 71


 1452 01c1 03       		.byte	0x3
 1453 01c2 E4       		.byte	0xe4
 1454 01c3 6B000000 		.4byte	0x6b
 1455 01c7 01       		.byte	0x1
 1456 01c8 07       		.uleb128 0x7
 1457 01c9 2E010000 		.4byte	.LASF35
 1458 01cd 03       		.byte	0x3
 1459 01ce E5       		.byte	0xe5
 1460 01cf 6B000000 		.4byte	0x6b
 1461 01d3 02       		.byte	0x2
 1462 01d4 07       		.uleb128 0x7
 1463 01d5 65010000 		.4byte	.LASF36
 1464 01d9 03       		.byte	0x3
 1465 01da E6       		.byte	0xe6
 1466 01db 6B000000 		.4byte	0x6b
 1467 01df 03       		.byte	0x3
 1468 01e0 07       		.uleb128 0x7
 1469 01e1 F0000000 		.4byte	.LASF37
 1470 01e5 03       		.byte	0x3
 1471 01e6 E7       		.byte	0xe7
 1472 01e7 6B000000 		.4byte	0x6b
 1473 01eb 04       		.byte	0x4
 1474 01ec 07       		.uleb128 0x7
 1475 01ed FF040000 		.4byte	.LASF38
 1476 01f1 03       		.byte	0x3
 1477 01f2 E8       		.byte	0xe8
 1478 01f3 6B000000 		.4byte	0x6b
 1479 01f7 05       		.byte	0x5
 1480 01f8 07       		.uleb128 0x7
 1481 01f9 6C040000 		.4byte	.LASF39
 1482 01fd 03       		.byte	0x3
 1483 01fe E9       		.byte	0xe9
 1484 01ff 6B000000 		.4byte	0x6b
 1485 0203 06       		.byte	0x6
 1486 0204 07       		.uleb128 0x7
 1487 0205 4A030000 		.4byte	.LASF40
 1488 0209 03       		.byte	0x3
 1489 020a EA       		.byte	0xea
 1490 020b 6B000000 		.4byte	0x6b
 1491 020f 07       		.byte	0x7
 1492 0210 07       		.uleb128 0x7
 1493 0211 EF050000 		.4byte	.LASF41
 1494 0215 03       		.byte	0x3
 1495 0216 EB       		.byte	0xeb
 1496 0217 6B000000 		.4byte	0x6b
 1497 021b 08       		.byte	0x8
 1498 021c 09       		.uleb128 0x9
 1499 021d 67617000 		.ascii	"gap\000"
 1500 0221 03       		.byte	0x3
 1501 0222 EC       		.byte	0xec
 1502 0223 29020000 		.4byte	0x229
 1503 0227 09       		.byte	0x9
 1504 0228 00       		.byte	0
 1505 0229 0A       		.uleb128 0xa
 1506 022a 6B000000 		.4byte	0x6b
 1507 022e 39020000 		.4byte	0x239
 1508 0232 0B       		.uleb128 0xb
ARM GAS  C:\Users\bchir\AppData\Local\Temp\ccbc5zmo.s 			page 72


 1509 0233 CD000000 		.4byte	0xcd
 1510 0237 06       		.byte	0x6
 1511 0238 00       		.byte	0
 1512 0239 08       		.uleb128 0x8
 1513 023a A6010000 		.4byte	.LASF42
 1514 023e 03       		.byte	0x3
 1515 023f ED       		.byte	0xed
 1516 0240 A8010000 		.4byte	0x1a8
 1517 0244 0C       		.uleb128 0xc
 1518 0245 90       		.byte	0x90
 1519 0246 03       		.byte	0x3
 1520 0247 0901     		.2byte	0x109
 1521 0249 5B020000 		.4byte	0x25b
 1522 024d 0D       		.uleb128 0xd
 1523 024e 40010000 		.4byte	.LASF43
 1524 0252 03       		.byte	0x3
 1525 0253 0B01     		.2byte	0x10b
 1526 0255 5B020000 		.4byte	0x25b
 1527 0259 00       		.byte	0
 1528 025a 00       		.byte	0
 1529 025b 0A       		.uleb128 0xa
 1530 025c 9D010000 		.4byte	0x19d
 1531 0260 6B020000 		.4byte	0x26b
 1532 0264 0B       		.uleb128 0xb
 1533 0265 CD000000 		.4byte	0xcd
 1534 0269 08       		.byte	0x8
 1535 026a 00       		.byte	0
 1536 026b 04       		.uleb128 0x4
 1537 026c F2010000 		.4byte	.LASF44
 1538 0270 03       		.byte	0x3
 1539 0271 0C01     		.2byte	0x10c
 1540 0273 44020000 		.4byte	0x244
 1541 0277 0C       		.uleb128 0xc
 1542 0278 90       		.byte	0x90
 1543 0279 03       		.byte	0x3
 1544 027a 0F01     		.2byte	0x10f
 1545 027c 8E020000 		.4byte	0x28e
 1546 0280 0D       		.uleb128 0xd
 1547 0281 BC020000 		.4byte	.LASF45
 1548 0285 03       		.byte	0x3
 1549 0286 1101     		.2byte	0x111
 1550 0288 8E020000 		.4byte	0x28e
 1551 028c 00       		.byte	0
 1552 028d 00       		.byte	0
 1553 028e 0A       		.uleb128 0xa
 1554 028f 39020000 		.4byte	0x239
 1555 0293 9E020000 		.4byte	0x29e
 1556 0297 0B       		.uleb128 0xb
 1557 0298 CD000000 		.4byte	0xcd
 1558 029c 08       		.byte	0x8
 1559 029d 00       		.byte	0
 1560 029e 04       		.uleb128 0x4
 1561 029f 09020000 		.4byte	.LASF46
 1562 02a3 03       		.byte	0x3
 1563 02a4 1201     		.2byte	0x112
 1564 02a6 77020000 		.4byte	0x277
 1565 02aa 0E       		.uleb128 0xe
ARM GAS  C:\Users\bchir\AppData\Local\Temp\ccbc5zmo.s 			page 73


 1566 02ab 41050000 		.4byte	.LASF47
 1567 02af 01       		.byte	0x1
 1568 02b0 D3       		.byte	0xd3
 1569 02b1 00000000 		.4byte	.LFB1
 1570 02b5 04010000 		.4byte	.LFE1-.LFB1
 1571 02b9 01       		.uleb128 0x1
 1572 02ba 9C       		.byte	0x9c
 1573 02bb E5030000 		.4byte	0x3e5
 1574 02bf 0F       		.uleb128 0xf
 1575 02c0 DE050000 		.4byte	.LASF53
 1576 02c4 01       		.byte	0x1
 1577 02c5 FA       		.byte	0xfa
 1578 02c6 6B000000 		.4byte	0x6b
 1579 02ca 00000000 		.4byte	.LLST0
 1580 02ce 10       		.uleb128 0x10
 1581 02cf 06000000 		.4byte	.LVL0
 1582 02d3 C2080000 		.4byte	0x8c2
 1583 02d7 11       		.uleb128 0x11
 1584 02d8 3C000000 		.4byte	.LVL2
 1585 02dc CD080000 		.4byte	0x8cd
 1586 02e0 EA020000 		.4byte	0x2ea
 1587 02e4 12       		.uleb128 0x12
 1588 02e5 01       		.uleb128 0x1
 1589 02e6 50       		.byte	0x50
 1590 02e7 01       		.uleb128 0x1
 1591 02e8 30       		.byte	0x30
 1592 02e9 00       		.byte	0
 1593 02ea 11       		.uleb128 0x11
 1594 02eb 5C000000 		.4byte	.LVL3
 1595 02ef CD080000 		.4byte	0x8cd
 1596 02f3 FE020000 		.4byte	0x2fe
 1597 02f7 12       		.uleb128 0x12
 1598 02f8 01       		.uleb128 0x1
 1599 02f9 50       		.byte	0x50
 1600 02fa 02       		.uleb128 0x2
 1601 02fb 75       		.byte	0x75
 1602 02fc 00       		.sleb128 0
 1603 02fd 00       		.byte	0
 1604 02fe 11       		.uleb128 0x11
 1605 02ff 62000000 		.4byte	.LVL4
 1606 0303 CD080000 		.4byte	0x8cd
 1607 0307 12030000 		.4byte	0x312
 1608 030b 12       		.uleb128 0x12
 1609 030c 01       		.uleb128 0x1
 1610 030d 50       		.byte	0x50
 1611 030e 02       		.uleb128 0x2
 1612 030f 08       		.byte	0x8
 1613 0310 28       		.byte	0x28
 1614 0311 00       		.byte	0
 1615 0312 11       		.uleb128 0x11
 1616 0313 80000000 		.4byte	.LVL5
 1617 0317 CD080000 		.4byte	0x8cd
 1618 031b 26030000 		.4byte	0x326
 1619 031f 12       		.uleb128 0x12
 1620 0320 01       		.uleb128 0x1
 1621 0321 50       		.byte	0x50
 1622 0322 02       		.uleb128 0x2
ARM GAS  C:\Users\bchir\AppData\Local\Temp\ccbc5zmo.s 			page 74


 1623 0323 77       		.byte	0x77
 1624 0324 00       		.sleb128 0
 1625 0325 00       		.byte	0
 1626 0326 11       		.uleb128 0x11
 1627 0327 98000000 		.4byte	.LVL6
 1628 032b D8080000 		.4byte	0x8d8
 1629 032f 3A030000 		.4byte	0x33a
 1630 0333 12       		.uleb128 0x12
 1631 0334 01       		.uleb128 0x1
 1632 0335 50       		.byte	0x50
 1633 0336 02       		.uleb128 0x2
 1634 0337 76       		.byte	0x76
 1635 0338 00       		.sleb128 0
 1636 0339 00       		.byte	0
 1637 033a 11       		.uleb128 0x11
 1638 033b A0000000 		.4byte	.LVL7
 1639 033f E3080000 		.4byte	0x8e3
 1640 0343 52030000 		.4byte	0x352
 1641 0347 12       		.uleb128 0x12
 1642 0348 01       		.uleb128 0x1
 1643 0349 50       		.byte	0x50
 1644 034a 01       		.uleb128 0x1
 1645 034b 47       		.byte	0x47
 1646 034c 12       		.uleb128 0x12
 1647 034d 01       		.uleb128 0x1
 1648 034e 51       		.byte	0x51
 1649 034f 01       		.uleb128 0x1
 1650 0350 37       		.byte	0x37
 1651 0351 00       		.byte	0
 1652 0352 11       		.uleb128 0x11
 1653 0353 A8000000 		.4byte	.LVL8
 1654 0357 EE080000 		.4byte	0x8ee
 1655 035b 65030000 		.4byte	0x365
 1656 035f 12       		.uleb128 0x12
 1657 0360 01       		.uleb128 0x1
 1658 0361 50       		.byte	0x50
 1659 0362 01       		.uleb128 0x1
 1660 0363 47       		.byte	0x47
 1661 0364 00       		.byte	0
 1662 0365 11       		.uleb128 0x11
 1663 0366 B0000000 		.4byte	.LVL9
 1664 036a E3080000 		.4byte	0x8e3
 1665 036e 7D030000 		.4byte	0x37d
 1666 0372 12       		.uleb128 0x12
 1667 0373 01       		.uleb128 0x1
 1668 0374 50       		.byte	0x50
 1669 0375 01       		.uleb128 0x1
 1670 0376 48       		.byte	0x48
 1671 0377 12       		.uleb128 0x12
 1672 0378 01       		.uleb128 0x1
 1673 0379 51       		.byte	0x51
 1674 037a 01       		.uleb128 0x1
 1675 037b 37       		.byte	0x37
 1676 037c 00       		.byte	0
 1677 037d 11       		.uleb128 0x11
 1678 037e B8000000 		.4byte	.LVL10
 1679 0382 EE080000 		.4byte	0x8ee
ARM GAS  C:\Users\bchir\AppData\Local\Temp\ccbc5zmo.s 			page 75


 1680 0386 90030000 		.4byte	0x390
 1681 038a 12       		.uleb128 0x12
 1682 038b 01       		.uleb128 0x1
 1683 038c 50       		.byte	0x50
 1684 038d 01       		.uleb128 0x1
 1685 038e 48       		.byte	0x48
 1686 038f 00       		.byte	0
 1687 0390 11       		.uleb128 0x11
 1688 0391 C0000000 		.4byte	.LVL11
 1689 0395 E3080000 		.4byte	0x8e3
 1690 0399 A9030000 		.4byte	0x3a9
 1691 039d 12       		.uleb128 0x12
 1692 039e 01       		.uleb128 0x1
 1693 039f 50       		.byte	0x50
 1694 03a0 02       		.uleb128 0x2
 1695 03a1 75       		.byte	0x75
 1696 03a2 00       		.sleb128 0
 1697 03a3 12       		.uleb128 0x12
 1698 03a4 01       		.uleb128 0x1
 1699 03a5 51       		.byte	0x51
 1700 03a6 01       		.uleb128 0x1
 1701 03a7 37       		.byte	0x37
 1702 03a8 00       		.byte	0
 1703 03a9 11       		.uleb128 0x11
 1704 03aa C8000000 		.4byte	.LVL12
 1705 03ae EE080000 		.4byte	0x8ee
 1706 03b2 BD030000 		.4byte	0x3bd
 1707 03b6 12       		.uleb128 0x12
 1708 03b7 01       		.uleb128 0x1
 1709 03b8 50       		.byte	0x50
 1710 03b9 02       		.uleb128 0x2
 1711 03ba 75       		.byte	0x75
 1712 03bb 00       		.sleb128 0
 1713 03bc 00       		.byte	0
 1714 03bd 11       		.uleb128 0x11
 1715 03be D0000000 		.4byte	.LVL13
 1716 03c2 E3080000 		.4byte	0x8e3
 1717 03c6 D5030000 		.4byte	0x3d5
 1718 03ca 12       		.uleb128 0x12
 1719 03cb 01       		.uleb128 0x1
 1720 03cc 50       		.byte	0x50
 1721 03cd 01       		.uleb128 0x1
 1722 03ce 3C       		.byte	0x3c
 1723 03cf 12       		.uleb128 0x12
 1724 03d0 01       		.uleb128 0x1
 1725 03d1 51       		.byte	0x51
 1726 03d2 01       		.uleb128 0x1
 1727 03d3 37       		.byte	0x37
 1728 03d4 00       		.byte	0
 1729 03d5 13       		.uleb128 0x13
 1730 03d6 D8000000 		.4byte	.LVL14
 1731 03da EE080000 		.4byte	0x8ee
 1732 03de 12       		.uleb128 0x12
 1733 03df 01       		.uleb128 0x1
 1734 03e0 50       		.byte	0x50
 1735 03e1 01       		.uleb128 0x1
 1736 03e2 3C       		.byte	0x3c
ARM GAS  C:\Users\bchir\AppData\Local\Temp\ccbc5zmo.s 			page 76


 1737 03e3 00       		.byte	0
 1738 03e4 00       		.byte	0
 1739 03e5 14       		.uleb128 0x14
 1740 03e6 2B050000 		.4byte	.LASF48
 1741 03ea 01       		.byte	0x1
 1742 03eb CC01     		.2byte	0x1cc
 1743 03ed 00000000 		.4byte	.LFB2
 1744 03f1 AC000000 		.4byte	.LFE2-.LFB2
 1745 03f5 01       		.uleb128 0x1
 1746 03f6 9C       		.byte	0x9c
 1747 03f7 2B040000 		.4byte	0x42b
 1748 03fb 15       		.uleb128 0x15
 1749 03fc A0000000 		.4byte	.LASF49
 1750 0400 01       		.byte	0x1
 1751 0401 CC01     		.2byte	0x1cc
 1752 0403 6B000000 		.4byte	0x6b
 1753 0407 13000000 		.4byte	.LLST1
 1754 040b 15       		.uleb128 0x15
 1755 040c 53050000 		.4byte	.LASF50
 1756 0410 01       		.byte	0x1
 1757 0411 CC01     		.2byte	0x1cc
 1758 0413 6B000000 		.4byte	0x6b
 1759 0417 34000000 		.4byte	.LLST2
 1760 041b 13       		.uleb128 0x13
 1761 041c 72000000 		.4byte	.LVL18
 1762 0420 F9080000 		.4byte	0x8f9
 1763 0424 12       		.uleb128 0x12
 1764 0425 01       		.uleb128 0x1
 1765 0426 50       		.byte	0x50
 1766 0427 01       		.uleb128 0x1
 1767 0428 31       		.byte	0x31
 1768 0429 00       		.byte	0
 1769 042a 00       		.byte	0
 1770 042b 0E       		.uleb128 0xe
 1771 042c 39020000 		.4byte	.LASF51
 1772 0430 01       		.byte	0x1
 1773 0431 BA       		.byte	0xba
 1774 0432 00000000 		.4byte	.LFB0
 1775 0436 24000000 		.4byte	.LFE0-.LFB0
 1776 043a 01       		.uleb128 0x1
 1777 043b 9C       		.byte	0x9c
 1778 043c 7E040000 		.4byte	0x47e
 1779 0440 16       		.uleb128 0x16
 1780 0441 A0000000 		.4byte	.LASF49
 1781 0445 01       		.byte	0x1
 1782 0446 BA       		.byte	0xba
 1783 0447 6B000000 		.4byte	0x6b
 1784 044b 55000000 		.4byte	.LLST3
 1785 044f 16       		.uleb128 0x16
 1786 0450 53050000 		.4byte	.LASF50
 1787 0454 01       		.byte	0x1
 1788 0455 BA       		.byte	0xba
 1789 0456 6B000000 		.4byte	0x6b
 1790 045a 76000000 		.4byte	.LLST4
 1791 045e 10       		.uleb128 0x10
 1792 045f 10000000 		.4byte	.LVL20
 1793 0463 AA020000 		.4byte	0x2aa
ARM GAS  C:\Users\bchir\AppData\Local\Temp\ccbc5zmo.s 			page 77


 1794 0467 13       		.uleb128 0x13
 1795 0468 1E000000 		.4byte	.LVL21
 1796 046c E5030000 		.4byte	0x3e5
 1797 0470 12       		.uleb128 0x12
 1798 0471 01       		.uleb128 0x1
 1799 0472 50       		.byte	0x50
 1800 0473 02       		.uleb128 0x2
 1801 0474 74       		.byte	0x74
 1802 0475 00       		.sleb128 0
 1803 0476 12       		.uleb128 0x12
 1804 0477 01       		.uleb128 0x1
 1805 0478 51       		.byte	0x51
 1806 0479 02       		.uleb128 0x2
 1807 047a 75       		.byte	0x75
 1808 047b 00       		.sleb128 0
 1809 047c 00       		.byte	0
 1810 047d 00       		.byte	0
 1811 047e 17       		.uleb128 0x17
 1812 047f 44060000 		.4byte	.LASF78
 1813 0483 01       		.byte	0x1
 1814 0484 9F02     		.2byte	0x29f
 1815 0486 00000000 		.4byte	.LFB3
 1816 048a 4C000000 		.4byte	.LFE3-.LFB3
 1817 048e 01       		.uleb128 0x1
 1818 048f 9C       		.byte	0x9c
 1819 0490 14       		.uleb128 0x14
 1820 0491 CE010000 		.4byte	.LASF52
 1821 0495 01       		.byte	0x1
 1822 0496 D902     		.2byte	0x2d9
 1823 0498 00000000 		.4byte	.LFB4
 1824 049c AC000000 		.4byte	.LFE4-.LFB4
 1825 04a0 01       		.uleb128 0x1
 1826 04a1 9C       		.byte	0x9c
 1827 04a2 D2040000 		.4byte	0x4d2
 1828 04a6 18       		.uleb128 0x18
 1829 04a7 DE050000 		.4byte	.LASF53
 1830 04ab 01       		.byte	0x1
 1831 04ac DB02     		.2byte	0x2db
 1832 04ae 6B000000 		.4byte	0x6b
 1833 04b2 97000000 		.4byte	.LLST5
 1834 04b6 10       		.uleb128 0x10
 1835 04b7 06000000 		.4byte	.LVL22
 1836 04bb C2080000 		.4byte	0x8c2
 1837 04bf 10       		.uleb128 0x10
 1838 04c0 48000000 		.4byte	.LVL23
 1839 04c4 D8080000 		.4byte	0x8d8
 1840 04c8 10       		.uleb128 0x10
 1841 04c9 5E000000 		.4byte	.LVL24
 1842 04cd 04090000 		.4byte	0x904
 1843 04d1 00       		.byte	0
 1844 04d2 19       		.uleb128 0x19
 1845 04d3 2E000000 		.4byte	.LASF55
 1846 04d7 01       		.byte	0x1
 1847 04d8 5103     		.2byte	0x351
 1848 04da 6B000000 		.4byte	0x6b
 1849 04de 00000000 		.4byte	.LFB5
 1850 04e2 20000000 		.4byte	.LFE5-.LFB5
ARM GAS  C:\Users\bchir\AppData\Local\Temp\ccbc5zmo.s 			page 78


 1851 04e6 01       		.uleb128 0x1
 1852 04e7 9C       		.byte	0x9c
 1853 04e8 FD040000 		.4byte	0x4fd
 1854 04ec 18       		.uleb128 0x18
 1855 04ed CC020000 		.4byte	.LASF54
 1856 04f1 01       		.byte	0x1
 1857 04f2 5303     		.2byte	0x353
 1858 04f4 6B000000 		.4byte	0x6b
 1859 04f8 AA000000 		.4byte	.LLST6
 1860 04fc 00       		.byte	0
 1861 04fd 1A       		.uleb128 0x1a
 1862 04fe E3020000 		.4byte	.LASF76
 1863 0502 01       		.byte	0x1
 1864 0503 6803     		.2byte	0x368
 1865 0505 6B000000 		.4byte	0x6b
 1866 0509 00000000 		.4byte	.LFB6
 1867 050d 0C000000 		.4byte	.LFE6-.LFB6
 1868 0511 01       		.uleb128 0x1
 1869 0512 9C       		.byte	0x9c
 1870 0513 19       		.uleb128 0x19
 1871 0514 2B030000 		.4byte	.LASF56
 1872 0518 01       		.byte	0x1
 1873 0519 8203     		.2byte	0x382
 1874 051b 6B000000 		.4byte	0x6b
 1875 051f 00000000 		.4byte	.LFB7
 1876 0523 20000000 		.4byte	.LFE7-.LFB7
 1877 0527 01       		.uleb128 0x1
 1878 0528 9C       		.byte	0x9c
 1879 0529 3E050000 		.4byte	0x53e
 1880 052d 1B       		.uleb128 0x1b
 1881 052e 72657300 		.ascii	"res\000"
 1882 0532 01       		.byte	0x1
 1883 0533 8403     		.2byte	0x384
 1884 0535 6B000000 		.4byte	0x6b
 1885 0539 BD000000 		.4byte	.LLST7
 1886 053d 00       		.byte	0
 1887 053e 19       		.uleb128 0x19
 1888 053f 28060000 		.4byte	.LASF57
 1889 0543 01       		.byte	0x1
 1890 0544 9F03     		.2byte	0x39f
 1891 0546 6B000000 		.4byte	0x6b
 1892 054a 00000000 		.4byte	.LFB8
 1893 054e 0C000000 		.4byte	.LFE8-.LFB8
 1894 0552 01       		.uleb128 0x1
 1895 0553 9C       		.byte	0x9c
 1896 0554 69050000 		.4byte	0x569
 1897 0558 15       		.uleb128 0x15
 1898 0559 6E050000 		.4byte	.LASF58
 1899 055d 01       		.byte	0x1
 1900 055e 9F03     		.2byte	0x39f
 1901 0560 6B000000 		.4byte	0x6b
 1902 0564 F3000000 		.4byte	.LLST8
 1903 0568 00       		.byte	0
 1904 0569 19       		.uleb128 0x19
 1905 056a 05030000 		.4byte	.LASF59
 1906 056e 01       		.byte	0x1
 1907 056f BF03     		.2byte	0x3bf
ARM GAS  C:\Users\bchir\AppData\Local\Temp\ccbc5zmo.s 			page 79


 1908 0571 6B000000 		.4byte	0x6b
 1909 0575 00000000 		.4byte	.LFB9
 1910 0579 14000000 		.4byte	.LFE9-.LFB9
 1911 057d 01       		.uleb128 0x1
 1912 057e 9C       		.byte	0x9c
 1913 057f 94050000 		.4byte	0x594
 1914 0583 15       		.uleb128 0x15
 1915 0584 97000000 		.4byte	.LASF60
 1916 0588 01       		.byte	0x1
 1917 0589 BF03     		.2byte	0x3bf
 1918 058b 6B000000 		.4byte	0x6b
 1919 058f 14010000 		.4byte	.LLST9
 1920 0593 00       		.byte	0
 1921 0594 19       		.uleb128 0x19
 1922 0595 FE030000 		.4byte	.LASF61
 1923 0599 01       		.byte	0x1
 1924 059a D603     		.2byte	0x3d6
 1925 059c 77000000 		.4byte	0x77
 1926 05a0 00000000 		.4byte	.LFB10
 1927 05a4 28000000 		.4byte	.LFE10-.LFB10
 1928 05a8 01       		.uleb128 0x1
 1929 05a9 9C       		.byte	0x9c
 1930 05aa CF050000 		.4byte	0x5cf
 1931 05ae 15       		.uleb128 0x15
 1932 05af 97000000 		.4byte	.LASF60
 1933 05b3 01       		.byte	0x1
 1934 05b4 D603     		.2byte	0x3d6
 1935 05b6 6B000000 		.4byte	0x6b
 1936 05ba 35010000 		.4byte	.LLST10
 1937 05be 18       		.uleb128 0x18
 1938 05bf C1000000 		.4byte	.LASF62
 1939 05c3 01       		.byte	0x1
 1940 05c4 D803     		.2byte	0x3d8
 1941 05c6 77000000 		.4byte	0x77
 1942 05ca 6F010000 		.4byte	.LLST11
 1943 05ce 00       		.byte	0
 1944 05cf 14       		.uleb128 0x14
 1945 05d0 07000000 		.4byte	.LASF63
 1946 05d4 01       		.byte	0x1
 1947 05d5 3E05     		.2byte	0x53e
 1948 05d7 00000000 		.4byte	.LFB11
 1949 05db 94000000 		.4byte	.LFE11-.LFB11
 1950 05df 01       		.uleb128 0x1
 1951 05e0 9C       		.byte	0x9c
 1952 05e1 28060000 		.4byte	0x628
 1953 05e5 15       		.uleb128 0x15
 1954 05e6 97000000 		.4byte	.LASF60
 1955 05ea 01       		.byte	0x1
 1956 05eb 3E05     		.2byte	0x53e
 1957 05ed 6B000000 		.4byte	0x6b
 1958 05f1 BD010000 		.4byte	.LLST12
 1959 05f5 1C       		.uleb128 0x1c
 1960 05f6 3A010000 		.4byte	.LASF64
 1961 05fa 01       		.byte	0x1
 1962 05fb 3E05     		.2byte	0x53e
 1963 05fd 28060000 		.4byte	0x628
 1964 0601 01       		.uleb128 0x1
ARM GAS  C:\Users\bchir\AppData\Local\Temp\ccbc5zmo.s 			page 80


 1965 0602 51       		.byte	0x51
 1966 0603 15       		.uleb128 0x15
 1967 0604 D7050000 		.4byte	.LASF65
 1968 0608 01       		.byte	0x1
 1969 0609 3E05     		.2byte	0x53e
 1970 060b 77000000 		.4byte	0x77
 1971 060f DE010000 		.4byte	.LLST13
 1972 0613 1D       		.uleb128 0x1d
 1973 0614 00000000 		.4byte	.Ldebug_ranges0+0
 1974 0618 1B       		.uleb128 0x1b
 1975 0619 6900     		.ascii	"i\000"
 1976 061b 01       		.byte	0x1
 1977 061c 5305     		.2byte	0x553
 1978 061e 77000000 		.4byte	0x77
 1979 0622 0A020000 		.4byte	.LLST14
 1980 0626 00       		.byte	0
 1981 0627 00       		.byte	0
 1982 0628 1E       		.uleb128 0x1e
 1983 0629 04       		.byte	0x4
 1984 062a 2E060000 		.4byte	0x62e
 1985 062e 1F       		.uleb128 0x1f
 1986 062f 6B000000 		.4byte	0x6b
 1987 0633 14       		.uleb128 0x14
 1988 0634 97020000 		.4byte	.LASF66
 1989 0638 01       		.byte	0x1
 1990 0639 E408     		.2byte	0x8e4
 1991 063b 00000000 		.4byte	.LFB13
 1992 063f 2C000000 		.4byte	.LFE13-.LFB13
 1993 0643 01       		.uleb128 0x1
 1994 0644 9C       		.byte	0x9c
 1995 0645 5A060000 		.4byte	0x65a
 1996 0649 15       		.uleb128 0x15
 1997 064a 97000000 		.4byte	.LASF60
 1998 064e 01       		.byte	0x1
 1999 064f E408     		.2byte	0x8e4
 2000 0651 6B000000 		.4byte	0x6b
 2001 0655 33020000 		.4byte	.LLST15
 2002 0659 00       		.byte	0
 2003 065a 19       		.uleb128 0x19
 2004 065b CF000000 		.4byte	.LASF67
 2005 065f 01       		.byte	0x1
 2006 0660 7506     		.2byte	0x675
 2007 0662 77000000 		.4byte	0x77
 2008 0666 00000000 		.4byte	.LFB12
 2009 066a 50000000 		.4byte	.LFE12-.LFB12
 2010 066e 01       		.uleb128 0x1
 2011 066f 9C       		.byte	0x9c
 2012 0670 F9060000 		.4byte	0x6f9
 2013 0674 15       		.uleb128 0x15
 2014 0675 97000000 		.4byte	.LASF60
 2015 0679 01       		.byte	0x1
 2016 067a 7506     		.2byte	0x675
 2017 067c 6B000000 		.4byte	0x6b
 2018 0680 54020000 		.4byte	.LLST16
 2019 0684 15       		.uleb128 0x15
 2020 0685 3A010000 		.4byte	.LASF64
 2021 0689 01       		.byte	0x1
ARM GAS  C:\Users\bchir\AppData\Local\Temp\ccbc5zmo.s 			page 81


 2022 068a 7506     		.2byte	0x675
 2023 068c F9060000 		.4byte	0x6f9
 2024 0690 8E020000 		.4byte	.LLST17
 2025 0694 15       		.uleb128 0x15
 2026 0695 D7050000 		.4byte	.LASF65
 2027 0699 01       		.byte	0x1
 2028 069a 7506     		.2byte	0x675
 2029 069c 77000000 		.4byte	0x77
 2030 06a0 C5020000 		.4byte	.LLST18
 2031 06a4 20       		.uleb128 0x20
 2032 06a5 20000000 		.4byte	.LBB4
 2033 06a9 14000000 		.4byte	.LBE4-.LBB4
 2034 06ad C0060000 		.4byte	0x6c0
 2035 06b1 1B       		.uleb128 0x1b
 2036 06b2 6900     		.ascii	"i\000"
 2037 06b4 01       		.byte	0x1
 2038 06b5 8206     		.2byte	0x682
 2039 06b7 77000000 		.4byte	0x77
 2040 06bb 07030000 		.4byte	.LLST19
 2041 06bf 00       		.byte	0
 2042 06c0 11       		.uleb128 0x11
 2043 06c1 14000000 		.4byte	.LVL57
 2044 06c5 94050000 		.4byte	0x594
 2045 06c9 D4060000 		.4byte	0x6d4
 2046 06cd 12       		.uleb128 0x12
 2047 06ce 01       		.uleb128 0x1
 2048 06cf 50       		.byte	0x50
 2049 06d0 02       		.uleb128 0x2
 2050 06d1 75       		.byte	0x75
 2051 06d2 00       		.sleb128 0
 2052 06d3 00       		.byte	0
 2053 06d4 11       		.uleb128 0x11
 2054 06d5 1E000000 		.4byte	.LVL58
 2055 06d9 94050000 		.4byte	0x594
 2056 06dd E8060000 		.4byte	0x6e8
 2057 06e1 12       		.uleb128 0x12
 2058 06e2 01       		.uleb128 0x1
 2059 06e3 50       		.byte	0x50
 2060 06e4 02       		.uleb128 0x2
 2061 06e5 75       		.byte	0x75
 2062 06e6 00       		.sleb128 0
 2063 06e7 00       		.byte	0
 2064 06e8 13       		.uleb128 0x13
 2065 06e9 3A000000 		.4byte	.LVL63
 2066 06ed 33060000 		.4byte	0x633
 2067 06f1 12       		.uleb128 0x12
 2068 06f2 01       		.uleb128 0x1
 2069 06f3 50       		.byte	0x50
 2070 06f4 02       		.uleb128 0x2
 2071 06f5 75       		.byte	0x75
 2072 06f6 00       		.sleb128 0
 2073 06f7 00       		.byte	0
 2074 06f8 00       		.byte	0
 2075 06f9 1E       		.uleb128 0x1e
 2076 06fa 04       		.byte	0x4
 2077 06fb 6B000000 		.4byte	0x6b
 2078 06ff 14       		.uleb128 0x14
ARM GAS  C:\Users\bchir\AppData\Local\Temp\ccbc5zmo.s 			page 82


 2079 0700 6E010000 		.4byte	.LASF68
 2080 0704 01       		.byte	0x1
 2081 0705 FC08     		.2byte	0x8fc
 2082 0707 00000000 		.4byte	.LFB14
 2083 070b 18000000 		.4byte	.LFE14-.LFB14
 2084 070f 01       		.uleb128 0x1
 2085 0710 9C       		.byte	0x9c
 2086 0711 26070000 		.4byte	0x726
 2087 0715 15       		.uleb128 0x15
 2088 0716 97000000 		.4byte	.LASF60
 2089 071a 01       		.byte	0x1
 2090 071b FC08     		.2byte	0x8fc
 2091 071d 6B000000 		.4byte	0x6b
 2092 0721 31030000 		.4byte	.LLST20
 2093 0725 00       		.byte	0
 2094 0726 14       		.uleb128 0x14
 2095 0727 5E040000 		.4byte	.LASF69
 2096 072b 01       		.byte	0x1
 2097 072c 1A09     		.2byte	0x91a
 2098 072e 00000000 		.4byte	.LFB15
 2099 0732 0C000000 		.4byte	.LFE15-.LFB15
 2100 0736 01       		.uleb128 0x1
 2101 0737 9C       		.byte	0x9c
 2102 0738 4B070000 		.4byte	0x74b
 2103 073c 1C       		.uleb128 0x1c
 2104 073d 07050000 		.4byte	.LASF70
 2105 0741 01       		.byte	0x1
 2106 0742 1A09     		.2byte	0x91a
 2107 0744 6B000000 		.4byte	0x6b
 2108 0748 01       		.uleb128 0x1
 2109 0749 50       		.byte	0x50
 2110 074a 00       		.byte	0
 2111 074b 19       		.uleb128 0x19
 2112 074c 18000000 		.4byte	.LASF71
 2113 0750 01       		.byte	0x1
 2114 0751 3309     		.2byte	0x933
 2115 0753 6B000000 		.4byte	0x6b
 2116 0757 00000000 		.4byte	.LFB16
 2117 075b 20000000 		.4byte	.LFE16-.LFB16
 2118 075f 01       		.uleb128 0x1
 2119 0760 9C       		.byte	0x9c
 2120 0761 85070000 		.4byte	0x785
 2121 0765 15       		.uleb128 0x15
 2122 0766 97000000 		.4byte	.LASF60
 2123 076a 01       		.byte	0x1
 2124 076b 3309     		.2byte	0x933
 2125 076d 6B000000 		.4byte	0x6b
 2126 0771 52030000 		.4byte	.LLST21
 2127 0775 1B       		.uleb128 0x1b
 2128 0776 637200   		.ascii	"cr\000"
 2129 0779 01       		.byte	0x1
 2130 077a 3509     		.2byte	0x935
 2131 077c 6B000000 		.4byte	0x6b
 2132 0780 8C030000 		.4byte	.LLST22
 2133 0784 00       		.byte	0
 2134 0785 14       		.uleb128 0x14
 2135 0786 80020000 		.4byte	.LASF72
ARM GAS  C:\Users\bchir\AppData\Local\Temp\ccbc5zmo.s 			page 83


 2136 078a 01       		.byte	0x1
 2137 078b 5C09     		.2byte	0x95c
 2138 078d 00000000 		.4byte	.LFB17
 2139 0791 20000000 		.4byte	.LFE17-.LFB17
 2140 0795 01       		.uleb128 0x1
 2141 0796 9C       		.byte	0x9c
 2142 0797 AA070000 		.4byte	0x7aa
 2143 079b 1C       		.uleb128 0x1c
 2144 079c 0D010000 		.4byte	.LASF73
 2145 07a0 01       		.byte	0x1
 2146 07a1 5C09     		.2byte	0x95c
 2147 07a3 6B000000 		.4byte	0x6b
 2148 07a7 01       		.uleb128 0x1
 2149 07a8 50       		.byte	0x50
 2150 07a9 00       		.byte	0
 2151 07aa 19       		.uleb128 0x19
 2152 07ab AE050000 		.4byte	.LASF74
 2153 07af 01       		.byte	0x1
 2154 07b0 9509     		.2byte	0x995
 2155 07b2 6B000000 		.4byte	0x6b
 2156 07b6 00000000 		.4byte	.LFB18
 2157 07ba 18000000 		.4byte	.LFE18-.LFB18
 2158 07be 01       		.uleb128 0x1
 2159 07bf 9C       		.byte	0x9c
 2160 07c0 D5070000 		.4byte	0x7d5
 2161 07c4 18       		.uleb128 0x18
 2162 07c5 F5000000 		.4byte	.LASF75
 2163 07c9 01       		.byte	0x1
 2164 07ca 9709     		.2byte	0x997
 2165 07cc 6B000000 		.4byte	0x6b
 2166 07d0 C2030000 		.4byte	.LLST23
 2167 07d4 00       		.byte	0
 2168 07d5 1A       		.uleb128 0x1a
 2169 07d6 20020000 		.4byte	.LASF77
 2170 07da 01       		.byte	0x1
 2171 07db AD09     		.2byte	0x9ad
 2172 07dd 6B000000 		.4byte	0x6b
 2173 07e1 00000000 		.4byte	.LFB19
 2174 07e5 10000000 		.4byte	.LFE19-.LFB19
 2175 07e9 01       		.uleb128 0x1
 2176 07ea 9C       		.byte	0x9c
 2177 07eb 17       		.uleb128 0x17
 2178 07ec F4050000 		.4byte	.LASF79
 2179 07f0 01       		.byte	0x1
 2180 07f1 BB09     		.2byte	0x9bb
 2181 07f3 00000000 		.4byte	.LFB20
 2182 07f7 02000000 		.4byte	.LFE20-.LFB20
 2183 07fb 01       		.uleb128 0x1
 2184 07fc 9C       		.byte	0x9c
 2185 07fd 17       		.uleb128 0x17
 2186 07fe 6B000000 		.4byte	.LASF80
 2187 0802 01       		.byte	0x1
 2188 0803 D109     		.2byte	0x9d1
 2189 0805 00000000 		.4byte	.LFB21
 2190 0809 02000000 		.4byte	.LFE21-.LFB21
 2191 080d 01       		.uleb128 0x1
 2192 080e 9C       		.byte	0x9c
ARM GAS  C:\Users\bchir\AppData\Local\Temp\ccbc5zmo.s 			page 84


 2193 080f 21       		.uleb128 0x21
 2194 0810 44000000 		.4byte	.LASF81
 2195 0814 01       		.byte	0x1
 2196 0815 28       		.byte	0x28
 2197 0816 6B000000 		.4byte	0x6b
 2198 081a 05       		.uleb128 0x5
 2199 081b 03       		.byte	0x3
 2200 081c 00000000 		.4byte	USBFS_1_initVar
 2201 0820 22       		.uleb128 0x22
 2202 0821 4F040000 		.4byte	.LASF82
 2203 0825 03       		.byte	0x3
 2204 0826 CD02     		.2byte	0x2cd
 2205 0828 B0000000 		.4byte	0xb0
 2206 082c 22       		.uleb128 0x22
 2207 082d 7E050000 		.4byte	.LASF83
 2208 0831 03       		.byte	0x3
 2209 0832 CE02     		.2byte	0x2ce
 2210 0834 B0000000 		.4byte	0xb0
 2211 0838 22       		.uleb128 0x22
 2212 0839 90010000 		.4byte	.LASF84
 2213 083d 03       		.byte	0x3
 2214 083e CF02     		.2byte	0x2cf
 2215 0840 B0000000 		.4byte	0xb0
 2216 0844 22       		.uleb128 0x22
 2217 0845 0E050000 		.4byte	.LASF85
 2218 0849 03       		.byte	0x3
 2219 084a D002     		.2byte	0x2d0
 2220 084c B0000000 		.4byte	0xb0
 2221 0850 22       		.uleb128 0x22
 2222 0851 19010000 		.4byte	.LASF86
 2223 0855 03       		.byte	0x3
 2224 0856 D102     		.2byte	0x2d1
 2225 0858 B0000000 		.4byte	0xb0
 2226 085c 23       		.uleb128 0x23
 2227 085d 4D010000 		.4byte	.LASF87
 2228 0861 04       		.byte	0x4
 2229 0862 70       		.byte	0x70
 2230 0863 B0000000 		.4byte	0xb0
 2231 0867 0A       		.uleb128 0xa
 2232 0868 B0000000 		.4byte	0xb0
 2233 086c 77080000 		.4byte	0x877
 2234 0870 0B       		.uleb128 0xb
 2235 0871 CD000000 		.4byte	0xcd
 2236 0875 00       		.byte	0
 2237 0876 00       		.byte	0
 2238 0877 23       		.uleb128 0x23
 2239 0878 D7030000 		.4byte	.LASF88
 2240 087c 04       		.byte	0x4
 2241 087d 71       		.byte	0x71
 2242 087e 82080000 		.4byte	0x882
 2243 0882 05       		.uleb128 0x5
 2244 0883 67080000 		.4byte	0x867
 2245 0887 23       		.uleb128 0x23
 2246 0888 C1050000 		.4byte	.LASF89
 2247 088c 04       		.byte	0x4
 2248 088d 73       		.byte	0x73
 2249 088e B0000000 		.4byte	0xb0
ARM GAS  C:\Users\bchir\AppData\Local\Temp\ccbc5zmo.s 			page 85


 2250 0892 0A       		.uleb128 0xa
 2251 0893 A2080000 		.4byte	0x8a2
 2252 0897 A2080000 		.4byte	0x8a2
 2253 089b 0B       		.uleb128 0xb
 2254 089c CD000000 		.4byte	0xcd
 2255 08a0 08       		.byte	0x8
 2256 08a1 00       		.byte	0
 2257 08a2 05       		.uleb128 0x5
 2258 08a3 49010000 		.4byte	0x149
 2259 08a7 23       		.uleb128 0x23
 2260 08a8 8C000000 		.4byte	.LASF90
 2261 08ac 04       		.byte	0x4
 2262 08ad 77       		.byte	0x77
 2263 08ae B2080000 		.4byte	0x8b2
 2264 08b2 05       		.uleb128 0x5
 2265 08b3 92080000 		.4byte	0x892
 2266 08b7 23       		.uleb128 0x23
 2267 08b8 11060000 		.4byte	.LASF91
 2268 08bc 04       		.byte	0x4
 2269 08bd 99       		.byte	0x99
 2270 08be B0000000 		.4byte	0xb0
 2271 08c2 24       		.uleb128 0x24
 2272 08c3 DB010000 		.4byte	.LASF92
 2273 08c7 DB010000 		.4byte	.LASF92
 2274 08cb 05       		.byte	0x5
 2275 08cc 7D       		.byte	0x7d
 2276 08cd 24       		.uleb128 0x24
 2277 08ce FC000000 		.4byte	.LASF93
 2278 08d2 FC000000 		.4byte	.LASF93
 2279 08d6 05       		.byte	0x5
 2280 08d7 77       		.byte	0x77
 2281 08d8 24       		.uleb128 0x24
 2282 08d9 B6030000 		.4byte	.LASF94
 2283 08dd B6030000 		.4byte	.LASF94
 2284 08e1 05       		.byte	0x5
 2285 08e2 7E       		.byte	0x7e
 2286 08e3 24       		.uleb128 0x24
 2287 08e4 AB020000 		.4byte	.LASF95
 2288 08e8 AB020000 		.4byte	.LASF95
 2289 08ec 05       		.byte	0x5
 2290 08ed 8B       		.byte	0x8b
 2291 08ee 24       		.uleb128 0x24
 2292 08ef 5A020000 		.4byte	.LASF96
 2293 08f3 5A020000 		.4byte	.LASF96
 2294 08f7 05       		.byte	0x5
 2295 08f8 88       		.byte	0x88
 2296 08f9 24       		.uleb128 0x24
 2297 08fa F0030000 		.4byte	.LASF97
 2298 08fe F0030000 		.4byte	.LASF97
 2299 0902 05       		.byte	0x5
 2300 0903 79       		.byte	0x79
 2301 0904 24       		.uleb128 0x24
 2302 0905 94050000 		.4byte	.LASF98
 2303 0909 94050000 		.4byte	.LASF98
 2304 090d 06       		.byte	0x6
 2305 090e 2B       		.byte	0x2b
 2306 090f 00       		.byte	0
ARM GAS  C:\Users\bchir\AppData\Local\Temp\ccbc5zmo.s 			page 86


 2307              		.section	.debug_abbrev,"",%progbits
 2308              	.Ldebug_abbrev0:
 2309 0000 01       		.uleb128 0x1
 2310 0001 11       		.uleb128 0x11
 2311 0002 01       		.byte	0x1
 2312 0003 25       		.uleb128 0x25
 2313 0004 0E       		.uleb128 0xe
 2314 0005 13       		.uleb128 0x13
 2315 0006 0B       		.uleb128 0xb
 2316 0007 03       		.uleb128 0x3
 2317 0008 0E       		.uleb128 0xe
 2318 0009 1B       		.uleb128 0x1b
 2319 000a 0E       		.uleb128 0xe
 2320 000b 55       		.uleb128 0x55
 2321 000c 17       		.uleb128 0x17
 2322 000d 11       		.uleb128 0x11
 2323 000e 01       		.uleb128 0x1
 2324 000f 10       		.uleb128 0x10
 2325 0010 17       		.uleb128 0x17
 2326 0011 00       		.byte	0
 2327 0012 00       		.byte	0
 2328 0013 02       		.uleb128 0x2
 2329 0014 24       		.uleb128 0x24
 2330 0015 00       		.byte	0
 2331 0016 0B       		.uleb128 0xb
 2332 0017 0B       		.uleb128 0xb
 2333 0018 3E       		.uleb128 0x3e
 2334 0019 0B       		.uleb128 0xb
 2335 001a 03       		.uleb128 0x3
 2336 001b 0E       		.uleb128 0xe
 2337 001c 00       		.byte	0
 2338 001d 00       		.byte	0
 2339 001e 03       		.uleb128 0x3
 2340 001f 24       		.uleb128 0x24
 2341 0020 00       		.byte	0
 2342 0021 0B       		.uleb128 0xb
 2343 0022 0B       		.uleb128 0xb
 2344 0023 3E       		.uleb128 0x3e
 2345 0024 0B       		.uleb128 0xb
 2346 0025 03       		.uleb128 0x3
 2347 0026 08       		.uleb128 0x8
 2348 0027 00       		.byte	0
 2349 0028 00       		.byte	0
 2350 0029 04       		.uleb128 0x4
 2351 002a 16       		.uleb128 0x16
 2352 002b 00       		.byte	0
 2353 002c 03       		.uleb128 0x3
 2354 002d 0E       		.uleb128 0xe
 2355 002e 3A       		.uleb128 0x3a
 2356 002f 0B       		.uleb128 0xb
 2357 0030 3B       		.uleb128 0x3b
 2358 0031 05       		.uleb128 0x5
 2359 0032 49       		.uleb128 0x49
 2360 0033 13       		.uleb128 0x13
 2361 0034 00       		.byte	0
 2362 0035 00       		.byte	0
 2363 0036 05       		.uleb128 0x5
ARM GAS  C:\Users\bchir\AppData\Local\Temp\ccbc5zmo.s 			page 87


 2364 0037 35       		.uleb128 0x35
 2365 0038 00       		.byte	0
 2366 0039 49       		.uleb128 0x49
 2367 003a 13       		.uleb128 0x13
 2368 003b 00       		.byte	0
 2369 003c 00       		.byte	0
 2370 003d 06       		.uleb128 0x6
 2371 003e 13       		.uleb128 0x13
 2372 003f 01       		.byte	0x1
 2373 0040 0B       		.uleb128 0xb
 2374 0041 0B       		.uleb128 0xb
 2375 0042 3A       		.uleb128 0x3a
 2376 0043 0B       		.uleb128 0xb
 2377 0044 3B       		.uleb128 0x3b
 2378 0045 0B       		.uleb128 0xb
 2379 0046 01       		.uleb128 0x1
 2380 0047 13       		.uleb128 0x13
 2381 0048 00       		.byte	0
 2382 0049 00       		.byte	0
 2383 004a 07       		.uleb128 0x7
 2384 004b 0D       		.uleb128 0xd
 2385 004c 00       		.byte	0
 2386 004d 03       		.uleb128 0x3
 2387 004e 0E       		.uleb128 0xe
 2388 004f 3A       		.uleb128 0x3a
 2389 0050 0B       		.uleb128 0xb
 2390 0051 3B       		.uleb128 0x3b
 2391 0052 0B       		.uleb128 0xb
 2392 0053 49       		.uleb128 0x49
 2393 0054 13       		.uleb128 0x13
 2394 0055 38       		.uleb128 0x38
 2395 0056 0B       		.uleb128 0xb
 2396 0057 00       		.byte	0
 2397 0058 00       		.byte	0
 2398 0059 08       		.uleb128 0x8
 2399 005a 16       		.uleb128 0x16
 2400 005b 00       		.byte	0
 2401 005c 03       		.uleb128 0x3
 2402 005d 0E       		.uleb128 0xe
 2403 005e 3A       		.uleb128 0x3a
 2404 005f 0B       		.uleb128 0xb
 2405 0060 3B       		.uleb128 0x3b
 2406 0061 0B       		.uleb128 0xb
 2407 0062 49       		.uleb128 0x49
 2408 0063 13       		.uleb128 0x13
 2409 0064 00       		.byte	0
 2410 0065 00       		.byte	0
 2411 0066 09       		.uleb128 0x9
 2412 0067 0D       		.uleb128 0xd
 2413 0068 00       		.byte	0
 2414 0069 03       		.uleb128 0x3
 2415 006a 08       		.uleb128 0x8
 2416 006b 3A       		.uleb128 0x3a
 2417 006c 0B       		.uleb128 0xb
 2418 006d 3B       		.uleb128 0x3b
 2419 006e 0B       		.uleb128 0xb
 2420 006f 49       		.uleb128 0x49
ARM GAS  C:\Users\bchir\AppData\Local\Temp\ccbc5zmo.s 			page 88


 2421 0070 13       		.uleb128 0x13
 2422 0071 38       		.uleb128 0x38
 2423 0072 0B       		.uleb128 0xb
 2424 0073 00       		.byte	0
 2425 0074 00       		.byte	0
 2426 0075 0A       		.uleb128 0xa
 2427 0076 01       		.uleb128 0x1
 2428 0077 01       		.byte	0x1
 2429 0078 49       		.uleb128 0x49
 2430 0079 13       		.uleb128 0x13
 2431 007a 01       		.uleb128 0x1
 2432 007b 13       		.uleb128 0x13
 2433 007c 00       		.byte	0
 2434 007d 00       		.byte	0
 2435 007e 0B       		.uleb128 0xb
 2436 007f 21       		.uleb128 0x21
 2437 0080 00       		.byte	0
 2438 0081 49       		.uleb128 0x49
 2439 0082 13       		.uleb128 0x13
 2440 0083 2F       		.uleb128 0x2f
 2441 0084 0B       		.uleb128 0xb
 2442 0085 00       		.byte	0
 2443 0086 00       		.byte	0
 2444 0087 0C       		.uleb128 0xc
 2445 0088 13       		.uleb128 0x13
 2446 0089 01       		.byte	0x1
 2447 008a 0B       		.uleb128 0xb
 2448 008b 0B       		.uleb128 0xb
 2449 008c 3A       		.uleb128 0x3a
 2450 008d 0B       		.uleb128 0xb
 2451 008e 3B       		.uleb128 0x3b
 2452 008f 05       		.uleb128 0x5
 2453 0090 01       		.uleb128 0x1
 2454 0091 13       		.uleb128 0x13
 2455 0092 00       		.byte	0
 2456 0093 00       		.byte	0
 2457 0094 0D       		.uleb128 0xd
 2458 0095 0D       		.uleb128 0xd
 2459 0096 00       		.byte	0
 2460 0097 03       		.uleb128 0x3
 2461 0098 0E       		.uleb128 0xe
 2462 0099 3A       		.uleb128 0x3a
 2463 009a 0B       		.uleb128 0xb
 2464 009b 3B       		.uleb128 0x3b
 2465 009c 05       		.uleb128 0x5
 2466 009d 49       		.uleb128 0x49
 2467 009e 13       		.uleb128 0x13
 2468 009f 38       		.uleb128 0x38
 2469 00a0 0B       		.uleb128 0xb
 2470 00a1 00       		.byte	0
 2471 00a2 00       		.byte	0
 2472 00a3 0E       		.uleb128 0xe
 2473 00a4 2E       		.uleb128 0x2e
 2474 00a5 01       		.byte	0x1
 2475 00a6 3F       		.uleb128 0x3f
 2476 00a7 19       		.uleb128 0x19
 2477 00a8 03       		.uleb128 0x3
ARM GAS  C:\Users\bchir\AppData\Local\Temp\ccbc5zmo.s 			page 89


 2478 00a9 0E       		.uleb128 0xe
 2479 00aa 3A       		.uleb128 0x3a
 2480 00ab 0B       		.uleb128 0xb
 2481 00ac 3B       		.uleb128 0x3b
 2482 00ad 0B       		.uleb128 0xb
 2483 00ae 27       		.uleb128 0x27
 2484 00af 19       		.uleb128 0x19
 2485 00b0 11       		.uleb128 0x11
 2486 00b1 01       		.uleb128 0x1
 2487 00b2 12       		.uleb128 0x12
 2488 00b3 06       		.uleb128 0x6
 2489 00b4 40       		.uleb128 0x40
 2490 00b5 18       		.uleb128 0x18
 2491 00b6 9742     		.uleb128 0x2117
 2492 00b8 19       		.uleb128 0x19
 2493 00b9 01       		.uleb128 0x1
 2494 00ba 13       		.uleb128 0x13
 2495 00bb 00       		.byte	0
 2496 00bc 00       		.byte	0
 2497 00bd 0F       		.uleb128 0xf
 2498 00be 34       		.uleb128 0x34
 2499 00bf 00       		.byte	0
 2500 00c0 03       		.uleb128 0x3
 2501 00c1 0E       		.uleb128 0xe
 2502 00c2 3A       		.uleb128 0x3a
 2503 00c3 0B       		.uleb128 0xb
 2504 00c4 3B       		.uleb128 0x3b
 2505 00c5 0B       		.uleb128 0xb
 2506 00c6 49       		.uleb128 0x49
 2507 00c7 13       		.uleb128 0x13
 2508 00c8 02       		.uleb128 0x2
 2509 00c9 17       		.uleb128 0x17
 2510 00ca 00       		.byte	0
 2511 00cb 00       		.byte	0
 2512 00cc 10       		.uleb128 0x10
 2513 00cd 898201   		.uleb128 0x4109
 2514 00d0 00       		.byte	0
 2515 00d1 11       		.uleb128 0x11
 2516 00d2 01       		.uleb128 0x1
 2517 00d3 31       		.uleb128 0x31
 2518 00d4 13       		.uleb128 0x13
 2519 00d5 00       		.byte	0
 2520 00d6 00       		.byte	0
 2521 00d7 11       		.uleb128 0x11
 2522 00d8 898201   		.uleb128 0x4109
 2523 00db 01       		.byte	0x1
 2524 00dc 11       		.uleb128 0x11
 2525 00dd 01       		.uleb128 0x1
 2526 00de 31       		.uleb128 0x31
 2527 00df 13       		.uleb128 0x13
 2528 00e0 01       		.uleb128 0x1
 2529 00e1 13       		.uleb128 0x13
 2530 00e2 00       		.byte	0
 2531 00e3 00       		.byte	0
 2532 00e4 12       		.uleb128 0x12
 2533 00e5 8A8201   		.uleb128 0x410a
 2534 00e8 00       		.byte	0
ARM GAS  C:\Users\bchir\AppData\Local\Temp\ccbc5zmo.s 			page 90


 2535 00e9 02       		.uleb128 0x2
 2536 00ea 18       		.uleb128 0x18
 2537 00eb 9142     		.uleb128 0x2111
 2538 00ed 18       		.uleb128 0x18
 2539 00ee 00       		.byte	0
 2540 00ef 00       		.byte	0
 2541 00f0 13       		.uleb128 0x13
 2542 00f1 898201   		.uleb128 0x4109
 2543 00f4 01       		.byte	0x1
 2544 00f5 11       		.uleb128 0x11
 2545 00f6 01       		.uleb128 0x1
 2546 00f7 31       		.uleb128 0x31
 2547 00f8 13       		.uleb128 0x13
 2548 00f9 00       		.byte	0
 2549 00fa 00       		.byte	0
 2550 00fb 14       		.uleb128 0x14
 2551 00fc 2E       		.uleb128 0x2e
 2552 00fd 01       		.byte	0x1
 2553 00fe 3F       		.uleb128 0x3f
 2554 00ff 19       		.uleb128 0x19
 2555 0100 03       		.uleb128 0x3
 2556 0101 0E       		.uleb128 0xe
 2557 0102 3A       		.uleb128 0x3a
 2558 0103 0B       		.uleb128 0xb
 2559 0104 3B       		.uleb128 0x3b
 2560 0105 05       		.uleb128 0x5
 2561 0106 27       		.uleb128 0x27
 2562 0107 19       		.uleb128 0x19
 2563 0108 11       		.uleb128 0x11
 2564 0109 01       		.uleb128 0x1
 2565 010a 12       		.uleb128 0x12
 2566 010b 06       		.uleb128 0x6
 2567 010c 40       		.uleb128 0x40
 2568 010d 18       		.uleb128 0x18
 2569 010e 9742     		.uleb128 0x2117
 2570 0110 19       		.uleb128 0x19
 2571 0111 01       		.uleb128 0x1
 2572 0112 13       		.uleb128 0x13
 2573 0113 00       		.byte	0
 2574 0114 00       		.byte	0
 2575 0115 15       		.uleb128 0x15
 2576 0116 05       		.uleb128 0x5
 2577 0117 00       		.byte	0
 2578 0118 03       		.uleb128 0x3
 2579 0119 0E       		.uleb128 0xe
 2580 011a 3A       		.uleb128 0x3a
 2581 011b 0B       		.uleb128 0xb
 2582 011c 3B       		.uleb128 0x3b
 2583 011d 05       		.uleb128 0x5
 2584 011e 49       		.uleb128 0x49
 2585 011f 13       		.uleb128 0x13
 2586 0120 02       		.uleb128 0x2
 2587 0121 17       		.uleb128 0x17
 2588 0122 00       		.byte	0
 2589 0123 00       		.byte	0
 2590 0124 16       		.uleb128 0x16
 2591 0125 05       		.uleb128 0x5
ARM GAS  C:\Users\bchir\AppData\Local\Temp\ccbc5zmo.s 			page 91


 2592 0126 00       		.byte	0
 2593 0127 03       		.uleb128 0x3
 2594 0128 0E       		.uleb128 0xe
 2595 0129 3A       		.uleb128 0x3a
 2596 012a 0B       		.uleb128 0xb
 2597 012b 3B       		.uleb128 0x3b
 2598 012c 0B       		.uleb128 0xb
 2599 012d 49       		.uleb128 0x49
 2600 012e 13       		.uleb128 0x13
 2601 012f 02       		.uleb128 0x2
 2602 0130 17       		.uleb128 0x17
 2603 0131 00       		.byte	0
 2604 0132 00       		.byte	0
 2605 0133 17       		.uleb128 0x17
 2606 0134 2E       		.uleb128 0x2e
 2607 0135 00       		.byte	0
 2608 0136 3F       		.uleb128 0x3f
 2609 0137 19       		.uleb128 0x19
 2610 0138 03       		.uleb128 0x3
 2611 0139 0E       		.uleb128 0xe
 2612 013a 3A       		.uleb128 0x3a
 2613 013b 0B       		.uleb128 0xb
 2614 013c 3B       		.uleb128 0x3b
 2615 013d 05       		.uleb128 0x5
 2616 013e 27       		.uleb128 0x27
 2617 013f 19       		.uleb128 0x19
 2618 0140 11       		.uleb128 0x11
 2619 0141 01       		.uleb128 0x1
 2620 0142 12       		.uleb128 0x12
 2621 0143 06       		.uleb128 0x6
 2622 0144 40       		.uleb128 0x40
 2623 0145 18       		.uleb128 0x18
 2624 0146 9742     		.uleb128 0x2117
 2625 0148 19       		.uleb128 0x19
 2626 0149 00       		.byte	0
 2627 014a 00       		.byte	0
 2628 014b 18       		.uleb128 0x18
 2629 014c 34       		.uleb128 0x34
 2630 014d 00       		.byte	0
 2631 014e 03       		.uleb128 0x3
 2632 014f 0E       		.uleb128 0xe
 2633 0150 3A       		.uleb128 0x3a
 2634 0151 0B       		.uleb128 0xb
 2635 0152 3B       		.uleb128 0x3b
 2636 0153 05       		.uleb128 0x5
 2637 0154 49       		.uleb128 0x49
 2638 0155 13       		.uleb128 0x13
 2639 0156 02       		.uleb128 0x2
 2640 0157 17       		.uleb128 0x17
 2641 0158 00       		.byte	0
 2642 0159 00       		.byte	0
 2643 015a 19       		.uleb128 0x19
 2644 015b 2E       		.uleb128 0x2e
 2645 015c 01       		.byte	0x1
 2646 015d 3F       		.uleb128 0x3f
 2647 015e 19       		.uleb128 0x19
 2648 015f 03       		.uleb128 0x3
ARM GAS  C:\Users\bchir\AppData\Local\Temp\ccbc5zmo.s 			page 92


 2649 0160 0E       		.uleb128 0xe
 2650 0161 3A       		.uleb128 0x3a
 2651 0162 0B       		.uleb128 0xb
 2652 0163 3B       		.uleb128 0x3b
 2653 0164 05       		.uleb128 0x5
 2654 0165 27       		.uleb128 0x27
 2655 0166 19       		.uleb128 0x19
 2656 0167 49       		.uleb128 0x49
 2657 0168 13       		.uleb128 0x13
 2658 0169 11       		.uleb128 0x11
 2659 016a 01       		.uleb128 0x1
 2660 016b 12       		.uleb128 0x12
 2661 016c 06       		.uleb128 0x6
 2662 016d 40       		.uleb128 0x40
 2663 016e 18       		.uleb128 0x18
 2664 016f 9742     		.uleb128 0x2117
 2665 0171 19       		.uleb128 0x19
 2666 0172 01       		.uleb128 0x1
 2667 0173 13       		.uleb128 0x13
 2668 0174 00       		.byte	0
 2669 0175 00       		.byte	0
 2670 0176 1A       		.uleb128 0x1a
 2671 0177 2E       		.uleb128 0x2e
 2672 0178 00       		.byte	0
 2673 0179 3F       		.uleb128 0x3f
 2674 017a 19       		.uleb128 0x19
 2675 017b 03       		.uleb128 0x3
 2676 017c 0E       		.uleb128 0xe
 2677 017d 3A       		.uleb128 0x3a
 2678 017e 0B       		.uleb128 0xb
 2679 017f 3B       		.uleb128 0x3b
 2680 0180 05       		.uleb128 0x5
 2681 0181 27       		.uleb128 0x27
 2682 0182 19       		.uleb128 0x19
 2683 0183 49       		.uleb128 0x49
 2684 0184 13       		.uleb128 0x13
 2685 0185 11       		.uleb128 0x11
 2686 0186 01       		.uleb128 0x1
 2687 0187 12       		.uleb128 0x12
 2688 0188 06       		.uleb128 0x6
 2689 0189 40       		.uleb128 0x40
 2690 018a 18       		.uleb128 0x18
 2691 018b 9742     		.uleb128 0x2117
 2692 018d 19       		.uleb128 0x19
 2693 018e 00       		.byte	0
 2694 018f 00       		.byte	0
 2695 0190 1B       		.uleb128 0x1b
 2696 0191 34       		.uleb128 0x34
 2697 0192 00       		.byte	0
 2698 0193 03       		.uleb128 0x3
 2699 0194 08       		.uleb128 0x8
 2700 0195 3A       		.uleb128 0x3a
 2701 0196 0B       		.uleb128 0xb
 2702 0197 3B       		.uleb128 0x3b
 2703 0198 05       		.uleb128 0x5
 2704 0199 49       		.uleb128 0x49
 2705 019a 13       		.uleb128 0x13
ARM GAS  C:\Users\bchir\AppData\Local\Temp\ccbc5zmo.s 			page 93


 2706 019b 02       		.uleb128 0x2
 2707 019c 17       		.uleb128 0x17
 2708 019d 00       		.byte	0
 2709 019e 00       		.byte	0
 2710 019f 1C       		.uleb128 0x1c
 2711 01a0 05       		.uleb128 0x5
 2712 01a1 00       		.byte	0
 2713 01a2 03       		.uleb128 0x3
 2714 01a3 0E       		.uleb128 0xe
 2715 01a4 3A       		.uleb128 0x3a
 2716 01a5 0B       		.uleb128 0xb
 2717 01a6 3B       		.uleb128 0x3b
 2718 01a7 05       		.uleb128 0x5
 2719 01a8 49       		.uleb128 0x49
 2720 01a9 13       		.uleb128 0x13
 2721 01aa 02       		.uleb128 0x2
 2722 01ab 18       		.uleb128 0x18
 2723 01ac 00       		.byte	0
 2724 01ad 00       		.byte	0
 2725 01ae 1D       		.uleb128 0x1d
 2726 01af 0B       		.uleb128 0xb
 2727 01b0 01       		.byte	0x1
 2728 01b1 55       		.uleb128 0x55
 2729 01b2 17       		.uleb128 0x17
 2730 01b3 00       		.byte	0
 2731 01b4 00       		.byte	0
 2732 01b5 1E       		.uleb128 0x1e
 2733 01b6 0F       		.uleb128 0xf
 2734 01b7 00       		.byte	0
 2735 01b8 0B       		.uleb128 0xb
 2736 01b9 0B       		.uleb128 0xb
 2737 01ba 49       		.uleb128 0x49
 2738 01bb 13       		.uleb128 0x13
 2739 01bc 00       		.byte	0
 2740 01bd 00       		.byte	0
 2741 01be 1F       		.uleb128 0x1f
 2742 01bf 26       		.uleb128 0x26
 2743 01c0 00       		.byte	0
 2744 01c1 49       		.uleb128 0x49
 2745 01c2 13       		.uleb128 0x13
 2746 01c3 00       		.byte	0
 2747 01c4 00       		.byte	0
 2748 01c5 20       		.uleb128 0x20
 2749 01c6 0B       		.uleb128 0xb
 2750 01c7 01       		.byte	0x1
 2751 01c8 11       		.uleb128 0x11
 2752 01c9 01       		.uleb128 0x1
 2753 01ca 12       		.uleb128 0x12
 2754 01cb 06       		.uleb128 0x6
 2755 01cc 01       		.uleb128 0x1
 2756 01cd 13       		.uleb128 0x13
 2757 01ce 00       		.byte	0
 2758 01cf 00       		.byte	0
 2759 01d0 21       		.uleb128 0x21
 2760 01d1 34       		.uleb128 0x34
 2761 01d2 00       		.byte	0
 2762 01d3 03       		.uleb128 0x3
ARM GAS  C:\Users\bchir\AppData\Local\Temp\ccbc5zmo.s 			page 94


 2763 01d4 0E       		.uleb128 0xe
 2764 01d5 3A       		.uleb128 0x3a
 2765 01d6 0B       		.uleb128 0xb
 2766 01d7 3B       		.uleb128 0x3b
 2767 01d8 0B       		.uleb128 0xb
 2768 01d9 49       		.uleb128 0x49
 2769 01da 13       		.uleb128 0x13
 2770 01db 3F       		.uleb128 0x3f
 2771 01dc 19       		.uleb128 0x19
 2772 01dd 02       		.uleb128 0x2
 2773 01de 18       		.uleb128 0x18
 2774 01df 00       		.byte	0
 2775 01e0 00       		.byte	0
 2776 01e1 22       		.uleb128 0x22
 2777 01e2 34       		.uleb128 0x34
 2778 01e3 00       		.byte	0
 2779 01e4 03       		.uleb128 0x3
 2780 01e5 0E       		.uleb128 0xe
 2781 01e6 3A       		.uleb128 0x3a
 2782 01e7 0B       		.uleb128 0xb
 2783 01e8 3B       		.uleb128 0x3b
 2784 01e9 05       		.uleb128 0x5
 2785 01ea 49       		.uleb128 0x49
 2786 01eb 13       		.uleb128 0x13
 2787 01ec 3F       		.uleb128 0x3f
 2788 01ed 19       		.uleb128 0x19
 2789 01ee 3C       		.uleb128 0x3c
 2790 01ef 19       		.uleb128 0x19
 2791 01f0 00       		.byte	0
 2792 01f1 00       		.byte	0
 2793 01f2 23       		.uleb128 0x23
 2794 01f3 34       		.uleb128 0x34
 2795 01f4 00       		.byte	0
 2796 01f5 03       		.uleb128 0x3
 2797 01f6 0E       		.uleb128 0xe
 2798 01f7 3A       		.uleb128 0x3a
 2799 01f8 0B       		.uleb128 0xb
 2800 01f9 3B       		.uleb128 0x3b
 2801 01fa 0B       		.uleb128 0xb
 2802 01fb 49       		.uleb128 0x49
 2803 01fc 13       		.uleb128 0x13
 2804 01fd 3F       		.uleb128 0x3f
 2805 01fe 19       		.uleb128 0x19
 2806 01ff 3C       		.uleb128 0x3c
 2807 0200 19       		.uleb128 0x19
 2808 0201 00       		.byte	0
 2809 0202 00       		.byte	0
 2810 0203 24       		.uleb128 0x24
 2811 0204 2E       		.uleb128 0x2e
 2812 0205 00       		.byte	0
 2813 0206 3F       		.uleb128 0x3f
 2814 0207 19       		.uleb128 0x19
 2815 0208 3C       		.uleb128 0x3c
 2816 0209 19       		.uleb128 0x19
 2817 020a 6E       		.uleb128 0x6e
 2818 020b 0E       		.uleb128 0xe
 2819 020c 03       		.uleb128 0x3
ARM GAS  C:\Users\bchir\AppData\Local\Temp\ccbc5zmo.s 			page 95


 2820 020d 0E       		.uleb128 0xe
 2821 020e 3A       		.uleb128 0x3a
 2822 020f 0B       		.uleb128 0xb
 2823 0210 3B       		.uleb128 0x3b
 2824 0211 0B       		.uleb128 0xb
 2825 0212 00       		.byte	0
 2826 0213 00       		.byte	0
 2827 0214 00       		.byte	0
 2828              		.section	.debug_loc,"",%progbits
 2829              	.Ldebug_loc0:
 2830              	.LLST0:
 2831 0000 08000000 		.4byte	.LVL1
 2832 0004 DA000000 		.4byte	.LVL15
 2833 0008 0100     		.2byte	0x1
 2834 000a 56       		.byte	0x56
 2835 000b 00000000 		.4byte	0
 2836 000f 00000000 		.4byte	0
 2837              	.LLST1:
 2838 0013 00000000 		.4byte	.LVL16
 2839 0017 6E000000 		.4byte	.LVL17
 2840 001b 0100     		.2byte	0x1
 2841 001d 50       		.byte	0x50
 2842 001e 6E000000 		.4byte	.LVL17
 2843 0022 AC000000 		.4byte	.LFE2
 2844 0026 0400     		.2byte	0x4
 2845 0028 F3       		.byte	0xf3
 2846 0029 01       		.uleb128 0x1
 2847 002a 50       		.byte	0x50
 2848 002b 9F       		.byte	0x9f
 2849 002c 00000000 		.4byte	0
 2850 0030 00000000 		.4byte	0
 2851              	.LLST2:
 2852 0034 00000000 		.4byte	.LVL16
 2853 0038 71000000 		.4byte	.LVL18-1
 2854 003c 0100     		.2byte	0x1
 2855 003e 51       		.byte	0x51
 2856 003f 71000000 		.4byte	.LVL18-1
 2857 0043 AC000000 		.4byte	.LFE2
 2858 0047 0400     		.2byte	0x4
 2859 0049 F3       		.byte	0xf3
 2860 004a 01       		.uleb128 0x1
 2861 004b 51       		.byte	0x51
 2862 004c 9F       		.byte	0x9f
 2863 004d 00000000 		.4byte	0
 2864 0051 00000000 		.4byte	0
 2865              	.LLST3:
 2866 0055 00000000 		.4byte	.LVL19
 2867 0059 0F000000 		.4byte	.LVL20-1
 2868 005d 0100     		.2byte	0x1
 2869 005f 50       		.byte	0x50
 2870 0060 0F000000 		.4byte	.LVL20-1
 2871 0064 24000000 		.4byte	.LFE0
 2872 0068 0400     		.2byte	0x4
 2873 006a F3       		.byte	0xf3
 2874 006b 01       		.uleb128 0x1
 2875 006c 50       		.byte	0x50
 2876 006d 9F       		.byte	0x9f
ARM GAS  C:\Users\bchir\AppData\Local\Temp\ccbc5zmo.s 			page 96


 2877 006e 00000000 		.4byte	0
 2878 0072 00000000 		.4byte	0
 2879              	.LLST4:
 2880 0076 00000000 		.4byte	.LVL19
 2881 007a 0F000000 		.4byte	.LVL20-1
 2882 007e 0100     		.2byte	0x1
 2883 0080 51       		.byte	0x51
 2884 0081 0F000000 		.4byte	.LVL20-1
 2885 0085 24000000 		.4byte	.LFE0
 2886 0089 0400     		.2byte	0x4
 2887 008b F3       		.byte	0xf3
 2888 008c 01       		.uleb128 0x1
 2889 008d 51       		.byte	0x51
 2890 008e 9F       		.byte	0x9f
 2891 008f 00000000 		.4byte	0
 2892 0093 00000000 		.4byte	0
 2893              	.LLST5:
 2894 0097 06000000 		.4byte	.LVL22
 2895 009b 47000000 		.4byte	.LVL23-1
 2896 009f 0100     		.2byte	0x1
 2897 00a1 50       		.byte	0x50
 2898 00a2 00000000 		.4byte	0
 2899 00a6 00000000 		.4byte	0
 2900              	.LLST6:
 2901 00aa 06000000 		.4byte	.LVL25
 2902 00ae 10000000 		.4byte	.LVL26
 2903 00b2 0100     		.2byte	0x1
 2904 00b4 53       		.byte	0x53
 2905 00b5 00000000 		.4byte	0
 2906 00b9 00000000 		.4byte	0
 2907              	.LLST7:
 2908 00bd 00000000 		.4byte	.LVL27
 2909 00c1 10000000 		.4byte	.LVL28
 2910 00c5 0200     		.2byte	0x2
 2911 00c7 30       		.byte	0x30
 2912 00c8 9F       		.byte	0x9f
 2913 00c9 10000000 		.4byte	.LVL28
 2914 00cd 16000000 		.4byte	.LVL29
 2915 00d1 0100     		.2byte	0x1
 2916 00d3 50       		.byte	0x50
 2917 00d4 16000000 		.4byte	.LVL29
 2918 00d8 18000000 		.4byte	.LVL30
 2919 00dc 0200     		.2byte	0x2
 2920 00de 30       		.byte	0x30
 2921 00df 9F       		.byte	0x9f
 2922 00e0 18000000 		.4byte	.LVL30
 2923 00e4 20000000 		.4byte	.LFE7
 2924 00e8 0100     		.2byte	0x1
 2925 00ea 50       		.byte	0x50
 2926 00eb 00000000 		.4byte	0
 2927 00ef 00000000 		.4byte	0
 2928              	.LLST8:
 2929 00f3 00000000 		.4byte	.LVL31
 2930 00f7 04000000 		.4byte	.LVL32
 2931 00fb 0100     		.2byte	0x1
 2932 00fd 50       		.byte	0x50
 2933 00fe 04000000 		.4byte	.LVL32
ARM GAS  C:\Users\bchir\AppData\Local\Temp\ccbc5zmo.s 			page 97


 2934 0102 0C000000 		.4byte	.LFE8
 2935 0106 0400     		.2byte	0x4
 2936 0108 F3       		.byte	0xf3
 2937 0109 01       		.uleb128 0x1
 2938 010a 50       		.byte	0x50
 2939 010b 9F       		.byte	0x9f
 2940 010c 00000000 		.4byte	0
 2941 0110 00000000 		.4byte	0
 2942              	.LLST9:
 2943 0114 00000000 		.4byte	.LVL33
 2944 0118 04000000 		.4byte	.LVL34
 2945 011c 0100     		.2byte	0x1
 2946 011e 50       		.byte	0x50
 2947 011f 04000000 		.4byte	.LVL34
 2948 0123 14000000 		.4byte	.LFE9
 2949 0127 0400     		.2byte	0x4
 2950 0129 F3       		.byte	0xf3
 2951 012a 01       		.uleb128 0x1
 2952 012b 50       		.byte	0x50
 2953 012c 9F       		.byte	0x9f
 2954 012d 00000000 		.4byte	0
 2955 0131 00000000 		.4byte	0
 2956              	.LLST10:
 2957 0135 00000000 		.4byte	.LVL35
 2958 0139 0C000000 		.4byte	.LVL36
 2959 013d 0100     		.2byte	0x1
 2960 013f 50       		.byte	0x50
 2961 0140 0C000000 		.4byte	.LVL36
 2962 0144 20000000 		.4byte	.LVL41
 2963 0148 0400     		.2byte	0x4
 2964 014a F3       		.byte	0xf3
 2965 014b 01       		.uleb128 0x1
 2966 014c 50       		.byte	0x50
 2967 014d 9F       		.byte	0x9f
 2968 014e 20000000 		.4byte	.LVL41
 2969 0152 22000000 		.4byte	.LVL42
 2970 0156 0100     		.2byte	0x1
 2971 0158 50       		.byte	0x50
 2972 0159 22000000 		.4byte	.LVL42
 2973 015d 28000000 		.4byte	.LFE10
 2974 0161 0400     		.2byte	0x4
 2975 0163 F3       		.byte	0xf3
 2976 0164 01       		.uleb128 0x1
 2977 0165 50       		.byte	0x50
 2978 0166 9F       		.byte	0x9f
 2979 0167 00000000 		.4byte	0
 2980 016b 00000000 		.4byte	0
 2981              	.LLST11:
 2982 016f 00000000 		.4byte	.LVL35
 2983 0173 14000000 		.4byte	.LVL37
 2984 0177 0200     		.2byte	0x2
 2985 0179 30       		.byte	0x30
 2986 017a 9F       		.byte	0x9f
 2987 017b 14000000 		.4byte	.LVL37
 2988 017f 1C000000 		.4byte	.LVL39
 2989 0183 0100     		.2byte	0x1
 2990 0185 50       		.byte	0x50
ARM GAS  C:\Users\bchir\AppData\Local\Temp\ccbc5zmo.s 			page 98


 2991 0186 1C000000 		.4byte	.LVL39
 2992 018a 1E000000 		.4byte	.LVL40
 2993 018e 0300     		.2byte	0x3
 2994 0190 70       		.byte	0x70
 2995 0191 02       		.sleb128 2
 2996 0192 9F       		.byte	0x9f
 2997 0193 1E000000 		.4byte	.LVL40
 2998 0197 20000000 		.4byte	.LVL41
 2999 019b 0100     		.2byte	0x1
 3000 019d 50       		.byte	0x50
 3001 019e 20000000 		.4byte	.LVL41
 3002 01a2 22000000 		.4byte	.LVL42
 3003 01a6 0200     		.2byte	0x2
 3004 01a8 30       		.byte	0x30
 3005 01a9 9F       		.byte	0x9f
 3006 01aa 22000000 		.4byte	.LVL42
 3007 01ae 28000000 		.4byte	.LFE10
 3008 01b2 0100     		.2byte	0x1
 3009 01b4 50       		.byte	0x50
 3010 01b5 00000000 		.4byte	0
 3011 01b9 00000000 		.4byte	0
 3012              	.LLST12:
 3013 01bd 00000000 		.4byte	.LVL43
 3014 01c1 7C000000 		.4byte	.LVL53
 3015 01c5 0100     		.2byte	0x1
 3016 01c7 50       		.byte	0x50
 3017 01c8 7C000000 		.4byte	.LVL53
 3018 01cc 94000000 		.4byte	.LFE11
 3019 01d0 0400     		.2byte	0x4
 3020 01d2 F3       		.byte	0xf3
 3021 01d3 01       		.uleb128 0x1
 3022 01d4 50       		.byte	0x50
 3023 01d5 9F       		.byte	0x9f
 3024 01d6 00000000 		.4byte	0
 3025 01da 00000000 		.4byte	0
 3026              	.LLST13:
 3027 01de 00000000 		.4byte	.LVL43
 3028 01e2 26000000 		.4byte	.LVL44
 3029 01e6 0100     		.2byte	0x1
 3030 01e8 52       		.byte	0x52
 3031 01e9 26000000 		.4byte	.LVL44
 3032 01ed 34000000 		.4byte	.LVL45
 3033 01f1 0400     		.2byte	0x4
 3034 01f3 F3       		.byte	0xf3
 3035 01f4 01       		.uleb128 0x1
 3036 01f5 52       		.byte	0x52
 3037 01f6 9F       		.byte	0x9f
 3038 01f7 34000000 		.4byte	.LVL45
 3039 01fb 6A000000 		.4byte	.LVL52
 3040 01ff 0100     		.2byte	0x1
 3041 0201 52       		.byte	0x52
 3042 0202 00000000 		.4byte	0
 3043 0206 00000000 		.4byte	0
 3044              	.LLST14:
 3045 020a 54000000 		.4byte	.LVL46
 3046 020e 5E000000 		.4byte	.LVL47
 3047 0212 0100     		.2byte	0x1
ARM GAS  C:\Users\bchir\AppData\Local\Temp\ccbc5zmo.s 			page 99


 3048 0214 53       		.byte	0x53
 3049 0215 60000000 		.4byte	.LVL48
 3050 0219 62000000 		.4byte	.LVL49
 3051 021d 0100     		.2byte	0x1
 3052 021f 53       		.byte	0x53
 3053 0220 64000000 		.4byte	.LVL50
 3054 0224 68000000 		.4byte	.LVL51
 3055 0228 0100     		.2byte	0x1
 3056 022a 53       		.byte	0x53
 3057 022b 00000000 		.4byte	0
 3058 022f 00000000 		.4byte	0
 3059              	.LLST15:
 3060 0233 00000000 		.4byte	.LVL54
 3061 0237 1C000000 		.4byte	.LVL55
 3062 023b 0100     		.2byte	0x1
 3063 023d 50       		.byte	0x50
 3064 023e 1C000000 		.4byte	.LVL55
 3065 0242 2C000000 		.4byte	.LFE13
 3066 0246 0400     		.2byte	0x4
 3067 0248 F3       		.byte	0xf3
 3068 0249 01       		.uleb128 0x1
 3069 024a 50       		.byte	0x50
 3070 024b 9F       		.byte	0x9f
 3071 024c 00000000 		.4byte	0
 3072 0250 00000000 		.4byte	0
 3073              	.LLST16:
 3074 0254 00000000 		.4byte	.LVL56
 3075 0258 13000000 		.4byte	.LVL57-1
 3076 025c 0100     		.2byte	0x1
 3077 025e 50       		.byte	0x50
 3078 025f 13000000 		.4byte	.LVL57-1
 3079 0263 3C000000 		.4byte	.LVL64
 3080 0267 0400     		.2byte	0x4
 3081 0269 F3       		.byte	0xf3
 3082 026a 01       		.uleb128 0x1
 3083 026b 50       		.byte	0x50
 3084 026c 9F       		.byte	0x9f
 3085 026d 3C000000 		.4byte	.LVL64
 3086 0271 46000000 		.4byte	.LVL65
 3087 0275 0100     		.2byte	0x1
 3088 0277 50       		.byte	0x50
 3089 0278 46000000 		.4byte	.LVL65
 3090 027c 50000000 		.4byte	.LFE12
 3091 0280 0400     		.2byte	0x4
 3092 0282 F3       		.byte	0xf3
 3093 0283 01       		.uleb128 0x1
 3094 0284 50       		.byte	0x50
 3095 0285 9F       		.byte	0x9f
 3096 0286 00000000 		.4byte	0
 3097 028a 00000000 		.4byte	0
 3098              	.LLST17:
 3099 028e 00000000 		.4byte	.LVL56
 3100 0292 13000000 		.4byte	.LVL57-1
 3101 0296 0100     		.2byte	0x1
 3102 0298 51       		.byte	0x51
 3103 0299 13000000 		.4byte	.LVL57-1
 3104 029d 3C000000 		.4byte	.LVL64
ARM GAS  C:\Users\bchir\AppData\Local\Temp\ccbc5zmo.s 			page 100


 3105 02a1 0100     		.2byte	0x1
 3106 02a3 56       		.byte	0x56
 3107 02a4 3C000000 		.4byte	.LVL64
 3108 02a8 46000000 		.4byte	.LVL65
 3109 02ac 0100     		.2byte	0x1
 3110 02ae 51       		.byte	0x51
 3111 02af 46000000 		.4byte	.LVL65
 3112 02b3 50000000 		.4byte	.LFE12
 3113 02b7 0400     		.2byte	0x4
 3114 02b9 F3       		.byte	0xf3
 3115 02ba 01       		.uleb128 0x1
 3116 02bb 51       		.byte	0x51
 3117 02bc 9F       		.byte	0x9f
 3118 02bd 00000000 		.4byte	0
 3119 02c1 00000000 		.4byte	0
 3120              	.LLST18:
 3121 02c5 00000000 		.4byte	.LVL56
 3122 02c9 13000000 		.4byte	.LVL57-1
 3123 02cd 0100     		.2byte	0x1
 3124 02cf 52       		.byte	0x52
 3125 02d0 13000000 		.4byte	.LVL57-1
 3126 02d4 20000000 		.4byte	.LVL59
 3127 02d8 0400     		.2byte	0x4
 3128 02da F3       		.byte	0xf3
 3129 02db 01       		.uleb128 0x1
 3130 02dc 52       		.byte	0x52
 3131 02dd 9F       		.byte	0x9f
 3132 02de 20000000 		.4byte	.LVL59
 3133 02e2 3C000000 		.4byte	.LVL64
 3134 02e6 0100     		.2byte	0x1
 3135 02e8 54       		.byte	0x54
 3136 02e9 3C000000 		.4byte	.LVL64
 3137 02ed 46000000 		.4byte	.LVL65
 3138 02f1 0100     		.2byte	0x1
 3139 02f3 52       		.byte	0x52
 3140 02f4 46000000 		.4byte	.LVL65
 3141 02f8 4A000000 		.4byte	.LVL66
 3142 02fc 0100     		.2byte	0x1
 3143 02fe 54       		.byte	0x54
 3144 02ff 00000000 		.4byte	0
 3145 0303 00000000 		.4byte	0
 3146              	.LLST19:
 3147 0307 20000000 		.4byte	.LVL59
 3148 030b 24000000 		.4byte	.LVL60
 3149 030f 0200     		.2byte	0x2
 3150 0311 30       		.byte	0x30
 3151 0312 9F       		.byte	0x9f
 3152 0313 24000000 		.4byte	.LVL60
 3153 0317 2E000000 		.4byte	.LVL61
 3154 031b 0100     		.2byte	0x1
 3155 031d 53       		.byte	0x53
 3156 031e 30000000 		.4byte	.LVL62
 3157 0322 39000000 		.4byte	.LVL63-1
 3158 0326 0100     		.2byte	0x1
 3159 0328 53       		.byte	0x53
 3160 0329 00000000 		.4byte	0
 3161 032d 00000000 		.4byte	0
ARM GAS  C:\Users\bchir\AppData\Local\Temp\ccbc5zmo.s 			page 101


 3162              	.LLST20:
 3163 0331 00000000 		.4byte	.LVL67
 3164 0335 0A000000 		.4byte	.LVL68
 3165 0339 0100     		.2byte	0x1
 3166 033b 50       		.byte	0x50
 3167 033c 0A000000 		.4byte	.LVL68
 3168 0340 18000000 		.4byte	.LFE14
 3169 0344 0400     		.2byte	0x4
 3170 0346 F3       		.byte	0xf3
 3171 0347 01       		.uleb128 0x1
 3172 0348 50       		.byte	0x50
 3173 0349 9F       		.byte	0x9f
 3174 034a 00000000 		.4byte	0
 3175 034e 00000000 		.4byte	0
 3176              	.LLST21:
 3177 0352 00000000 		.4byte	.LVL70
 3178 0356 0A000000 		.4byte	.LVL71
 3179 035a 0100     		.2byte	0x1
 3180 035c 50       		.byte	0x50
 3181 035d 0A000000 		.4byte	.LVL71
 3182 0361 16000000 		.4byte	.LVL73
 3183 0365 0400     		.2byte	0x4
 3184 0367 F3       		.byte	0xf3
 3185 0368 01       		.uleb128 0x1
 3186 0369 50       		.byte	0x50
 3187 036a 9F       		.byte	0x9f
 3188 036b 16000000 		.4byte	.LVL73
 3189 036f 18000000 		.4byte	.LVL74
 3190 0373 0100     		.2byte	0x1
 3191 0375 50       		.byte	0x50
 3192 0376 18000000 		.4byte	.LVL74
 3193 037a 20000000 		.4byte	.LFE16
 3194 037e 0400     		.2byte	0x4
 3195 0380 F3       		.byte	0xf3
 3196 0381 01       		.uleb128 0x1
 3197 0382 50       		.byte	0x50
 3198 0383 9F       		.byte	0x9f
 3199 0384 00000000 		.4byte	0
 3200 0388 00000000 		.4byte	0
 3201              	.LLST22:
 3202 038c 00000000 		.4byte	.LVL70
 3203 0390 14000000 		.4byte	.LVL72
 3204 0394 0200     		.2byte	0x2
 3205 0396 30       		.byte	0x30
 3206 0397 9F       		.byte	0x9f
 3207 0398 14000000 		.4byte	.LVL72
 3208 039c 16000000 		.4byte	.LVL73
 3209 03a0 0100     		.2byte	0x1
 3210 03a2 50       		.byte	0x50
 3211 03a3 16000000 		.4byte	.LVL73
 3212 03a7 18000000 		.4byte	.LVL74
 3213 03ab 0200     		.2byte	0x2
 3214 03ad 30       		.byte	0x30
 3215 03ae 9F       		.byte	0x9f
 3216 03af 18000000 		.4byte	.LVL74
 3217 03b3 20000000 		.4byte	.LFE16
 3218 03b7 0100     		.2byte	0x1
ARM GAS  C:\Users\bchir\AppData\Local\Temp\ccbc5zmo.s 			page 102


 3219 03b9 50       		.byte	0x50
 3220 03ba 00000000 		.4byte	0
 3221 03be 00000000 		.4byte	0
 3222              	.LLST23:
 3223 03c2 00000000 		.4byte	.LVL76
 3224 03c6 10000000 		.4byte	.LVL77
 3225 03ca 0200     		.2byte	0x2
 3226 03cc 30       		.byte	0x30
 3227 03cd 9F       		.byte	0x9f
 3228 03ce 10000000 		.4byte	.LVL77
 3229 03d2 18000000 		.4byte	.LFE18
 3230 03d6 0100     		.2byte	0x1
 3231 03d8 50       		.byte	0x50
 3232 03d9 00000000 		.4byte	0
 3233 03dd 00000000 		.4byte	0
 3234              		.section	.debug_aranges,"",%progbits
 3235 0000 C4000000 		.4byte	0xc4
 3236 0004 0200     		.2byte	0x2
 3237 0006 00000000 		.4byte	.Ldebug_info0
 3238 000a 04       		.byte	0x4
 3239 000b 00       		.byte	0
 3240 000c 0000     		.2byte	0
 3241 000e 0000     		.2byte	0
 3242 0010 00000000 		.4byte	.LFB1
 3243 0014 04010000 		.4byte	.LFE1-.LFB1
 3244 0018 00000000 		.4byte	.LFB2
 3245 001c AC000000 		.4byte	.LFE2-.LFB2
 3246 0020 00000000 		.4byte	.LFB0
 3247 0024 24000000 		.4byte	.LFE0-.LFB0
 3248 0028 00000000 		.4byte	.LFB3
 3249 002c 4C000000 		.4byte	.LFE3-.LFB3
 3250 0030 00000000 		.4byte	.LFB4
 3251 0034 AC000000 		.4byte	.LFE4-.LFB4
 3252 0038 00000000 		.4byte	.LFB5
 3253 003c 20000000 		.4byte	.LFE5-.LFB5
 3254 0040 00000000 		.4byte	.LFB6
 3255 0044 0C000000 		.4byte	.LFE6-.LFB6
 3256 0048 00000000 		.4byte	.LFB7
 3257 004c 20000000 		.4byte	.LFE7-.LFB7
 3258 0050 00000000 		.4byte	.LFB8
 3259 0054 0C000000 		.4byte	.LFE8-.LFB8
 3260 0058 00000000 		.4byte	.LFB9
 3261 005c 14000000 		.4byte	.LFE9-.LFB9
 3262 0060 00000000 		.4byte	.LFB10
 3263 0064 28000000 		.4byte	.LFE10-.LFB10
 3264 0068 00000000 		.4byte	.LFB11
 3265 006c 94000000 		.4byte	.LFE11-.LFB11
 3266 0070 00000000 		.4byte	.LFB13
 3267 0074 2C000000 		.4byte	.LFE13-.LFB13
 3268 0078 00000000 		.4byte	.LFB12
 3269 007c 50000000 		.4byte	.LFE12-.LFB12
 3270 0080 00000000 		.4byte	.LFB14
 3271 0084 18000000 		.4byte	.LFE14-.LFB14
 3272 0088 00000000 		.4byte	.LFB15
 3273 008c 0C000000 		.4byte	.LFE15-.LFB15
 3274 0090 00000000 		.4byte	.LFB16
 3275 0094 20000000 		.4byte	.LFE16-.LFB16
ARM GAS  C:\Users\bchir\AppData\Local\Temp\ccbc5zmo.s 			page 103


 3276 0098 00000000 		.4byte	.LFB17
 3277 009c 20000000 		.4byte	.LFE17-.LFB17
 3278 00a0 00000000 		.4byte	.LFB18
 3279 00a4 18000000 		.4byte	.LFE18-.LFB18
 3280 00a8 00000000 		.4byte	.LFB19
 3281 00ac 10000000 		.4byte	.LFE19-.LFB19
 3282 00b0 00000000 		.4byte	.LFB20
 3283 00b4 02000000 		.4byte	.LFE20-.LFB20
 3284 00b8 00000000 		.4byte	.LFB21
 3285 00bc 02000000 		.4byte	.LFE21-.LFB21
 3286 00c0 00000000 		.4byte	0
 3287 00c4 00000000 		.4byte	0
 3288              		.section	.debug_ranges,"",%progbits
 3289              	.Ldebug_ranges0:
 3290 0000 52000000 		.4byte	.LBB2
 3291 0004 62000000 		.4byte	.LBE2
 3292 0008 64000000 		.4byte	.LBB3
 3293 000c 68000000 		.4byte	.LBE3
 3294 0010 00000000 		.4byte	0
 3295 0014 00000000 		.4byte	0
 3296 0018 00000000 		.4byte	.LFB1
 3297 001c 04010000 		.4byte	.LFE1
 3298 0020 00000000 		.4byte	.LFB2
 3299 0024 AC000000 		.4byte	.LFE2
 3300 0028 00000000 		.4byte	.LFB0
 3301 002c 24000000 		.4byte	.LFE0
 3302 0030 00000000 		.4byte	.LFB3
 3303 0034 4C000000 		.4byte	.LFE3
 3304 0038 00000000 		.4byte	.LFB4
 3305 003c AC000000 		.4byte	.LFE4
 3306 0040 00000000 		.4byte	.LFB5
 3307 0044 20000000 		.4byte	.LFE5
 3308 0048 00000000 		.4byte	.LFB6
 3309 004c 0C000000 		.4byte	.LFE6
 3310 0050 00000000 		.4byte	.LFB7
 3311 0054 20000000 		.4byte	.LFE7
 3312 0058 00000000 		.4byte	.LFB8
 3313 005c 0C000000 		.4byte	.LFE8
 3314 0060 00000000 		.4byte	.LFB9
 3315 0064 14000000 		.4byte	.LFE9
 3316 0068 00000000 		.4byte	.LFB10
 3317 006c 28000000 		.4byte	.LFE10
 3318 0070 00000000 		.4byte	.LFB11
 3319 0074 94000000 		.4byte	.LFE11
 3320 0078 00000000 		.4byte	.LFB13
 3321 007c 2C000000 		.4byte	.LFE13
 3322 0080 00000000 		.4byte	.LFB12
 3323 0084 50000000 		.4byte	.LFE12
 3324 0088 00000000 		.4byte	.LFB14
 3325 008c 18000000 		.4byte	.LFE14
 3326 0090 00000000 		.4byte	.LFB15
 3327 0094 0C000000 		.4byte	.LFE15
 3328 0098 00000000 		.4byte	.LFB16
 3329 009c 20000000 		.4byte	.LFE16
 3330 00a0 00000000 		.4byte	.LFB17
 3331 00a4 20000000 		.4byte	.LFE17
 3332 00a8 00000000 		.4byte	.LFB18
ARM GAS  C:\Users\bchir\AppData\Local\Temp\ccbc5zmo.s 			page 104


 3333 00ac 18000000 		.4byte	.LFE18
 3334 00b0 00000000 		.4byte	.LFB19
 3335 00b4 10000000 		.4byte	.LFE19
 3336 00b8 00000000 		.4byte	.LFB20
 3337 00bc 02000000 		.4byte	.LFE20
 3338 00c0 00000000 		.4byte	.LFB21
 3339 00c4 02000000 		.4byte	.LFE21
 3340 00c8 00000000 		.4byte	0
 3341 00cc 00000000 		.4byte	0
 3342              		.section	.debug_line,"",%progbits
 3343              	.Ldebug_line0:
 3344 0000 CC020000 		.section	.debug_str,"MS",%progbits,1
 3344      02007D00 
 3344      00000201 
 3344      FB0E0D00 
 3344      01010101 
 3345              	.LASF10:
 3346 0000 75696E74 		.ascii	"uint16\000"
 3346      313600
 3347              	.LASF63:
 3348 0007 55534246 		.ascii	"USBFS_1_LoadInEP\000"
 3348      535F315F 
 3348      4C6F6164 
 3348      496E4550 
 3348      00
 3349              	.LASF71:
 3350 0018 55534246 		.ascii	"USBFS_1_GetEPAckState\000"
 3350      535F315F 
 3350      47657445 
 3350      5041636B 
 3350      53746174 
 3351              	.LASF55:
 3352 002e 55534246 		.ascii	"USBFS_1_CheckActivity\000"
 3352      535F315F 
 3352      43686563 
 3352      6B416374 
 3352      69766974 
 3353              	.LASF81:
 3354 0044 55534246 		.ascii	"USBFS_1_initVar\000"
 3354      535F315F 
 3354      696E6974 
 3354      56617200 
 3355              	.LASF7:
 3356 0054 6C6F6E67 		.ascii	"long long unsigned int\000"
 3356      206C6F6E 
 3356      6720756E 
 3356      7369676E 
 3356      65642069 
 3357              	.LASF80:
 3358 006b 55534246 		.ascii	"USBFS_1_DisableSofInt\000"
 3358      535F315F 
 3358      44697361 
 3358      626C6553 
 3358      6F66496E 
 3359              	.LASF23:
 3360 0081 61646472 		.ascii	"addr\000"
 3360      00
ARM GAS  C:\Users\bchir\AppData\Local\Temp\ccbc5zmo.s 			page 105


 3361              	.LASF33:
 3362 0086 65704366 		.ascii	"epCfg\000"
 3362      6700
 3363              	.LASF90:
 3364 008c 55534246 		.ascii	"USBFS_1_EP\000"
 3364      535F315F 
 3364      455000
 3365              	.LASF60:
 3366 0097 65704E75 		.ascii	"epNumber\000"
 3366      6D626572 
 3366      00
 3367              	.LASF49:
 3368 00a0 64657669 		.ascii	"device\000"
 3368      636500
 3369              	.LASF6:
 3370 00a7 6C6F6E67 		.ascii	"long long int\000"
 3370      206C6F6E 
 3370      6720696E 
 3370      7400
 3371              	.LASF0:
 3372 00b5 7369676E 		.ascii	"signed char\000"
 3372      65642063 
 3372      68617200 
 3373              	.LASF62:
 3374 00c1 636E7472 		.ascii	"cntr\000"
 3374      00
 3375              	.LASF4:
 3376 00c6 6C6F6E67 		.ascii	"long int\000"
 3376      20696E74 
 3376      00
 3377              	.LASF67:
 3378 00cf 55534246 		.ascii	"USBFS_1_ReadOutEP\000"
 3378      535F315F 
 3378      52656164 
 3378      4F757445 
 3378      5000
 3379              	.LASF9:
 3380 00e1 75696E74 		.ascii	"uint8\000"
 3380      3800
 3381              	.LASF22:
 3382 00e7 6570546F 		.ascii	"epToggle\000"
 3382      67676C65 
 3382      00
 3383              	.LASF37:
 3384 00f0 72775761 		.ascii	"rwWa\000"
 3384      00
 3385              	.LASF75:
 3386 00f5 72657375 		.ascii	"result\000"
 3386      6C7400
 3387              	.LASF93:
 3388 00fc 43794465 		.ascii	"CyDelayUs\000"
 3388      6C617955 
 3388      7300
 3389              	.LASF13:
 3390 0106 646F7562 		.ascii	"double\000"
 3390      6C6500
 3391              	.LASF73:
ARM GAS  C:\Users\bchir\AppData\Local\Temp\ccbc5zmo.s 			page 106


 3392 010d 706F7765 		.ascii	"powerStatus\000"
 3392      72537461 
 3392      74757300 
 3393              	.LASF86:
 3394 0119 55534246 		.ascii	"USBFS_1_deviceStatus\000"
 3394      535F315F 
 3394      64657669 
 3394      63655374 
 3394      61747573 
 3395              	.LASF35:
 3396 012e 65705372 		.ascii	"epSr\000"
 3396      00
 3397              	.LASF11:
 3398 0133 75696E74 		.ascii	"uint32\000"
 3398      333200
 3399              	.LASF64:
 3400 013a 70446174 		.ascii	"pData\000"
 3400      6100
 3401              	.LASF43:
 3402 0140 73696545 		.ascii	"sieEp\000"
 3402      7000
 3403              	.LASF24:
 3404 0146 65704D6F 		.ascii	"epMode\000"
 3404      646500
 3405              	.LASF87:
 3406 014d 55534246 		.ascii	"USBFS_1_interfaceNumber\000"
 3406      535F315F 
 3406      696E7465 
 3406      72666163 
 3406      654E756D 
 3407              	.LASF36:
 3408 0165 72657365 		.ascii	"reserved\000"
 3408      72766564 
 3408      00
 3409              	.LASF68:
 3410 016e 55534246 		.ascii	"USBFS_1_DisableOutEP\000"
 3410      535F315F 
 3410      44697361 
 3410      626C654F 
 3410      75744550 
 3411              	.LASF8:
 3412 0183 756E7369 		.ascii	"unsigned int\000"
 3412      676E6564 
 3412      20696E74 
 3412      00
 3413              	.LASF84:
 3414 0190 55534246 		.ascii	"USBFS_1_configuration\000"
 3414      535F315F 
 3414      636F6E66 
 3414      69677572 
 3414      6174696F 
 3415              	.LASF42:
 3416 01a6 55534246 		.ascii	"USBFS_1_arb_ep_struct\000"
 3416      535F315F 
 3416      6172625F 
 3416      65705F73 
 3416      74727563 
ARM GAS  C:\Users\bchir\AppData\Local\Temp\ccbc5zmo.s 			page 107


 3417              	.LASF5:
 3418 01bc 6C6F6E67 		.ascii	"long unsigned int\000"
 3418      20756E73 
 3418      69676E65 
 3418      6420696E 
 3418      7400
 3419              	.LASF52:
 3420 01ce 55534246 		.ascii	"USBFS_1_Stop\000"
 3420      535F315F 
 3420      53746F70 
 3420      00
 3421              	.LASF92:
 3422 01db 4379456E 		.ascii	"CyEnterCriticalSection\000"
 3422      74657243 
 3422      72697469 
 3422      63616C53 
 3422      65637469 
 3423              	.LASF44:
 3424 01f2 55534246 		.ascii	"USBFS_1_sie_eps_struct\000"
 3424      535F315F 
 3424      7369655F 
 3424      6570735F 
 3424      73747275 
 3425              	.LASF46:
 3426 0209 55534246 		.ascii	"USBFS_1_arb_eps_struct\000"
 3426      535F315F 
 3426      6172625F 
 3426      6570735F 
 3426      73747275 
 3427              	.LASF77:
 3428 0220 55534246 		.ascii	"USBFS_1_GetDeviceAddress\000"
 3428      535F315F 
 3428      47657444 
 3428      65766963 
 3428      65416464 
 3429              	.LASF51:
 3430 0239 55534246 		.ascii	"USBFS_1_Start\000"
 3430      535F315F 
 3430      53746172 
 3430      7400
 3431              	.LASF3:
 3432 0247 73686F72 		.ascii	"short unsigned int\000"
 3432      7420756E 
 3432      7369676E 
 3432      65642069 
 3432      6E7400
 3433              	.LASF96:
 3434 025a 4379496E 		.ascii	"CyIntSetVector\000"
 3434      74536574 
 3434      56656374 
 3434      6F7200
 3435              	.LASF28:
 3436 0269 545F5553 		.ascii	"T_USBFS_1_EP_CTL_BLOCK\000"
 3436      4246535F 
 3436      315F4550 
 3436      5F43544C 
 3436      5F424C4F 
ARM GAS  C:\Users\bchir\AppData\Local\Temp\ccbc5zmo.s 			page 108


 3437              	.LASF72:
 3438 0280 55534246 		.ascii	"USBFS_1_SetPowerStatus\000"
 3438      535F315F 
 3438      53657450 
 3438      6F776572 
 3438      53746174 
 3439              	.LASF66:
 3440 0297 55534246 		.ascii	"USBFS_1_EnableOutEP\000"
 3440      535F315F 
 3440      456E6162 
 3440      6C654F75 
 3440      74455000 
 3441              	.LASF95:
 3442 02ab 4379496E 		.ascii	"CyIntSetPriority\000"
 3442      74536574 
 3442      5072696F 
 3442      72697479 
 3442      00
 3443              	.LASF45:
 3444 02bc 61726245 		.ascii	"arbEp\000"
 3444      7000
 3445              	.LASF27:
 3446 02c2 696E7465 		.ascii	"interface\000"
 3446      72666163 
 3446      6500
 3447              	.LASF54:
 3448 02cc 63723152 		.ascii	"cr1Reg\000"
 3448      656700
 3449              	.LASF16:
 3450 02d3 72656733 		.ascii	"reg32\000"
 3450      3200
 3451              	.LASF21:
 3452 02d9 68774570 		.ascii	"hwEpState\000"
 3452      53746174 
 3452      6500
 3453              	.LASF76:
 3454 02e3 55534246 		.ascii	"USBFS_1_GetConfiguration\000"
 3454      535F315F 
 3454      47657443 
 3454      6F6E6669 
 3454      67757261 
 3455              	.LASF18:
 3456 02fc 73697A65 		.ascii	"sizetype\000"
 3456      74797065 
 3456      00
 3457              	.LASF59:
 3458 0305 55534246 		.ascii	"USBFS_1_GetEPState\000"
 3458      535F315F 
 3458      47657445 
 3458      50537461 
 3458      746500
 3459              	.LASF17:
 3460 0318 6C6F6E67 		.ascii	"long double\000"
 3460      20646F75 
 3460      626C6500 
 3461              	.LASF19:
 3462 0324 61747472 		.ascii	"attrib\000"
ARM GAS  C:\Users\bchir\AppData\Local\Temp\ccbc5zmo.s 			page 109


 3462      696200
 3463              	.LASF56:
 3464 032b 55534246 		.ascii	"USBFS_1_IsConfigurationChanged\000"
 3464      535F315F 
 3464      4973436F 
 3464      6E666967 
 3464      75726174 
 3465              	.LASF40:
 3466 034a 72775261 		.ascii	"rwRaMsb\000"
 3466      4D736200 
 3467              	.LASF29:
 3468 0352 6570436E 		.ascii	"epCnt0\000"
 3468      743000
 3469              	.LASF30:
 3470 0359 6570436E 		.ascii	"epCnt1\000"
 3470      743100
 3471              	.LASF32:
 3472 0360 55534246 		.ascii	"USBFS_1_sie_ep_struct\000"
 3472      535F315F 
 3472      7369655F 
 3472      65705F73 
 3472      74727563 
 3473              	.LASF31:
 3474 0376 65704372 		.ascii	"epCr0\000"
 3474      3000
 3475              	.LASF101:
 3476 037c 453A5C47 		.ascii	"E:\\GIT Hub Project\\protocov\\Protocov\\Protocov.c"
 3476      49542048 
 3476      75622050 
 3476      726F6A65 
 3476      63745C70 
 3477 03ab 7964736E 		.ascii	"ydsn\000"
 3477      00
 3478              	.LASF12:
 3479 03b0 666C6F61 		.ascii	"float\000"
 3479      7400
 3480              	.LASF94:
 3481 03b6 43794578 		.ascii	"CyExitCriticalSection\000"
 3481      69744372 
 3481      69746963 
 3481      616C5365 
 3481      6374696F 
 3482              	.LASF20:
 3483 03cc 61706945 		.ascii	"apiEpState\000"
 3483      70537461 
 3483      746500
 3484              	.LASF88:
 3485 03d7 55534246 		.ascii	"USBFS_1_interfaceSetting\000"
 3485      535F315F 
 3485      696E7465 
 3485      72666163 
 3485      65536574 
 3486              	.LASF97:
 3487 03f0 43794465 		.ascii	"CyDelayCycles\000"
 3487      6C617943 
 3487      79636C65 
 3487      7300
ARM GAS  C:\Users\bchir\AppData\Local\Temp\ccbc5zmo.s 			page 110


 3488              	.LASF61:
 3489 03fe 55534246 		.ascii	"USBFS_1_GetEPCount\000"
 3489      535F315F 
 3489      47657445 
 3489      50436F75 
 3489      6E7400
 3490              	.LASF15:
 3491 0411 72656738 		.ascii	"reg8\000"
 3491      00
 3492              	.LASF1:
 3493 0416 756E7369 		.ascii	"unsigned char\000"
 3493      676E6564 
 3493      20636861 
 3493      7200
 3494              	.LASF100:
 3495 0424 47656E65 		.ascii	"Generated_Source\\PSoC5\\USBFS_1.c\000"
 3495      72617465 
 3495      645F536F 
 3495      75726365 
 3495      5C50536F 
 3496              	.LASF2:
 3497 0445 73686F72 		.ascii	"short int\000"
 3497      7420696E 
 3497      7400
 3498              	.LASF82:
 3499 044f 55534246 		.ascii	"USBFS_1_device\000"
 3499      535F315F 
 3499      64657669 
 3499      636500
 3500              	.LASF69:
 3501 045e 55534246 		.ascii	"USBFS_1_Force\000"
 3501      535F315F 
 3501      466F7263 
 3501      6500
 3502              	.LASF39:
 3503 046c 72775261 		.ascii	"rwRa\000"
 3503      00
 3504              	.LASF99:
 3505 0471 474E5520 		.ascii	"GNU C11 5.4.1 20160609 (release) [ARM/embedded-5-br"
 3505      43313120 
 3505      352E342E 
 3505      31203230 
 3505      31363036 
 3506 04a4 616E6368 		.ascii	"anch revision 237715] -mcpu=cortex-m3 -mthumb -g -O"
 3506      20726576 
 3506      6973696F 
 3506      6E203233 
 3506      37373135 
 3507 04d7 67202D66 		.ascii	"g -ffunction-sections -ffat-lto-objects\000"
 3507      66756E63 
 3507      74696F6E 
 3507      2D736563 
 3507      74696F6E 
 3508              	.LASF38:
 3509 04ff 72775761 		.ascii	"rwWaMsb\000"
 3509      4D736200 
 3510              	.LASF70:
ARM GAS  C:\Users\bchir\AppData\Local\Temp\ccbc5zmo.s 			page 111


 3511 0507 62537461 		.ascii	"bState\000"
 3511      746500
 3512              	.LASF85:
 3513 050e 55534246 		.ascii	"USBFS_1_configurationChanged\000"
 3513      535F315F 
 3513      636F6E66 
 3513      69677572 
 3513      6174696F 
 3514              	.LASF48:
 3515 052b 55534246 		.ascii	"USBFS_1_InitComponent\000"
 3515      535F315F 
 3515      496E6974 
 3515      436F6D70 
 3515      6F6E656E 
 3516              	.LASF47:
 3517 0541 55534246 		.ascii	"USBFS_1_Init\000"
 3517      535F315F 
 3517      496E6974 
 3517      00
 3518              	.LASF14:
 3519 054e 63686172 		.ascii	"char\000"
 3519      00
 3520              	.LASF50:
 3521 0553 6D6F6465 		.ascii	"mode\000"
 3521      00
 3522              	.LASF26:
 3523 0558 62756666 		.ascii	"bufferSize\000"
 3523      65725369 
 3523      7A6500
 3524              	.LASF25:
 3525 0563 62756666 		.ascii	"buffOffset\000"
 3525      4F666673 
 3525      657400
 3526              	.LASF58:
 3527 056e 696E7465 		.ascii	"interfaceNumber\000"
 3527      72666163 
 3527      654E756D 
 3527      62657200 
 3528              	.LASF83:
 3529 057e 55534246 		.ascii	"USBFS_1_transferState\000"
 3529      535F315F 
 3529      7472616E 
 3529      73666572 
 3529      53746174 
 3530              	.LASF98:
 3531 0594 55534246 		.ascii	"USBFS_1_Dp_ClearInterrupt\000"
 3531      535F315F 
 3531      44705F43 
 3531      6C656172 
 3531      496E7465 
 3532              	.LASF74:
 3533 05ae 55534246 		.ascii	"USBFS_1_RWUEnabled\000"
 3533      535F315F 
 3533      52575545 
 3533      6E61626C 
 3533      656400
 3534              	.LASF89:
ARM GAS  C:\Users\bchir\AppData\Local\Temp\ccbc5zmo.s 			page 112


 3535 05c1 55534246 		.ascii	"USBFS_1_deviceAddress\000"
 3535      535F315F 
 3535      64657669 
 3535      63654164 
 3535      64726573 
 3536              	.LASF65:
 3537 05d7 6C656E67 		.ascii	"length\000"
 3537      746800
 3538              	.LASF53:
 3539 05de 656E6162 		.ascii	"enableInterrupts\000"
 3539      6C65496E 
 3539      74657272 
 3539      75707473 
 3539      00
 3540              	.LASF41:
 3541 05ef 72774472 		.ascii	"rwDr\000"
 3541      00
 3542              	.LASF79:
 3543 05f4 55534246 		.ascii	"USBFS_1_EnableSofInt\000"
 3543      535F315F 
 3543      456E6162 
 3543      6C65536F 
 3543      66496E74 
 3544              	.LASF34:
 3545 0609 6570496E 		.ascii	"epIntEn\000"
 3545      74456E00 
 3546              	.LASF91:
 3547 0611 55534246 		.ascii	"USBFS_1_lastPacketSize\000"
 3547      535F315F 
 3547      6C617374 
 3547      5061636B 
 3547      65745369 
 3548              	.LASF57:
 3549 0628 55534246 		.ascii	"USBFS_1_GetInterfaceSetting\000"
 3549      535F315F 
 3549      47657449 
 3549      6E746572 
 3549      66616365 
 3550              	.LASF78:
 3551 0644 55534246 		.ascii	"USBFS_1_ReInitComponent\000"
 3551      535F315F 
 3551      5265496E 
 3551      6974436F 
 3551      6D706F6E 
 3552              		.ident	"GCC: (GNU Tools for ARM Embedded Processors) 5.4.1 20160609 (release) [ARM/embedded-5-bran
