ARM GAS  C:\Users\bchir\AppData\Local\Temp\ccSCGIB7.s 			page 1


   1              		.syntax unified
   2              		.cpu cortex-m3
   3              		.fpu softvfp
   4              		.eabi_attribute 20, 1
   5              		.eabi_attribute 21, 1
   6              		.eabi_attribute 23, 3
   7              		.eabi_attribute 24, 1
   8              		.eabi_attribute 25, 1
   9              		.eabi_attribute 26, 1
  10              		.eabi_attribute 30, 1
  11              		.eabi_attribute 34, 1
  12              		.eabi_attribute 18, 4
  13              		.thumb
  14              		.syntax unified
  15              		.file	"UserButtonControl.c"
  16              		.text
  17              	.Ltext0:
  18              		.cfi_sections	.debug_frame
  19              		.section	.text.TaskUserButtonControl,"ax",%progbits
  20              		.align	2
  21              		.thumb
  22              		.thumb_func
  23              		.type	TaskUserButtonControl, %function
  24              	TaskUserButtonControl:
  25              	.LFB68:
  26              		.file 1 "UserButtonControl.c"
   1:UserButtonControl.c **** /* ========================================
   2:UserButtonControl.c ****  *
   3:UserButtonControl.c ****  * Copyright YOUR COMPANY, THE YEAR
   4:UserButtonControl.c ****  * All Rights Reserved
   5:UserButtonControl.c ****  * UNPUBLISHED, LICENSED SOFTWARE.
   6:UserButtonControl.c ****  *
   7:UserButtonControl.c ****  * CONFIDENTIAL AND PROPRIETARY INFORMATION
   8:UserButtonControl.c ****  * WHICH IS THE PROPERTY OF your company.
   9:UserButtonControl.c ****  *
  10:UserButtonControl.c ****  * ========================================
  11:UserButtonControl.c **** */
  12:UserButtonControl.c **** 
  13:UserButtonControl.c **** #include "UserButtonControl.h"
  14:UserButtonControl.c **** 
  15:UserButtonControl.c **** static TaskHandle_t xHandle;
  16:UserButtonControl.c **** 
  17:UserButtonControl.c **** static void TaskUserButtonControl( void *pvParameters )
  18:UserButtonControl.c **** {
  27              		.loc 1 18 0
  28              		.cfi_startproc
  29              		@ Volatile: function does not return.
  30              		@ args = 0, pretend = 0, frame = 0
  31              		@ frame_needed = 0, uses_anonymous_args = 0
  32              	.LVL0:
  33 0000 08B5     		push	{r3, lr}
  34              		.cfi_def_cfa_offset 8
  35              		.cfi_offset 3, -8
  36              		.cfi_offset 14, -4
  19:UserButtonControl.c **** 	
  20:UserButtonControl.c ****     (void)pvParameters;
  21:UserButtonControl.c ****     
ARM GAS  C:\Users\bchir\AppData\Local\Temp\ccSCGIB7.s 			page 2


  22:UserButtonControl.c ****     PlayPauseButton_SetDriveMode ( PIN_DM_DIG_HIZ  );
  37              		.loc 1 22 0
  38 0002 0220     		movs	r0, #2
  39              	.LVL1:
  40 0004 FFF7FEFF 		bl	PlayPauseButton_SetDriveMode
  41              	.LVL2:
  42              	.L2:
  23:UserButtonControl.c ****   
  24:UserButtonControl.c **** 	for( ;; )
  25:UserButtonControl.c **** 	{
  26:UserButtonControl.c **** 		
  27:UserButtonControl.c ****         vTaskDelay(1);
  43              		.loc 1 27 0 discriminator 1
  44 0008 0120     		movs	r0, #1
  45 000a FFF7FEFF 		bl	vTaskDelay
  46              	.LVL3:
  47 000e FBE7     		b	.L2
  48              		.cfi_endproc
  49              	.LFE68:
  50              		.size	TaskUserButtonControl, .-TaskUserButtonControl
  51              		.section	.text.startTaskUserButtonControl,"ax",%progbits
  52              		.align	2
  53              		.global	startTaskUserButtonControl
  54              		.thumb
  55              		.thumb_func
  56              		.type	startTaskUserButtonControl, %function
  57              	startTaskUserButtonControl:
  58              	.LFB69:
  28:UserButtonControl.c **** 	}
  29:UserButtonControl.c **** 	
  30:UserButtonControl.c **** }
  31:UserButtonControl.c **** 
  32:UserButtonControl.c **** 
  33:UserButtonControl.c **** void startTaskUserButtonControl()
  34:UserButtonControl.c **** {
  59              		.loc 1 34 0
  60              		.cfi_startproc
  61              		@ args = 0, pretend = 0, frame = 0
  62              		@ frame_needed = 0, uses_anonymous_args = 0
  63 0000 00B5     		push	{lr}
  64              		.cfi_def_cfa_offset 4
  65              		.cfi_offset 14, -4
  66 0002 83B0     		sub	sp, sp, #12
  67              		.cfi_def_cfa_offset 16
  35:UserButtonControl.c ****     xHandle = NULL; 
  68              		.loc 1 35 0
  69 0004 064A     		ldr	r2, .L6
  70 0006 0023     		movs	r3, #0
  71 0008 1360     		str	r3, [r2]
  36:UserButtonControl.c ****  	/* Create the task, storing the handle. */ 
  37:UserButtonControl.c **** 	xTaskCreate(
  72              		.loc 1 37 0
  73 000a 0192     		str	r2, [sp, #4]
  74 000c 0093     		str	r3, [sp]
  75 000e 0123     		movs	r3, #1
  76 0010 8022     		movs	r2, #128
  77 0012 0449     		ldr	r1, .L6+4
ARM GAS  C:\Users\bchir\AppData\Local\Temp\ccSCGIB7.s 			page 3


  78 0014 0448     		ldr	r0, .L6+8
  79 0016 FFF7FEFF 		bl	xTaskCreate
  80              	.LVL4:
  38:UserButtonControl.c **** 		TaskUserButtonControl,    /* Function that implements the task. */ 
  39:UserButtonControl.c **** 		"UserButtonControl",  /* Text name for the task. */ 
  40:UserButtonControl.c **** 		128,                        /* Stack size in words, not bytes. */ 
  41:UserButtonControl.c **** 		( void * ) 1,               /* Parameter passed into the task. */ 
  42:UserButtonControl.c **** 		tskIDLE_PRIORITY,           /* Priority at which the task is created. */ 
  43:UserButtonControl.c **** 	&xHandle );                     /* Used to pass out the created task's handle. */ 
  44:UserButtonControl.c ****     
  45:UserButtonControl.c ****     
  46:UserButtonControl.c **** }
  81              		.loc 1 46 0
  82 001a 03B0     		add	sp, sp, #12
  83              		.cfi_def_cfa_offset 4
  84              		@ sp needed
  85 001c 5DF804FB 		ldr	pc, [sp], #4
  86              	.L7:
  87              		.align	2
  88              	.L6:
  89 0020 00000000 		.word	.LANCHOR0
  90 0024 00000000 		.word	.LC0
  91 0028 00000000 		.word	TaskUserButtonControl
  92              		.cfi_endproc
  93              	.LFE69:
  94              		.size	startTaskUserButtonControl, .-startTaskUserButtonControl
  95              		.section	.rodata.str1.4,"aMS",%progbits,1
  96              		.align	2
  97              	.LC0:
  98 0000 55736572 		.ascii	"UserButtonControl\000"
  98      42757474 
  98      6F6E436F 
  98      6E74726F 
  98      6C00
  99              		.bss
 100              		.align	2
 101              		.set	.LANCHOR0,. + 0
 102              		.type	xHandle, %object
 103              		.size	xHandle, 4
 104              	xHandle:
 105 0000 00000000 		.space	4
 106              		.text
 107              	.Letext0:
 108              		.file 2 "c:\\program files (x86)\\cypress\\psoc creator\\4.4\\psoc creator\\import\\gnu\\arm\\5.4.
 109              		.file 3 "c:\\program files (x86)\\cypress\\psoc creator\\4.4\\psoc creator\\import\\gnu\\arm\\5.4.
 110              		.file 4 "Generated_Source\\PSoC5/cytypes.h"
 111              		.file 5 "..\\..\\..\\FreeRTOS\\FreeRTOS-Kernel\\portable\\GCC\\ARM_CM3/portmacro.h"
 112              		.file 6 "..\\..\\..\\FreeRTOS\\FreeRTOS-Kernel\\include/task.h"
 113              		.file 7 "Generated_Source\\PSoC5/PlayPauseButton.h"
 114              		.file 8 "Generated_Source\\PSoC5/core_cm3.h"