ARM GAS  C:\Users\bchir\AppData\Local\Temp\ccwt4JXe.s 			page 1


   1              		.syntax unified
   2              		.cpu cortex-m3
   3              		.fpu softvfp
   4              		.eabi_attribute 20, 1
   5              		.eabi_attribute 21, 1
   6              		.eabi_attribute 23, 3
   7              		.eabi_attribute 24, 1
   8              		.eabi_attribute 25, 1
   9              		.eabi_attribute 26, 1
  10              		.eabi_attribute 30, 1
  11              		.eabi_attribute 34, 1
  12              		.eabi_attribute 18, 4
  13              		.thumb
  14              		.syntax unified
  15              		.file	"VehicleBatteryVoltage.c"
  16              		.text
  17              	.Ltext0:
  18              		.cfi_sections	.debug_frame
  19              		.global	__aeabi_ui2f
  20              		.global	__aeabi_i2f
  21              		.global	__aeabi_fsub
  22              		.global	__aeabi_fmul
  23              		.section	.text.TaskVehicleBatteryVoltage,"ax",%progbits
  24              		.align	2
  25              		.thumb
  26              		.thumb_func
  27              		.type	TaskVehicleBatteryVoltage, %function
  28              	TaskVehicleBatteryVoltage:
  29              	.LFB68:
  30              		.file 1 "VehicleBatteryVoltage.c"
   1:VehicleBatteryVoltage.c **** /* ========================================
   2:VehicleBatteryVoltage.c ****  *
   3:VehicleBatteryVoltage.c ****  * Copyright YOUR COMPANY, THE YEAR
   4:VehicleBatteryVoltage.c ****  * All Rights Reserved
   5:VehicleBatteryVoltage.c ****  * UNPUBLISHED, LICENSED SOFTWARE.
   6:VehicleBatteryVoltage.c ****  *
   7:VehicleBatteryVoltage.c ****  * CONFIDENTIAL AND PROPRIETARY INFORMATION
   8:VehicleBatteryVoltage.c ****  * WHICH IS THE PROPERTY OF your company.
   9:VehicleBatteryVoltage.c ****  *
  10:VehicleBatteryVoltage.c ****  * ========================================
  11:VehicleBatteryVoltage.c **** */
  12:VehicleBatteryVoltage.c **** 
  13:VehicleBatteryVoltage.c **** #include "VehicleBatteryVoltage.h"
  14:VehicleBatteryVoltage.c **** #include "SystemMessenger.h"
  15:VehicleBatteryVoltage.c **** 
  16:VehicleBatteryVoltage.c **** static TaskHandle_t xHandle = NULL; 
  17:VehicleBatteryVoltage.c **** 
  18:VehicleBatteryVoltage.c **** static void TaskVehicleBatteryVoltage( void *pvParameters )
  19:VehicleBatteryVoltage.c **** {
  31              		.loc 1 19 0
  32              		.cfi_startproc
  33              		@ args = 0, pretend = 0, frame = 72
  34              		@ frame_needed = 0, uses_anonymous_args = 0
  35              	.LVL0:
  36 0000 D0B5     		push	{r4, r6, r7, lr}
  37              		.cfi_def_cfa_offset 16
  38              		.cfi_offset 4, -16
ARM GAS  C:\Users\bchir\AppData\Local\Temp\ccwt4JXe.s 			page 2


  39              		.cfi_offset 6, -12
  40              		.cfi_offset 7, -8
  41              		.cfi_offset 14, -4
  42 0002 98B0     		sub	sp, sp, #96
  43              		.cfi_def_cfa_offset 112
  20:VehicleBatteryVoltage.c **** 	
  21:VehicleBatteryVoltage.c ****     (void)pvParameters;
  22:VehicleBatteryVoltage.c **** 
  23:VehicleBatteryVoltage.c ****     ClockVehicleBattVoltageADC_Start();
  44              		.loc 1 23 0
  45 0004 FFF7FEFF 		bl	ClockVehicleBattVoltageADC_Start
  46              	.LVL1:
  24:VehicleBatteryVoltage.c ****     VehicleBattVoltageAdc_Start();
  47              		.loc 1 24 0
  48 0008 FFF7FEFF 		bl	VehicleBattVoltageAdc_Start
  49              	.LVL2:
  25:VehicleBatteryVoltage.c ****     VehicleBattVoltageAdc_StartConvert();
  50              		.loc 1 25 0
  51 000c FFF7FEFF 		bl	VehicleBattVoltageAdc_StartConvert
  52              	.LVL3:
  26:VehicleBatteryVoltage.c **** 
  27:VehicleBatteryVoltage.c ****     volatile uint16_t battVoltage_mV = 0;
  53              		.loc 1 27 0
  54 0010 0023     		movs	r3, #0
  55 0012 ADF85E30 		strh	r3, [sp, #94]	@ movhi
  28:VehicleBatteryVoltage.c ****     volatile uint16_t battVoltage_count = 0;
  56              		.loc 1 28 0
  57 0016 ADF85C30 		strh	r3, [sp, #92]	@ movhi
  58              	.LVL4:
  29:VehicleBatteryVoltage.c ****     
  30:VehicleBatteryVoltage.c ****     systemMessagePacket_t datapack;
  31:VehicleBatteryVoltage.c ****     powerMoConDataPacket_t readVoltage;
  32:VehicleBatteryVoltage.c ****     
  33:VehicleBatteryVoltage.c ****     uint16_t RawData;
  34:VehicleBatteryVoltage.c ****     float LPF_Beta = 0.05; // 0<ß<1
  35:VehicleBatteryVoltage.c ****     
  36:VehicleBatteryVoltage.c ****     float filteredVoltage =0;
  37:VehicleBatteryVoltage.c ****     
  38:VehicleBatteryVoltage.c ****     
  39:VehicleBatteryVoltage.c ****     battVoltage_count = VehicleBattVoltageAdc_GetResult16();
  59              		.loc 1 39 0
  60 001a FFF7FEFF 		bl	VehicleBattVoltageAdc_GetResult16
  61              	.LVL5:
  62 001e 80B2     		uxth	r0, r0
  63 0020 ADF85C00 		strh	r0, [sp, #92]	@ movhi
  40:VehicleBatteryVoltage.c ****         
  41:VehicleBatteryVoltage.c ****     VehicleBattVoltageAdc_CountsTo_mVolts( battVoltage_count );
  64              		.loc 1 41 0
  65 0024 BDF85C00 		ldrh	r0, [sp, #92]
  66 0028 00B2     		sxth	r0, r0
  67 002a FFF7FEFF 		bl	VehicleBattVoltageAdc_CountsTo_mVolts
  68              	.LVL6:
  42:VehicleBatteryVoltage.c ****         
  43:VehicleBatteryVoltage.c ****     battVoltage_mV = VehicleBattVoltageAdc_CountsTo_mVolts( battVoltage_count );
  69              		.loc 1 43 0
  70 002e BDF85C00 		ldrh	r0, [sp, #92]
  71 0032 00B2     		sxth	r0, r0
ARM GAS  C:\Users\bchir\AppData\Local\Temp\ccwt4JXe.s 			page 3


  72 0034 FFF7FEFF 		bl	VehicleBattVoltageAdc_CountsTo_mVolts
  73              	.LVL7:
  74 0038 80B2     		uxth	r0, r0
  75 003a ADF85E00 		strh	r0, [sp, #94]	@ movhi
  44:VehicleBatteryVoltage.c ****     
  45:VehicleBatteryVoltage.c ****     filteredVoltage = battVoltage_mV;
  76              		.loc 1 45 0
  77 003e BDF85E00 		ldrh	r0, [sp, #94]
  78 0042 80B2     		uxth	r0, r0
  79 0044 FFF7FEFF 		bl	__aeabi_ui2f
  80              	.LVL8:
  81 0048 0446     		mov	r4, r0
  82              	.LVL9:
  83              	.L2:
  46:VehicleBatteryVoltage.c ****     
  47:VehicleBatteryVoltage.c **** 	for( ;; )
  48:VehicleBatteryVoltage.c **** 	{
  49:VehicleBatteryVoltage.c **** 		
  50:VehicleBatteryVoltage.c ****         
  51:VehicleBatteryVoltage.c ****         battVoltage_count = VehicleBattVoltageAdc_GetResult16();
  84              		.loc 1 51 0
  85 004a FFF7FEFF 		bl	VehicleBattVoltageAdc_GetResult16
  86              	.LVL10:
  87 004e 80B2     		uxth	r0, r0
  88 0050 ADF85C00 		strh	r0, [sp, #92]	@ movhi
  52:VehicleBatteryVoltage.c ****         
  53:VehicleBatteryVoltage.c ****         VehicleBattVoltageAdc_CountsTo_mVolts( battVoltage_count );
  89              		.loc 1 53 0
  90 0054 BDF85C00 		ldrh	r0, [sp, #92]
  91 0058 00B2     		sxth	r0, r0
  92 005a FFF7FEFF 		bl	VehicleBattVoltageAdc_CountsTo_mVolts
  93              	.LVL11:
  54:VehicleBatteryVoltage.c ****         
  55:VehicleBatteryVoltage.c ****         battVoltage_mV = VehicleBattVoltageAdc_CountsTo_mVolts( battVoltage_count );
  94              		.loc 1 55 0
  95 005e BDF85C00 		ldrh	r0, [sp, #92]
  96 0062 00B2     		sxth	r0, r0
  97 0064 FFF7FEFF 		bl	VehicleBattVoltageAdc_CountsTo_mVolts
  98              	.LVL12:
  99 0068 80B2     		uxth	r0, r0
 100 006a ADF85E00 		strh	r0, [sp, #94]	@ movhi
  56:VehicleBatteryVoltage.c ****         
  57:VehicleBatteryVoltage.c ****         
  58:VehicleBatteryVoltage.c ****         // Function that brings Fresh Data into RawData
  59:VehicleBatteryVoltage.c ****         filteredVoltage = filteredVoltage - (LPF_Beta * (filteredVoltage - battVoltage_mV));
 101              		.loc 1 59 0
 102 006e BDF85E00 		ldrh	r0, [sp, #94]
 103 0072 80B2     		uxth	r0, r0
 104 0074 FFF7FEFF 		bl	__aeabi_i2f
 105              	.LVL13:
 106 0078 0146     		mov	r1, r0
 107 007a 2046     		mov	r0, r4
 108 007c FFF7FEFF 		bl	__aeabi_fsub
 109              	.LVL14:
 110 0080 1349     		ldr	r1, .L5
 111 0082 FFF7FEFF 		bl	__aeabi_fmul
 112              	.LVL15:
ARM GAS  C:\Users\bchir\AppData\Local\Temp\ccwt4JXe.s 			page 4


 113 0086 0146     		mov	r1, r0
 114 0088 2046     		mov	r0, r4
 115 008a FFF7FEFF 		bl	__aeabi_fsub
 116              	.LVL16:
 117 008e 0446     		mov	r4, r0
 118              	.LVL17:
  60:VehicleBatteryVoltage.c ****         
  61:VehicleBatteryVoltage.c ****         readVoltage.vehicleBattVoltage = filteredVoltage;
 119              		.loc 1 61 0
 120 0090 18A9     		add	r1, sp, #96
 121 0092 41F8480D 		str	r0, [r1, #-72]!	@ float
  62:VehicleBatteryVoltage.c ****         
  63:VehicleBatteryVoltage.c ****         createSystemMsgPacket( &datapack, &readVoltage, sizeof(powerMoConDataPacket_t), VEHICLE_BAT
 122              		.loc 1 63 0
 123 0096 0023     		movs	r3, #0
 124 0098 0493     		str	r3, [sp, #16]
 125 009a 0026     		movs	r6, #0
 126 009c 0027     		movs	r7, #0
 127 009e CDE90267 		strd	r6, [sp, #8]
 128 00a2 0193     		str	r3, [sp, #4]
 129 00a4 0093     		str	r3, [sp]
 130 00a6 0523     		movs	r3, #5
 131 00a8 0422     		movs	r2, #4
 132 00aa 07A8     		add	r0, sp, #28
 133              	.LVL18:
 134 00ac FFF7FEFF 		bl	createSystemMsgPacket
 135              	.LVL19:
  64:VehicleBatteryVoltage.c ****         
  65:VehicleBatteryVoltage.c ****         if( getSysMessegesgQ() == NULL ) continue;
 136              		.loc 1 65 0
 137 00b0 FFF7FEFF 		bl	getSysMessegesgQ
 138              	.LVL20:
 139 00b4 0028     		cmp	r0, #0
 140 00b6 C8D0     		beq	.L2
  66:VehicleBatteryVoltage.c ****         
  67:VehicleBatteryVoltage.c ****         xQueueSendToBack( getSysMessegesgQ(),&datapack, portMAX_DELAY );
 141              		.loc 1 67 0
 142 00b8 FFF7FEFF 		bl	getSysMessegesgQ
 143              	.LVL21:
 144 00bc 0023     		movs	r3, #0
 145 00be 4FF0FF32 		mov	r2, #-1
 146 00c2 07A9     		add	r1, sp, #28
 147 00c4 FFF7FEFF 		bl	xQueueGenericSend
 148              	.LVL22:
  68:VehicleBatteryVoltage.c ****         
  69:VehicleBatteryVoltage.c ****         vTaskDelay(10);
 149              		.loc 1 69 0
 150 00c8 0A20     		movs	r0, #10
 151 00ca FFF7FEFF 		bl	vTaskDelay
 152              	.LVL23:
 153 00ce BCE7     		b	.L2
 154              	.L6:
 155              		.align	2
 156              	.L5:
 157 00d0 CDCC4C3D 		.word	1028443341
 158              		.cfi_endproc
 159              	.LFE68:
ARM GAS  C:\Users\bchir\AppData\Local\Temp\ccwt4JXe.s 			page 5


 160              		.size	TaskVehicleBatteryVoltage, .-TaskVehicleBatteryVoltage
 161              		.section	.text.startTaskVehicleBatteryVoltage,"ax",%progbits
 162              		.align	2
 163              		.global	startTaskVehicleBatteryVoltage
 164              		.thumb
 165              		.thumb_func
 166              		.type	startTaskVehicleBatteryVoltage, %function
 167              	startTaskVehicleBatteryVoltage:
 168              	.LFB69:
  70:VehicleBatteryVoltage.c ****         
  71:VehicleBatteryVoltage.c ****         
  72:VehicleBatteryVoltage.c ****     }
  73:VehicleBatteryVoltage.c **** }
  74:VehicleBatteryVoltage.c **** 
  75:VehicleBatteryVoltage.c **** 
  76:VehicleBatteryVoltage.c ****         
  77:VehicleBatteryVoltage.c ****        
  78:VehicleBatteryVoltage.c **** 
  79:VehicleBatteryVoltage.c **** 
  80:VehicleBatteryVoltage.c **** 
  81:VehicleBatteryVoltage.c **** void startTaskVehicleBatteryVoltage()
  82:VehicleBatteryVoltage.c **** {
 169              		.loc 1 82 0
 170              		.cfi_startproc
 171              		@ args = 0, pretend = 0, frame = 0
 172              		@ frame_needed = 0, uses_anonymous_args = 0
 173 0000 00B5     		push	{lr}
 174              		.cfi_def_cfa_offset 4
 175              		.cfi_offset 14, -4
 176 0002 83B0     		sub	sp, sp, #12
 177              		.cfi_def_cfa_offset 16
  83:VehicleBatteryVoltage.c ****     xHandle = NULL; 
 178              		.loc 1 83 0
 179 0004 064A     		ldr	r2, .L9
 180 0006 0023     		movs	r3, #0
 181 0008 1360     		str	r3, [r2]
  84:VehicleBatteryVoltage.c ****  	/* Create the task, storing the handle. */ 
  85:VehicleBatteryVoltage.c **** 	xTaskCreate(
 182              		.loc 1 85 0
 183 000a 0192     		str	r2, [sp, #4]
 184 000c 0093     		str	r3, [sp]
 185 000e 0123     		movs	r3, #1
 186 0010 8022     		movs	r2, #128
 187 0012 0449     		ldr	r1, .L9+4
 188 0014 0448     		ldr	r0, .L9+8
 189 0016 FFF7FEFF 		bl	xTaskCreate
 190              	.LVL24:
  86:VehicleBatteryVoltage.c **** 		TaskVehicleBatteryVoltage,    /* Function that implements the task. */ 
  87:VehicleBatteryVoltage.c **** 		"VehicleBatteryVoltage",  /* Text name for the task. */ 
  88:VehicleBatteryVoltage.c **** 		128,                        /* Stack size in words, not bytes. */ 
  89:VehicleBatteryVoltage.c **** 		( void * ) 1,               /* Parameter passed into the task. */ 
  90:VehicleBatteryVoltage.c **** 		tskIDLE_PRIORITY,           /* Priority at which the task is created. */ 
  91:VehicleBatteryVoltage.c **** 	&xHandle );                     /* Used to pass out the created task's handle. */ 
  92:VehicleBatteryVoltage.c ****     
  93:VehicleBatteryVoltage.c ****     
  94:VehicleBatteryVoltage.c **** }
 191              		.loc 1 94 0
ARM GAS  C:\Users\bchir\AppData\Local\Temp\ccwt4JXe.s 			page 6


 192 001a 03B0     		add	sp, sp, #12
 193              		.cfi_def_cfa_offset 4
 194              		@ sp needed
 195 001c 5DF804FB 		ldr	pc, [sp], #4
 196              	.L10:
 197              		.align	2
 198              	.L9:
 199 0020 00000000 		.word	.LANCHOR0
 200 0024 00000000 		.word	.LC0
 201 0028 00000000 		.word	TaskVehicleBatteryVoltage
 202              		.cfi_endproc
 203              	.LFE69:
 204              		.size	startTaskVehicleBatteryVoltage, .-startTaskVehicleBatteryVoltage
 205              		.comm	powerMonConMessegesQ,4,4
 206              		.comm	taskMessegesQ,4,4
 207              		.section	.rodata.str1.4,"aMS",%progbits,1
 208              		.align	2
 209              	.LC0:
 210 0000 56656869 		.ascii	"VehicleBatteryVoltage\000"
 210      636C6542 
 210      61747465 
 210      7279566F 
 210      6C746167 
 211              		.bss
 212              		.align	2
 213              		.set	.LANCHOR0,. + 0
 214              		.type	xHandle, %object
 215              		.size	xHandle, 4
 216              	xHandle:
 217 0000 00000000 		.space	4
 218              		.text
 219              	.Letext0:
 220              		.file 2 "c:\\program files (x86)\\cypress\\psoc creator\\4.4\\psoc creator\\import\\gnu\\arm\\5.4.
 221              		.file 3 "c:\\program files (x86)\\cypress\\psoc creator\\4.4\\psoc creator\\import\\gnu\\arm\\5.4.
 222              		.file 4 "..\\..\\..\\FreeRTOS\\FreeRTOS-Kernel\\portable\\GCC\\ARM_CM3/portmacro.h"
 223              		.file 5 "..\\..\\..\\FreeRTOS\\FreeRTOS-Kernel\\include/task.h"
 224              		.file 6 "..\\..\\..\\FreeRTOS\\FreeRTOS-Kernel\\include/queue.h"
 225              		.file 7 "SystemMessenger.h"
 226              		.file 8 "Generated_Source\\PSoC5/core_cm3.h"
 227              		.file 9 "Generated_Source\\PSoC5/ClockVehicleBattVoltageADC.h"
 228              		.file 10 "Generated_Source\\PSoC5/VehicleBattVoltageAdc.h"