ARM GAS  C:\Users\bchir\AppData\Local\Temp\cc9XoFh3.s 			page 1


   1              		.syntax unified
   2              		.cpu cortex-m3
   3              		.fpu softvfp
   4              		.eabi_attribute 20, 1
   5              		.eabi_attribute 21, 1
   6              		.eabi_attribute 23, 3
   7              		.eabi_attribute 24, 1
   8              		.eabi_attribute 25, 1
   9              		.eabi_attribute 26, 1
  10              		.eabi_attribute 30, 1
  11              		.eabi_attribute 34, 1
  12              		.eabi_attribute 18, 4
  13              		.thumb
  14              		.syntax unified
  15              		.file	"VehicleCAN_TX_RX_func.c"
  16              		.text
  17              	.Ltext0:
  18              		.cfi_sections	.debug_frame
  19              		.section	.text.VehicleCAN_SendMsg,"ax",%progbits
  20              		.align	2
  21              		.global	VehicleCAN_SendMsg
  22              		.thumb
  23              		.thumb_func
  24              		.type	VehicleCAN_SendMsg, %function
  25              	VehicleCAN_SendMsg:
  26              	.LFB68:
  27              		.file 1 "Generated_Source\\PSoC5\\VehicleCAN_TX_RX_func.c"
   1:Generated_Source\PSoC5/VehicleCAN_TX_RX_func.c **** /*******************************************************************************
   2:Generated_Source\PSoC5/VehicleCAN_TX_RX_func.c **** * File Name: VehicleCAN_TX_RX_func.c
   3:Generated_Source\PSoC5/VehicleCAN_TX_RX_func.c **** * Version 3.0
   4:Generated_Source\PSoC5/VehicleCAN_TX_RX_func.c **** *
   5:Generated_Source\PSoC5/VehicleCAN_TX_RX_func.c **** * Description:
   6:Generated_Source\PSoC5/VehicleCAN_TX_RX_func.c **** *  There are functions process "Full" Receive and Transmit mailboxes:
   7:Generated_Source\PSoC5/VehicleCAN_TX_RX_func.c **** *     - VehicleCAN_SendMsg0-7();
   8:Generated_Source\PSoC5/VehicleCAN_TX_RX_func.c **** *     - VehicleCAN_ReceiveMsg0-15();
   9:Generated_Source\PSoC5/VehicleCAN_TX_RX_func.c **** *  Transmission of message, and receive routine for "Basic" mailboxes:
  10:Generated_Source\PSoC5/VehicleCAN_TX_RX_func.c **** *     - VehicleCAN_SendMsg();
  11:Generated_Source\PSoC5/VehicleCAN_TX_RX_func.c **** *     - VehicleCAN_TxCancel();
  12:Generated_Source\PSoC5/VehicleCAN_TX_RX_func.c **** *     - VehicleCAN_ReceiveMsg();
  13:Generated_Source\PSoC5/VehicleCAN_TX_RX_func.c **** *
  14:Generated_Source\PSoC5/VehicleCAN_TX_RX_func.c **** *  Note:
  15:Generated_Source\PSoC5/VehicleCAN_TX_RX_func.c **** *   None
  16:Generated_Source\PSoC5/VehicleCAN_TX_RX_func.c **** *
  17:Generated_Source\PSoC5/VehicleCAN_TX_RX_func.c **** ********************************************************************************
  18:Generated_Source\PSoC5/VehicleCAN_TX_RX_func.c **** * Copyright 2008-2015, Cypress Semiconductor Corporation.  All rights reserved.
  19:Generated_Source\PSoC5/VehicleCAN_TX_RX_func.c **** * You may use this file only in accordance with the license, terms, conditions,
  20:Generated_Source\PSoC5/VehicleCAN_TX_RX_func.c **** * disclaimers, and limitations in the end user license agreement accompanying
  21:Generated_Source\PSoC5/VehicleCAN_TX_RX_func.c **** * the software package with which this file was provided.
  22:Generated_Source\PSoC5/VehicleCAN_TX_RX_func.c **** *******************************************************************************/
  23:Generated_Source\PSoC5/VehicleCAN_TX_RX_func.c **** 
  24:Generated_Source\PSoC5/VehicleCAN_TX_RX_func.c **** #include "VehicleCAN.h"
  25:Generated_Source\PSoC5/VehicleCAN_TX_RX_func.c **** #include "cyapicallbacks.h"
  26:Generated_Source\PSoC5/VehicleCAN_TX_RX_func.c **** 
  27:Generated_Source\PSoC5/VehicleCAN_TX_RX_func.c **** /* `#START TX_RX_FUNCTION` */
  28:Generated_Source\PSoC5/VehicleCAN_TX_RX_func.c ****    #include "CanbusMessageRead.h"
  29:Generated_Source\PSoC5/VehicleCAN_TX_RX_func.c **** 
  30:Generated_Source\PSoC5/VehicleCAN_TX_RX_func.c ****   CANBusRXMessage_t canbusRecMgsBuffer[20];
ARM GAS  C:\Users\bchir\AppData\Local\Temp\cc9XoFh3.s 			page 2


  31:Generated_Source\PSoC5/VehicleCAN_TX_RX_func.c ****   uint8_t recMsgBufferFillLevel = 0; 
  32:Generated_Source\PSoC5/VehicleCAN_TX_RX_func.c **** 
  33:Generated_Source\PSoC5/VehicleCAN_TX_RX_func.c **** /* `#END` */
  34:Generated_Source\PSoC5/VehicleCAN_TX_RX_func.c **** 
  35:Generated_Source\PSoC5/VehicleCAN_TX_RX_func.c **** 
  36:Generated_Source\PSoC5/VehicleCAN_TX_RX_func.c **** /*******************************************************************************
  37:Generated_Source\PSoC5/VehicleCAN_TX_RX_func.c **** * FUNCTION NAME:   VehicleCAN_SendMsg
  38:Generated_Source\PSoC5/VehicleCAN_TX_RX_func.c **** ********************************************************************************
  39:Generated_Source\PSoC5/VehicleCAN_TX_RX_func.c **** *
  40:Generated_Source\PSoC5/VehicleCAN_TX_RX_func.c **** * Summary:
  41:Generated_Source\PSoC5/VehicleCAN_TX_RX_func.c **** *  This function is Send Message from one of Basic mailboxes. The function loops
  42:Generated_Source\PSoC5/VehicleCAN_TX_RX_func.c **** *  through the transmit message buffer designed as Basic CAN mailboxes for the
  43:Generated_Source\PSoC5/VehicleCAN_TX_RX_func.c **** *  first free available and sends from it. The number of retries is limited.
  44:Generated_Source\PSoC5/VehicleCAN_TX_RX_func.c **** *
  45:Generated_Source\PSoC5/VehicleCAN_TX_RX_func.c **** * Parameters:
  46:Generated_Source\PSoC5/VehicleCAN_TX_RX_func.c **** *  message: The pointer to a structure that contains all required data to send
  47:Generated_Source\PSoC5/VehicleCAN_TX_RX_func.c **** *           messages.
  48:Generated_Source\PSoC5/VehicleCAN_TX_RX_func.c **** *
  49:Generated_Source\PSoC5/VehicleCAN_TX_RX_func.c **** * Return:
  50:Generated_Source\PSoC5/VehicleCAN_TX_RX_func.c **** *  Indication if message has been sent.
  51:Generated_Source\PSoC5/VehicleCAN_TX_RX_func.c **** *   Define                             Description
  52:Generated_Source\PSoC5/VehicleCAN_TX_RX_func.c **** *    CYRET_SUCCESS                      The function passed successfully
  53:Generated_Source\PSoC5/VehicleCAN_TX_RX_func.c **** *    VehicleCAN_FAIL              The function failed
  54:Generated_Source\PSoC5/VehicleCAN_TX_RX_func.c **** *
  55:Generated_Source\PSoC5/VehicleCAN_TX_RX_func.c **** *******************************************************************************/
  56:Generated_Source\PSoC5/VehicleCAN_TX_RX_func.c **** uint8 VehicleCAN_SendMsg(const VehicleCAN_TX_MSG *message) 
  57:Generated_Source\PSoC5/VehicleCAN_TX_RX_func.c **** {
  28              		.loc 1 57 0
  29              		.cfi_startproc
  30              		@ args = 0, pretend = 0, frame = 0
  31              		@ frame_needed = 0, uses_anonymous_args = 0
  32              	.LVL0:
  33 0000 F0B5     		push	{r4, r5, r6, r7, lr}
  34              		.cfi_def_cfa_offset 20
  35              		.cfi_offset 4, -20
  36              		.cfi_offset 5, -16
  37              		.cfi_offset 6, -12
  38              		.cfi_offset 7, -8
  39              		.cfi_offset 14, -4
  40              	.LVL1:
  58:Generated_Source\PSoC5/VehicleCAN_TX_RX_func.c ****     uint8 i, j, shift;
  59:Generated_Source\PSoC5/VehicleCAN_TX_RX_func.c ****     uint8 retry = 0u;
  60:Generated_Source\PSoC5/VehicleCAN_TX_RX_func.c ****     uint8 result = VehicleCAN_FAIL;
  41              		.loc 1 60 0
  42 0002 0122     		movs	r2, #1
  59:Generated_Source\PSoC5/VehicleCAN_TX_RX_func.c ****     uint8 result = VehicleCAN_FAIL;
  43              		.loc 1 59 0
  44 0004 0027     		movs	r7, #0
  61:Generated_Source\PSoC5/VehicleCAN_TX_RX_func.c ****     uint32 regTemp;
  62:Generated_Source\PSoC5/VehicleCAN_TX_RX_func.c **** 
  63:Generated_Source\PSoC5/VehicleCAN_TX_RX_func.c ****     while (retry < VehicleCAN_RETRY_NUMBER)
  45              		.loc 1 63 0
  46 0006 5AE0     		b	.L2
  47              	.LVL2:
  48              	.L16:
  64:Generated_Source\PSoC5/VehicleCAN_TX_RX_func.c ****     {
  65:Generated_Source\PSoC5/VehicleCAN_TX_RX_func.c ****         shift = 1u;    /* Start from first mailbox */
ARM GAS  C:\Users\bchir\AppData\Local\Temp\cc9XoFh3.s 			page 3


  66:Generated_Source\PSoC5/VehicleCAN_TX_RX_func.c ****         for (i = 0u; i < VehicleCAN_NUMBER_OF_TX_MAILBOXES; i++)
  67:Generated_Source\PSoC5/VehicleCAN_TX_RX_func.c ****         {
  68:Generated_Source\PSoC5/VehicleCAN_TX_RX_func.c ****             /* Find Basic TX mailboxes */
  69:Generated_Source\PSoC5/VehicleCAN_TX_RX_func.c ****             if ((VehicleCAN_TX_MAILBOX_TYPE & shift) == 0u)
  70:Generated_Source\PSoC5/VehicleCAN_TX_RX_func.c ****             {
  71:Generated_Source\PSoC5/VehicleCAN_TX_RX_func.c ****                 /* Find free mailbox */
  72:Generated_Source\PSoC5/VehicleCAN_TX_RX_func.c ****                 #if (CY_PSOC3 || CY_PSOC5)
  73:Generated_Source\PSoC5/VehicleCAN_TX_RX_func.c ****                     if ((VehicleCAN_BUF_SR_REG.byte[2] & shift) == 0u)
  49              		.loc 1 73 0
  50 0008 2F4B     		ldr	r3, .L22
  51 000a 9B78     		ldrb	r3, [r3, #2]	@ zero_extendqisi2
  52 000c 3342     		tst	r3, r6
  53 000e 49D1     		bne	.L3
  54              	.LVL3:
  74:Generated_Source\PSoC5/VehicleCAN_TX_RX_func.c ****                 #else  /* CY_PSOC4 */
  75:Generated_Source\PSoC5/VehicleCAN_TX_RX_func.c ****                     if ((VehicleCAN_BUF_SR_REG &
  76:Generated_Source\PSoC5/VehicleCAN_TX_RX_func.c ****                         (uint32) ((uint32) shift << VehicleCAN_TWO_BYTE_OFFSET)) == 0u)
  77:Generated_Source\PSoC5/VehicleCAN_TX_RX_func.c ****                 #endif /* CY_PSOC3 || CY_PSOC5 */
  78:Generated_Source\PSoC5/VehicleCAN_TX_RX_func.c ****                     {
  79:Generated_Source\PSoC5/VehicleCAN_TX_RX_func.c ****                         regTemp = 0u;
  80:Generated_Source\PSoC5/VehicleCAN_TX_RX_func.c **** 
  81:Generated_Source\PSoC5/VehicleCAN_TX_RX_func.c ****                         /* Set message parameters */
  82:Generated_Source\PSoC5/VehicleCAN_TX_RX_func.c ****                         if (message->rtr != VehicleCAN_STANDARD_MESSAGE)
  55              		.loc 1 82 0
  56 0010 0379     		ldrb	r3, [r0, #4]	@ zero_extendqisi2
  57 0012 0BB1     		cbz	r3, .L4
  83:Generated_Source\PSoC5/VehicleCAN_TX_RX_func.c ****                         {
  84:Generated_Source\PSoC5/VehicleCAN_TX_RX_func.c ****                             regTemp = VehicleCAN_TX_RTR_MASK;    /* RTR message Enable */
  58              		.loc 1 84 0
  59 0014 4FF40013 		mov	r3, #2097152
  60              	.L4:
  61              	.LVL4:
  85:Generated_Source\PSoC5/VehicleCAN_TX_RX_func.c ****                         }
  86:Generated_Source\PSoC5/VehicleCAN_TX_RX_func.c **** 
  87:Generated_Source\PSoC5/VehicleCAN_TX_RX_func.c ****                         if (message->ide == VehicleCAN_STANDARD_MESSAGE)
  62              		.loc 1 87 0
  63 0018 4279     		ldrb	r2, [r0, #5]	@ zero_extendqisi2
  64              	.LVL5:
  65 001a 32B9     		cbnz	r2, .L5
  88:Generated_Source\PSoC5/VehicleCAN_TX_RX_func.c ****                         {
  89:Generated_Source\PSoC5/VehicleCAN_TX_RX_func.c ****                             VehicleCAN_SET_TX_ID_STANDARD_MSG(i, message->id);
  66              		.loc 1 89 0
  67 001c 2B4A     		ldr	r2, .L22+4
  68 001e 02EB0412 		add	r2, r2, r4, lsl #4
  69 0022 0168     		ldr	r1, [r0]
  70 0024 4905     		lsls	r1, r1, #21
  71 0026 5160     		str	r1, [r2, #4]
  72 0028 07E0     		b	.L6
  73              	.L5:
  90:Generated_Source\PSoC5/VehicleCAN_TX_RX_func.c ****                         }
  91:Generated_Source\PSoC5/VehicleCAN_TX_RX_func.c ****                         else
  92:Generated_Source\PSoC5/VehicleCAN_TX_RX_func.c ****                         {
  93:Generated_Source\PSoC5/VehicleCAN_TX_RX_func.c ****                             regTemp |= VehicleCAN_TX_IDE_MASK;
  74              		.loc 1 93 0
  75 002a 43F48013 		orr	r3, r3, #1048576
  76              	.LVL6:
  94:Generated_Source\PSoC5/VehicleCAN_TX_RX_func.c ****                             VehicleCAN_SET_TX_ID_EXTENDED_MSG(i, message->id);
ARM GAS  C:\Users\bchir\AppData\Local\Temp\cc9XoFh3.s 			page 4


  77              		.loc 1 94 0
  78 002e 274A     		ldr	r2, .L22+4
  79 0030 02EB0412 		add	r2, r2, r4, lsl #4
  80 0034 0168     		ldr	r1, [r0]
  81 0036 C900     		lsls	r1, r1, #3
  82 0038 5160     		str	r1, [r2, #4]
  83              	.L6:
  95:Generated_Source\PSoC5/VehicleCAN_TX_RX_func.c ****                         }
  96:Generated_Source\PSoC5/VehicleCAN_TX_RX_func.c **** 
  97:Generated_Source\PSoC5/VehicleCAN_TX_RX_func.c ****                         if (message->dlc < VehicleCAN_TX_DLC_MAX_VALUE)
  84              		.loc 1 97 0
  85 003a 90F806E0 		ldrb	lr, [r0, #6]	@ zero_extendqisi2
  86 003e BEF1070F 		cmp	lr, #7
  87 0042 02D8     		bhi	.L7
  98:Generated_Source\PSoC5/VehicleCAN_TX_RX_func.c ****                         {
  99:Generated_Source\PSoC5/VehicleCAN_TX_RX_func.c ****                             regTemp |= ((uint32) message->dlc) << VehicleCAN_TWO_BYTE_OFFSET;
  88              		.loc 1 99 0
  89 0044 43EA0E4E 		orr	lr, r3, lr, lsl #16
  90              	.LVL7:
  91 0048 01E0     		b	.L8
  92              	.LVL8:
  93              	.L7:
 100:Generated_Source\PSoC5/VehicleCAN_TX_RX_func.c ****                         }
 101:Generated_Source\PSoC5/VehicleCAN_TX_RX_func.c ****                         else
 102:Generated_Source\PSoC5/VehicleCAN_TX_RX_func.c ****                         {
 103:Generated_Source\PSoC5/VehicleCAN_TX_RX_func.c ****                             regTemp |= VehicleCAN_TX_DLC_UPPER_VALUE;
  94              		.loc 1 103 0
  95 004a 43F4002E 		orr	lr, r3, #524288
  96              	.LVL9:
  97              	.L8:
 104:Generated_Source\PSoC5/VehicleCAN_TX_RX_func.c ****                         }
 105:Generated_Source\PSoC5/VehicleCAN_TX_RX_func.c **** 
 106:Generated_Source\PSoC5/VehicleCAN_TX_RX_func.c ****                         if (message->irq != VehicleCAN_TRANSMIT_INT_DISABLE)
  98              		.loc 1 106 0
  99 004e C379     		ldrb	r3, [r0, #7]	@ zero_extendqisi2
 100 0050 0BB1     		cbz	r3, .L9
 107:Generated_Source\PSoC5/VehicleCAN_TX_RX_func.c ****                         {
 108:Generated_Source\PSoC5/VehicleCAN_TX_RX_func.c ****                             regTemp |= VehicleCAN_TX_INT_ENABLE_MASK;    /* Transmit Interrupt Enab
 101              		.loc 1 108 0
 102 0052 4EF0040E 		orr	lr, lr, #4
 103              	.LVL10:
 104              	.L9:
 109:Generated_Source\PSoC5/VehicleCAN_TX_RX_func.c ****                         }
 110:Generated_Source\PSoC5/VehicleCAN_TX_RX_func.c **** 
 111:Generated_Source\PSoC5/VehicleCAN_TX_RX_func.c ****                         for (j = 0u; (j < message->dlc) && (j < VehicleCAN_TX_DLC_MAX_VALUE); j++)
 105              		.loc 1 111 0
 106 0056 0023     		movs	r3, #0
 107 0058 0FE0     		b	.L10
 108              	.LVL11:
 109              	.L14:
 112:Generated_Source\PSoC5/VehicleCAN_TX_RX_func.c ****                         {
 113:Generated_Source\PSoC5/VehicleCAN_TX_RX_func.c ****                             #if (CY_PSOC3 || CY_PSOC5)
 114:Generated_Source\PSoC5/VehicleCAN_TX_RX_func.c ****                                 VehicleCAN_TX_DATA_BYTE(i, j) = message->msg->byte[j];
 110              		.loc 1 114 0
 111 005a 1C4A     		ldr	r2, .L22+4
 112 005c 02EB0411 		add	r1, r2, r4, lsl #4
 113 0060 032B     		cmp	r3, #3
ARM GAS  C:\Users\bchir\AppData\Local\Temp\cc9XoFh3.s 			page 5


 114 0062 02D9     		bls	.L11
 115              		.loc 1 114 0 is_stmt 0 discriminator 1
 116 0064 C3F10B02 		rsb	r2, r3, #11
 117 0068 01E0     		b	.L12
 118              	.L11:
 119              		.loc 1 114 0 discriminator 2
 120 006a C3F10302 		rsb	r2, r3, #3
 121              	.L12:
 122              		.loc 1 114 0 discriminator 4
 123 006e 8568     		ldr	r5, [r0, #8]
 124 0070 ED5C     		ldrb	r5, [r5, r3]	@ zero_extendqisi2
 125 0072 0A44     		add	r2, r2, r1
 126 0074 1572     		strb	r5, [r2, #8]
 111:Generated_Source\PSoC5/VehicleCAN_TX_RX_func.c ****                         {
 127              		.loc 1 111 0 is_stmt 1 discriminator 4
 128 0076 0133     		adds	r3, r3, #1
 129              	.LVL12:
 130 0078 DBB2     		uxtb	r3, r3
 131              	.LVL13:
 132              	.L10:
 111:Generated_Source\PSoC5/VehicleCAN_TX_RX_func.c ****                         {
 133              		.loc 1 111 0 is_stmt 0 discriminator 2
 134 007a 8279     		ldrb	r2, [r0, #6]	@ zero_extendqisi2
 135 007c 9342     		cmp	r3, r2
 136 007e 01D2     		bcs	.L13
 111:Generated_Source\PSoC5/VehicleCAN_TX_RX_func.c ****                         {
 137              		.loc 1 111 0 discriminator 3
 138 0080 072B     		cmp	r3, #7
 139 0082 EAD9     		bls	.L14
 140              	.L13:
 115:Generated_Source\PSoC5/VehicleCAN_TX_RX_func.c ****                             #else /* CY_PSOC4 */
 116:Generated_Source\PSoC5/VehicleCAN_TX_RX_func.c ****                                 VehicleCAN_TX_DATA_BYTE(i, j, message->msg->byte[j]);
 117:Generated_Source\PSoC5/VehicleCAN_TX_RX_func.c ****                             #endif /* CY_PSOC3 || CY_PSOC5 */
 118:Generated_Source\PSoC5/VehicleCAN_TX_RX_func.c ****                         }
 119:Generated_Source\PSoC5/VehicleCAN_TX_RX_func.c **** 
 120:Generated_Source\PSoC5/VehicleCAN_TX_RX_func.c ****                         /* Disable isr */
 121:Generated_Source\PSoC5/VehicleCAN_TX_RX_func.c ****     CyIntDisable(VehicleCAN_ISR_NUMBER);
 141              		.loc 1 121 0 is_stmt 1
 142 0084 4FF48031 		mov	r1, #65536
 143 0088 114B     		ldr	r3, .L22+8
 144              	.LVL14:
 145 008a 1960     		str	r1, [r3]
 122:Generated_Source\PSoC5/VehicleCAN_TX_RX_func.c **** 
 123:Generated_Source\PSoC5/VehicleCAN_TX_RX_func.c ****                         /* WPN[23] and WPN[3] set to 1 for write to CAN Control reg */
 124:Generated_Source\PSoC5/VehicleCAN_TX_RX_func.c ****                         CY_SET_REG32(VehicleCAN_TX_CMD_PTR(i), (regTemp | VehicleCAN_TX_WPN_SET));
 146              		.loc 1 124 0
 147 008c 2201     		lsls	r2, r4, #4
 148 008e 0F4D     		ldr	r5, .L22+4
 149 0090 4EF40003 		orr	r3, lr, #8388608
 150 0094 43F00803 		orr	r3, r3, #8
 151 0098 5351     		str	r3, [r2, r5]
 125:Generated_Source\PSoC5/VehicleCAN_TX_RX_func.c **** 
 126:Generated_Source\PSoC5/VehicleCAN_TX_RX_func.c ****                         #if (CY_PSOC3 || CY_PSOC5)
 127:Generated_Source\PSoC5/VehicleCAN_TX_RX_func.c ****                             CY_SET_REG32(VehicleCAN_TX_CMD_PTR(i), VehicleCAN_SEND_MESSAGE);
 152              		.loc 1 127 0
 153 009a 0123     		movs	r3, #1
 154 009c 5351     		str	r3, [r2, r5]
ARM GAS  C:\Users\bchir\AppData\Local\Temp\cc9XoFh3.s 			page 6


 128:Generated_Source\PSoC5/VehicleCAN_TX_RX_func.c ****                         #else /* CY_PSOC4 */
 129:Generated_Source\PSoC5/VehicleCAN_TX_RX_func.c ****                             if (message->sst != VehicleCAN_STANDARD_MESSAGE)
 130:Generated_Source\PSoC5/VehicleCAN_TX_RX_func.c ****                             {
 131:Generated_Source\PSoC5/VehicleCAN_TX_RX_func.c ****                                 /* Single Shot Transmission */
 132:Generated_Source\PSoC5/VehicleCAN_TX_RX_func.c ****                                 VehicleCAN_TX_CMD_REG(i) |= VehicleCAN_SEND_MESSAGE |
 133:Generated_Source\PSoC5/VehicleCAN_TX_RX_func.c ****                                 VehicleCAN_TX_ABORT_MASK;
 134:Generated_Source\PSoC5/VehicleCAN_TX_RX_func.c ****                             }
 135:Generated_Source\PSoC5/VehicleCAN_TX_RX_func.c ****                             else
 136:Generated_Source\PSoC5/VehicleCAN_TX_RX_func.c ****                             {
 137:Generated_Source\PSoC5/VehicleCAN_TX_RX_func.c ****                                 VehicleCAN_TX_CMD_REG(i) |= VehicleCAN_SEND_MESSAGE;
 138:Generated_Source\PSoC5/VehicleCAN_TX_RX_func.c ****                             }
 139:Generated_Source\PSoC5/VehicleCAN_TX_RX_func.c ****                         #endif /* CY_PSOC3 || CY_PSOC5 */
 140:Generated_Source\PSoC5/VehicleCAN_TX_RX_func.c **** 
 141:Generated_Source\PSoC5/VehicleCAN_TX_RX_func.c ****                         /* Enable isr */
 142:Generated_Source\PSoC5/VehicleCAN_TX_RX_func.c ****     CyIntEnable(VehicleCAN_ISR_NUMBER);
 155              		.loc 1 142 0
 156 009e 0D4B     		ldr	r3, .L22+12
 157 00a0 1960     		str	r1, [r3]
 158              	.LVL15:
 143:Generated_Source\PSoC5/VehicleCAN_TX_RX_func.c **** 
 144:Generated_Source\PSoC5/VehicleCAN_TX_RX_func.c ****                         result = CYRET_SUCCESS;
 159              		.loc 1 144 0
 160 00a2 0022     		movs	r2, #0
 161              	.LVL16:
 162              	.L3:
 145:Generated_Source\PSoC5/VehicleCAN_TX_RX_func.c ****                     }
 146:Generated_Source\PSoC5/VehicleCAN_TX_RX_func.c ****             }
 147:Generated_Source\PSoC5/VehicleCAN_TX_RX_func.c ****             shift <<= 1u;
 163              		.loc 1 147 0
 164 00a4 7600     		lsls	r6, r6, #1
 165              	.LVL17:
 166 00a6 F6B2     		uxtb	r6, r6
 167              	.LVL18:
 148:Generated_Source\PSoC5/VehicleCAN_TX_RX_func.c ****             if (result == CYRET_SUCCESS)
 168              		.loc 1 148 0
 169 00a8 32B1     		cbz	r2, .L15
  66:Generated_Source\PSoC5/VehicleCAN_TX_RX_func.c ****         {
 170              		.loc 1 66 0 discriminator 2
 171 00aa 0134     		adds	r4, r4, #1
 172              	.LVL19:
 173 00ac E4B2     		uxtb	r4, r4
 174              	.LVL20:
 175 00ae 01E0     		b	.L18
 176              	.LVL21:
 177              	.L20:
 178 00b0 0126     		movs	r6, #1
 179 00b2 0024     		movs	r4, #0
 180              	.L18:
 181              	.LVL22:
  66:Generated_Source\PSoC5/VehicleCAN_TX_RX_func.c ****         {
 182              		.loc 1 66 0 is_stmt 0 discriminator 1
 183 00b4 072C     		cmp	r4, #7
 184 00b6 A7D9     		bls	.L16
 185              	.L15:
 149:Generated_Source\PSoC5/VehicleCAN_TX_RX_func.c ****             {
 150:Generated_Source\PSoC5/VehicleCAN_TX_RX_func.c ****                 break;
 151:Generated_Source\PSoC5/VehicleCAN_TX_RX_func.c ****             }
ARM GAS  C:\Users\bchir\AppData\Local\Temp\cc9XoFh3.s 			page 7


 152:Generated_Source\PSoC5/VehicleCAN_TX_RX_func.c ****         }
 153:Generated_Source\PSoC5/VehicleCAN_TX_RX_func.c ****         if (result == CYRET_SUCCESS)
 186              		.loc 1 153 0 is_stmt 1
 187 00b8 1AB1     		cbz	r2, .L17
 154:Generated_Source\PSoC5/VehicleCAN_TX_RX_func.c ****         {
 155:Generated_Source\PSoC5/VehicleCAN_TX_RX_func.c ****             break;
 156:Generated_Source\PSoC5/VehicleCAN_TX_RX_func.c ****         }
 157:Generated_Source\PSoC5/VehicleCAN_TX_RX_func.c ****         else
 158:Generated_Source\PSoC5/VehicleCAN_TX_RX_func.c ****         {
 159:Generated_Source\PSoC5/VehicleCAN_TX_RX_func.c ****             retry++;
 188              		.loc 1 159 0
 189 00ba 0137     		adds	r7, r7, #1
 190              	.LVL23:
 191 00bc FFB2     		uxtb	r7, r7
 192              	.LVL24:
 193              	.L2:
  63:Generated_Source\PSoC5/VehicleCAN_TX_RX_func.c ****     {
 194              		.loc 1 63 0
 195 00be 022F     		cmp	r7, #2
 196 00c0 F6D9     		bls	.L20
 197              	.L17:
 160:Generated_Source\PSoC5/VehicleCAN_TX_RX_func.c ****         }
 161:Generated_Source\PSoC5/VehicleCAN_TX_RX_func.c ****     }
 162:Generated_Source\PSoC5/VehicleCAN_TX_RX_func.c **** 
 163:Generated_Source\PSoC5/VehicleCAN_TX_RX_func.c ****     return (result);
 164:Generated_Source\PSoC5/VehicleCAN_TX_RX_func.c **** }
 198              		.loc 1 164 0
 199 00c2 1046     		mov	r0, r2
 200              	.LVL25:
 201 00c4 F0BD     		pop	{r4, r5, r6, r7, pc}
 202              	.LVL26:
 203              	.L23:
 204 00c6 00BF     		.align	2
 205              	.L22:
 206 00c8 08A00040 		.word	1073782792
 207 00cc 20A00040 		.word	1073782816
 208 00d0 80E100E0 		.word	-536813184
 209 00d4 00E100E0 		.word	-536813312
 210              		.cfi_endproc
 211              	.LFE68:
 212              		.size	VehicleCAN_SendMsg, .-VehicleCAN_SendMsg
 213              		.section	.text.VehicleCAN_TxCancel,"ax",%progbits
 214              		.align	2
 215              		.global	VehicleCAN_TxCancel
 216              		.thumb
 217              		.thumb_func
 218              		.type	VehicleCAN_TxCancel, %function
 219              	VehicleCAN_TxCancel:
 220              	.LFB69:
 165:Generated_Source\PSoC5/VehicleCAN_TX_RX_func.c **** 
 166:Generated_Source\PSoC5/VehicleCAN_TX_RX_func.c **** 
 167:Generated_Source\PSoC5/VehicleCAN_TX_RX_func.c **** /*******************************************************************************
 168:Generated_Source\PSoC5/VehicleCAN_TX_RX_func.c **** * FUNCTION NAME:   VehicleCAN_TxCancel
 169:Generated_Source\PSoC5/VehicleCAN_TX_RX_func.c **** ********************************************************************************
 170:Generated_Source\PSoC5/VehicleCAN_TX_RX_func.c **** *
 171:Generated_Source\PSoC5/VehicleCAN_TX_RX_func.c **** * Summary:
 172:Generated_Source\PSoC5/VehicleCAN_TX_RX_func.c **** *  This function cancels transmission of a message that has been queued to be
ARM GAS  C:\Users\bchir\AppData\Local\Temp\cc9XoFh3.s 			page 8


 173:Generated_Source\PSoC5/VehicleCAN_TX_RX_func.c **** *  transmitted. Values between 0 and 7 are valid.
 174:Generated_Source\PSoC5/VehicleCAN_TX_RX_func.c **** *
 175:Generated_Source\PSoC5/VehicleCAN_TX_RX_func.c **** * Parameters:
 176:Generated_Source\PSoC5/VehicleCAN_TX_RX_func.c **** *  bufferId: The mailbox number.
 177:Generated_Source\PSoC5/VehicleCAN_TX_RX_func.c **** *
 178:Generated_Source\PSoC5/VehicleCAN_TX_RX_func.c **** * Return:
 179:Generated_Source\PSoC5/VehicleCAN_TX_RX_func.c **** *  None.
 180:Generated_Source\PSoC5/VehicleCAN_TX_RX_func.c **** *
 181:Generated_Source\PSoC5/VehicleCAN_TX_RX_func.c **** *******************************************************************************/
 182:Generated_Source\PSoC5/VehicleCAN_TX_RX_func.c **** void VehicleCAN_TxCancel(uint8 bufferId) 
 183:Generated_Source\PSoC5/VehicleCAN_TX_RX_func.c **** {
 221              		.loc 1 183 0
 222              		.cfi_startproc
 223              		@ args = 0, pretend = 0, frame = 0
 224              		@ frame_needed = 0, uses_anonymous_args = 0
 225              		@ link register save eliminated.
 226              	.LVL27:
 184:Generated_Source\PSoC5/VehicleCAN_TX_RX_func.c ****     if (bufferId < VehicleCAN_NUMBER_OF_TX_MAILBOXES)
 227              		.loc 1 184 0
 228 0000 0728     		cmp	r0, #7
 229 0002 07D8     		bhi	.L24
 185:Generated_Source\PSoC5/VehicleCAN_TX_RX_func.c ****     {
 186:Generated_Source\PSoC5/VehicleCAN_TX_RX_func.c ****         VehicleCAN_TX_ABORT_MESSAGE(bufferId);
 230              		.loc 1 186 0
 231 0004 0001     		lsls	r0, r0, #4
 232              	.LVL28:
 233 0006 044A     		ldr	r2, .L26
 234 0008 835C     		ldrb	r3, [r0, r2]	@ zero_extendqisi2
 235 000a 03F0FC03 		and	r3, r3, #252
 236 000e 43F00203 		orr	r3, r3, #2
 237 0012 8354     		strb	r3, [r0, r2]
 238              	.L24:
 239 0014 7047     		bx	lr
 240              	.L27:
 241 0016 00BF     		.align	2
 242              	.L26:
 243 0018 20A00040 		.word	1073782816
 244              		.cfi_endproc
 245              	.LFE69:
 246              		.size	VehicleCAN_TxCancel, .-VehicleCAN_TxCancel
 247              		.section	.text.VehicleCAN_ReceiveMsg,"ax",%progbits
 248              		.align	2
 249              		.global	VehicleCAN_ReceiveMsg
 250              		.thumb
 251              		.thumb_func
 252              		.type	VehicleCAN_ReceiveMsg, %function
 253              	VehicleCAN_ReceiveMsg:
 254              	.LFB70:
 187:Generated_Source\PSoC5/VehicleCAN_TX_RX_func.c ****     }
 188:Generated_Source\PSoC5/VehicleCAN_TX_RX_func.c **** }
 189:Generated_Source\PSoC5/VehicleCAN_TX_RX_func.c **** 
 190:Generated_Source\PSoC5/VehicleCAN_TX_RX_func.c **** 
 191:Generated_Source\PSoC5/VehicleCAN_TX_RX_func.c **** #if (VehicleCAN_TX0_FUNC_ENABLE)
 192:Generated_Source\PSoC5/VehicleCAN_TX_RX_func.c ****     /*******************************************************************************
 193:Generated_Source\PSoC5/VehicleCAN_TX_RX_func.c ****     * FUNCTION NAME:   VehicleCAN_SendMsg0
 194:Generated_Source\PSoC5/VehicleCAN_TX_RX_func.c ****     ********************************************************************************
 195:Generated_Source\PSoC5/VehicleCAN_TX_RX_func.c ****     *
ARM GAS  C:\Users\bchir\AppData\Local\Temp\cc9XoFh3.s 			page 9


 196:Generated_Source\PSoC5/VehicleCAN_TX_RX_func.c ****     * Summary:
 197:Generated_Source\PSoC5/VehicleCAN_TX_RX_func.c ****     *  This function is the entry point to Transmit Message 0. The function checks
 198:Generated_Source\PSoC5/VehicleCAN_TX_RX_func.c ****     *  if mailbox 0 doesn't already have un-transmitted messages waiting for
 199:Generated_Source\PSoC5/VehicleCAN_TX_RX_func.c ****     *  arbitration. If not initiate transmission of the message.
 200:Generated_Source\PSoC5/VehicleCAN_TX_RX_func.c ****     *  Generated only for the Transmit mailbox designed as Full.
 201:Generated_Source\PSoC5/VehicleCAN_TX_RX_func.c ****     *
 202:Generated_Source\PSoC5/VehicleCAN_TX_RX_func.c ****     * Parameters:
 203:Generated_Source\PSoC5/VehicleCAN_TX_RX_func.c ****     *  None.
 204:Generated_Source\PSoC5/VehicleCAN_TX_RX_func.c ****     *
 205:Generated_Source\PSoC5/VehicleCAN_TX_RX_func.c ****     * Return:
 206:Generated_Source\PSoC5/VehicleCAN_TX_RX_func.c ****     *  Indication if Message has been sent.
 207:Generated_Source\PSoC5/VehicleCAN_TX_RX_func.c ****     *   Define                             Description
 208:Generated_Source\PSoC5/VehicleCAN_TX_RX_func.c ****     *    CYRET_SUCCESS                      The function passed successfully
 209:Generated_Source\PSoC5/VehicleCAN_TX_RX_func.c ****     *    VehicleCAN_FAIL              The function failed
 210:Generated_Source\PSoC5/VehicleCAN_TX_RX_func.c ****     *
 211:Generated_Source\PSoC5/VehicleCAN_TX_RX_func.c ****     *******************************************************************************/
 212:Generated_Source\PSoC5/VehicleCAN_TX_RX_func.c ****     uint8 VehicleCAN_SendMsg0(void) 
 213:Generated_Source\PSoC5/VehicleCAN_TX_RX_func.c ****     {
 214:Generated_Source\PSoC5/VehicleCAN_TX_RX_func.c ****         uint8 result = CYRET_SUCCESS;
 215:Generated_Source\PSoC5/VehicleCAN_TX_RX_func.c **** 
 216:Generated_Source\PSoC5/VehicleCAN_TX_RX_func.c ****         #if (CY_PSOC3 || CY_PSOC5)
 217:Generated_Source\PSoC5/VehicleCAN_TX_RX_func.c ****             if ((VehicleCAN_TX[0u].txcmd.byte[0u] & VehicleCAN_TX_REQUEST_PENDING) != 0u)
 218:Generated_Source\PSoC5/VehicleCAN_TX_RX_func.c ****         #else  /* CY_PSOC4 */
 219:Generated_Source\PSoC5/VehicleCAN_TX_RX_func.c ****             if ((VehicleCAN_TX_CMD_REG(0u) & VehicleCAN_TX_REQUEST_PENDING) != 0u)
 220:Generated_Source\PSoC5/VehicleCAN_TX_RX_func.c ****         #endif /* CY_PSOC3 || CY_PSOC5 */
 221:Generated_Source\PSoC5/VehicleCAN_TX_RX_func.c ****             {
 222:Generated_Source\PSoC5/VehicleCAN_TX_RX_func.c ****                 result = VehicleCAN_FAIL;
 223:Generated_Source\PSoC5/VehicleCAN_TX_RX_func.c ****             }
 224:Generated_Source\PSoC5/VehicleCAN_TX_RX_func.c ****             else
 225:Generated_Source\PSoC5/VehicleCAN_TX_RX_func.c ****             {
 226:Generated_Source\PSoC5/VehicleCAN_TX_RX_func.c ****                 /* `#START MESSAGE_0_TRASMITTED` */
 227:Generated_Source\PSoC5/VehicleCAN_TX_RX_func.c **** 
 228:Generated_Source\PSoC5/VehicleCAN_TX_RX_func.c ****                 /* `#END` */
 229:Generated_Source\PSoC5/VehicleCAN_TX_RX_func.c **** 
 230:Generated_Source\PSoC5/VehicleCAN_TX_RX_func.c ****                 #ifdef VehicleCAN_SEND_MSG_0_CALLBACK
 231:Generated_Source\PSoC5/VehicleCAN_TX_RX_func.c ****                     VehicleCAN_SendMsg_0_Callback();
 232:Generated_Source\PSoC5/VehicleCAN_TX_RX_func.c ****                 #endif /* VehicleCAN_SEND_MSG_0_CALLBACK */
 233:Generated_Source\PSoC5/VehicleCAN_TX_RX_func.c **** 
 234:Generated_Source\PSoC5/VehicleCAN_TX_RX_func.c ****                 CY_SET_REG32(VehicleCAN_TX_CMD_PTR(0u),
 235:Generated_Source\PSoC5/VehicleCAN_TX_RX_func.c ****                 CY_GET_REG32(VehicleCAN_TX_CMD_PTR(0u)) | VehicleCAN_SEND_MESSAGE);
 236:Generated_Source\PSoC5/VehicleCAN_TX_RX_func.c ****             }
 237:Generated_Source\PSoC5/VehicleCAN_TX_RX_func.c **** 
 238:Generated_Source\PSoC5/VehicleCAN_TX_RX_func.c ****         return (result);
 239:Generated_Source\PSoC5/VehicleCAN_TX_RX_func.c ****     }
 240:Generated_Source\PSoC5/VehicleCAN_TX_RX_func.c **** #endif /* VehicleCAN_TX0_FUNC_ENABLE */
 241:Generated_Source\PSoC5/VehicleCAN_TX_RX_func.c **** 
 242:Generated_Source\PSoC5/VehicleCAN_TX_RX_func.c **** 
 243:Generated_Source\PSoC5/VehicleCAN_TX_RX_func.c **** #if (VehicleCAN_TX1_FUNC_ENABLE)
 244:Generated_Source\PSoC5/VehicleCAN_TX_RX_func.c ****     /*******************************************************************************
 245:Generated_Source\PSoC5/VehicleCAN_TX_RX_func.c ****     * FUNCTION NAME:   VehicleCAN_SendMsg1
 246:Generated_Source\PSoC5/VehicleCAN_TX_RX_func.c ****     ********************************************************************************
 247:Generated_Source\PSoC5/VehicleCAN_TX_RX_func.c ****     *
 248:Generated_Source\PSoC5/VehicleCAN_TX_RX_func.c ****     * Summary:
 249:Generated_Source\PSoC5/VehicleCAN_TX_RX_func.c ****     *  This function is the entry point to Transmit Message 1. The function checks
 250:Generated_Source\PSoC5/VehicleCAN_TX_RX_func.c ****     *  if mailbox 1 doesn't already have un-transmitted messages waiting for
 251:Generated_Source\PSoC5/VehicleCAN_TX_RX_func.c ****     *  arbitration. If not initiate transmission of the message.
 252:Generated_Source\PSoC5/VehicleCAN_TX_RX_func.c ****     *  Generated only for the Transmit mailbox designed as Full.
ARM GAS  C:\Users\bchir\AppData\Local\Temp\cc9XoFh3.s 			page 10


 253:Generated_Source\PSoC5/VehicleCAN_TX_RX_func.c ****     *
 254:Generated_Source\PSoC5/VehicleCAN_TX_RX_func.c ****     * Parameters:
 255:Generated_Source\PSoC5/VehicleCAN_TX_RX_func.c ****     *  None.
 256:Generated_Source\PSoC5/VehicleCAN_TX_RX_func.c ****     *
 257:Generated_Source\PSoC5/VehicleCAN_TX_RX_func.c ****     * Return:
 258:Generated_Source\PSoC5/VehicleCAN_TX_RX_func.c ****     *  Indication if Message has been sent.
 259:Generated_Source\PSoC5/VehicleCAN_TX_RX_func.c ****     *   Define                             Description
 260:Generated_Source\PSoC5/VehicleCAN_TX_RX_func.c ****     *    CYRET_SUCCESS                      The function passed successfully
 261:Generated_Source\PSoC5/VehicleCAN_TX_RX_func.c ****     *    VehicleCAN_FAIL              The function failed
 262:Generated_Source\PSoC5/VehicleCAN_TX_RX_func.c ****     *
 263:Generated_Source\PSoC5/VehicleCAN_TX_RX_func.c ****     *******************************************************************************/
 264:Generated_Source\PSoC5/VehicleCAN_TX_RX_func.c ****     uint8 VehicleCAN_SendMsg1(void) 
 265:Generated_Source\PSoC5/VehicleCAN_TX_RX_func.c ****     {
 266:Generated_Source\PSoC5/VehicleCAN_TX_RX_func.c ****         uint8 result = CYRET_SUCCESS;
 267:Generated_Source\PSoC5/VehicleCAN_TX_RX_func.c **** 
 268:Generated_Source\PSoC5/VehicleCAN_TX_RX_func.c ****         #if (CY_PSOC3 || CY_PSOC5)
 269:Generated_Source\PSoC5/VehicleCAN_TX_RX_func.c ****             if ((VehicleCAN_TX[1u].txcmd.byte[0u] & VehicleCAN_TX_REQUEST_PENDING) != 0u)
 270:Generated_Source\PSoC5/VehicleCAN_TX_RX_func.c ****         #else  /* CY_PSOC4 */
 271:Generated_Source\PSoC5/VehicleCAN_TX_RX_func.c ****             if ((VehicleCAN_TX_CMD_REG(1u) & VehicleCAN_TX_REQUEST_PENDING) != 0u)
 272:Generated_Source\PSoC5/VehicleCAN_TX_RX_func.c ****         #endif /* CY_PSOC3 || CY_PSOC5 */
 273:Generated_Source\PSoC5/VehicleCAN_TX_RX_func.c ****             {
 274:Generated_Source\PSoC5/VehicleCAN_TX_RX_func.c ****                 result = VehicleCAN_FAIL;
 275:Generated_Source\PSoC5/VehicleCAN_TX_RX_func.c ****             }
 276:Generated_Source\PSoC5/VehicleCAN_TX_RX_func.c ****             else
 277:Generated_Source\PSoC5/VehicleCAN_TX_RX_func.c ****             {
 278:Generated_Source\PSoC5/VehicleCAN_TX_RX_func.c ****                 /* `#START MESSAGE_1_TRASMITTED` */
 279:Generated_Source\PSoC5/VehicleCAN_TX_RX_func.c **** 
 280:Generated_Source\PSoC5/VehicleCAN_TX_RX_func.c ****                 /* `#END` */
 281:Generated_Source\PSoC5/VehicleCAN_TX_RX_func.c **** 
 282:Generated_Source\PSoC5/VehicleCAN_TX_RX_func.c ****                 #ifdef VehicleCAN_SEND_MSG_1_CALLBACK
 283:Generated_Source\PSoC5/VehicleCAN_TX_RX_func.c ****                     VehicleCAN_SendMsg_1_Callback();
 284:Generated_Source\PSoC5/VehicleCAN_TX_RX_func.c ****                 #endif /* VehicleCAN_SEND_MSG_1_CALLBACK */
 285:Generated_Source\PSoC5/VehicleCAN_TX_RX_func.c **** 
 286:Generated_Source\PSoC5/VehicleCAN_TX_RX_func.c ****                 CY_SET_REG32(VehicleCAN_TX_CMD_PTR(1u),
 287:Generated_Source\PSoC5/VehicleCAN_TX_RX_func.c ****                 CY_GET_REG32(VehicleCAN_TX_CMD_PTR(1u)) | VehicleCAN_SEND_MESSAGE);
 288:Generated_Source\PSoC5/VehicleCAN_TX_RX_func.c ****             }
 289:Generated_Source\PSoC5/VehicleCAN_TX_RX_func.c **** 
 290:Generated_Source\PSoC5/VehicleCAN_TX_RX_func.c ****         return (result);
 291:Generated_Source\PSoC5/VehicleCAN_TX_RX_func.c ****     }
 292:Generated_Source\PSoC5/VehicleCAN_TX_RX_func.c **** #endif /* VehicleCAN_TX1_FUNC_ENABLE */
 293:Generated_Source\PSoC5/VehicleCAN_TX_RX_func.c **** 
 294:Generated_Source\PSoC5/VehicleCAN_TX_RX_func.c **** 
 295:Generated_Source\PSoC5/VehicleCAN_TX_RX_func.c **** #if (VehicleCAN_TX2_FUNC_ENABLE)
 296:Generated_Source\PSoC5/VehicleCAN_TX_RX_func.c ****     /*******************************************************************************
 297:Generated_Source\PSoC5/VehicleCAN_TX_RX_func.c ****     * FUNCTION NAME:   VehicleCAN_SendMsg2
 298:Generated_Source\PSoC5/VehicleCAN_TX_RX_func.c ****     ********************************************************************************
 299:Generated_Source\PSoC5/VehicleCAN_TX_RX_func.c ****     *
 300:Generated_Source\PSoC5/VehicleCAN_TX_RX_func.c ****     * Summary:
 301:Generated_Source\PSoC5/VehicleCAN_TX_RX_func.c ****     *  This function is the entry point to Transmit Message 2. The function checks
 302:Generated_Source\PSoC5/VehicleCAN_TX_RX_func.c ****     *  if mailbox 2 doesn't already have un-transmitted messages waiting for
 303:Generated_Source\PSoC5/VehicleCAN_TX_RX_func.c ****     *  arbitration. If not initiate transmission of the message.
 304:Generated_Source\PSoC5/VehicleCAN_TX_RX_func.c ****     *  Generated only for the Transmit mailbox designed as Full.
 305:Generated_Source\PSoC5/VehicleCAN_TX_RX_func.c ****     *
 306:Generated_Source\PSoC5/VehicleCAN_TX_RX_func.c ****     * Parameters:
 307:Generated_Source\PSoC5/VehicleCAN_TX_RX_func.c ****     *  None.
 308:Generated_Source\PSoC5/VehicleCAN_TX_RX_func.c ****     *
 309:Generated_Source\PSoC5/VehicleCAN_TX_RX_func.c ****     * Return:
ARM GAS  C:\Users\bchir\AppData\Local\Temp\cc9XoFh3.s 			page 11


 310:Generated_Source\PSoC5/VehicleCAN_TX_RX_func.c ****     *  Indication if Message has been sent.
 311:Generated_Source\PSoC5/VehicleCAN_TX_RX_func.c ****     *   Define                             Description
 312:Generated_Source\PSoC5/VehicleCAN_TX_RX_func.c ****     *    CYRET_SUCCESS                      The function passed successfully
 313:Generated_Source\PSoC5/VehicleCAN_TX_RX_func.c ****     *    VehicleCAN_FAIL              The function failed
 314:Generated_Source\PSoC5/VehicleCAN_TX_RX_func.c ****     *
 315:Generated_Source\PSoC5/VehicleCAN_TX_RX_func.c ****     *******************************************************************************/
 316:Generated_Source\PSoC5/VehicleCAN_TX_RX_func.c ****     uint8 VehicleCAN_SendMsg2(void) 
 317:Generated_Source\PSoC5/VehicleCAN_TX_RX_func.c ****     {
 318:Generated_Source\PSoC5/VehicleCAN_TX_RX_func.c ****         uint8 result = CYRET_SUCCESS;
 319:Generated_Source\PSoC5/VehicleCAN_TX_RX_func.c **** 
 320:Generated_Source\PSoC5/VehicleCAN_TX_RX_func.c ****         #if (CY_PSOC3 || CY_PSOC5)
 321:Generated_Source\PSoC5/VehicleCAN_TX_RX_func.c ****             if ((VehicleCAN_TX[2u].txcmd.byte[0u] & VehicleCAN_TX_REQUEST_PENDING) != 0u)
 322:Generated_Source\PSoC5/VehicleCAN_TX_RX_func.c ****         #else  /* CY_PSOC4 */
 323:Generated_Source\PSoC5/VehicleCAN_TX_RX_func.c ****             if ((VehicleCAN_TX_CMD_REG(2u) & VehicleCAN_TX_REQUEST_PENDING) != 0u)
 324:Generated_Source\PSoC5/VehicleCAN_TX_RX_func.c ****         #endif /* CY_PSOC3 || CY_PSOC5 */
 325:Generated_Source\PSoC5/VehicleCAN_TX_RX_func.c ****             {
 326:Generated_Source\PSoC5/VehicleCAN_TX_RX_func.c ****                 result = VehicleCAN_FAIL;
 327:Generated_Source\PSoC5/VehicleCAN_TX_RX_func.c ****             }
 328:Generated_Source\PSoC5/VehicleCAN_TX_RX_func.c ****             else
 329:Generated_Source\PSoC5/VehicleCAN_TX_RX_func.c ****             {
 330:Generated_Source\PSoC5/VehicleCAN_TX_RX_func.c ****                 /* `#START MESSAGE_2_TRASMITTED` */
 331:Generated_Source\PSoC5/VehicleCAN_TX_RX_func.c **** 
 332:Generated_Source\PSoC5/VehicleCAN_TX_RX_func.c ****                 /* `#END` */
 333:Generated_Source\PSoC5/VehicleCAN_TX_RX_func.c **** 
 334:Generated_Source\PSoC5/VehicleCAN_TX_RX_func.c ****                 #ifdef VehicleCAN_SEND_MSG_2_CALLBACK
 335:Generated_Source\PSoC5/VehicleCAN_TX_RX_func.c ****                     VehicleCAN_SendMsg_2_Callback();
 336:Generated_Source\PSoC5/VehicleCAN_TX_RX_func.c ****                 #endif /* VehicleCAN_SEND_MSG_2_CALLBACK */
 337:Generated_Source\PSoC5/VehicleCAN_TX_RX_func.c **** 
 338:Generated_Source\PSoC5/VehicleCAN_TX_RX_func.c ****                 CY_SET_REG32(VehicleCAN_TX_CMD_PTR(2u),
 339:Generated_Source\PSoC5/VehicleCAN_TX_RX_func.c ****                 CY_GET_REG32(VehicleCAN_TX_CMD_PTR(2u)) | VehicleCAN_SEND_MESSAGE);
 340:Generated_Source\PSoC5/VehicleCAN_TX_RX_func.c ****             }
 341:Generated_Source\PSoC5/VehicleCAN_TX_RX_func.c **** 
 342:Generated_Source\PSoC5/VehicleCAN_TX_RX_func.c ****         return (result);
 343:Generated_Source\PSoC5/VehicleCAN_TX_RX_func.c ****     }
 344:Generated_Source\PSoC5/VehicleCAN_TX_RX_func.c **** #endif /* VehicleCAN_TX2_FUNC_ENABLE */
 345:Generated_Source\PSoC5/VehicleCAN_TX_RX_func.c **** 
 346:Generated_Source\PSoC5/VehicleCAN_TX_RX_func.c **** 
 347:Generated_Source\PSoC5/VehicleCAN_TX_RX_func.c **** #if (VehicleCAN_TX3_FUNC_ENABLE)
 348:Generated_Source\PSoC5/VehicleCAN_TX_RX_func.c ****     /*******************************************************************************
 349:Generated_Source\PSoC5/VehicleCAN_TX_RX_func.c ****     * FUNCTION NAME:   VehicleCAN_SendMsg3
 350:Generated_Source\PSoC5/VehicleCAN_TX_RX_func.c ****     ********************************************************************************
 351:Generated_Source\PSoC5/VehicleCAN_TX_RX_func.c ****     *
 352:Generated_Source\PSoC5/VehicleCAN_TX_RX_func.c ****     * Summary:
 353:Generated_Source\PSoC5/VehicleCAN_TX_RX_func.c ****     *  This function is the entry point to Transmit Message 3. The function checks
 354:Generated_Source\PSoC5/VehicleCAN_TX_RX_func.c ****     *  if mailbox 3 doesn't already have un-transmitted messages waiting for
 355:Generated_Source\PSoC5/VehicleCAN_TX_RX_func.c ****     *  arbitration. If not initiate transmission of the message.
 356:Generated_Source\PSoC5/VehicleCAN_TX_RX_func.c ****     *  Generated only for the Transmit mailbox designed as Full.
 357:Generated_Source\PSoC5/VehicleCAN_TX_RX_func.c ****     *
 358:Generated_Source\PSoC5/VehicleCAN_TX_RX_func.c ****     * Parameters:
 359:Generated_Source\PSoC5/VehicleCAN_TX_RX_func.c ****     *  None.
 360:Generated_Source\PSoC5/VehicleCAN_TX_RX_func.c ****     *
 361:Generated_Source\PSoC5/VehicleCAN_TX_RX_func.c ****     * Return:
 362:Generated_Source\PSoC5/VehicleCAN_TX_RX_func.c ****     *  Indication if Message has been sent.
 363:Generated_Source\PSoC5/VehicleCAN_TX_RX_func.c ****     *   Define                             Description
 364:Generated_Source\PSoC5/VehicleCAN_TX_RX_func.c ****     *    CYRET_SUCCESS                      The function passed successfully
 365:Generated_Source\PSoC5/VehicleCAN_TX_RX_func.c ****     *    VehicleCAN_FAIL              The function failed
 366:Generated_Source\PSoC5/VehicleCAN_TX_RX_func.c ****     *
ARM GAS  C:\Users\bchir\AppData\Local\Temp\cc9XoFh3.s 			page 12


 367:Generated_Source\PSoC5/VehicleCAN_TX_RX_func.c ****     *******************************************************************************/
 368:Generated_Source\PSoC5/VehicleCAN_TX_RX_func.c ****     uint8 VehicleCAN_SendMsg3(void) 
 369:Generated_Source\PSoC5/VehicleCAN_TX_RX_func.c ****     {
 370:Generated_Source\PSoC5/VehicleCAN_TX_RX_func.c ****         uint8 result = CYRET_SUCCESS;
 371:Generated_Source\PSoC5/VehicleCAN_TX_RX_func.c **** 
 372:Generated_Source\PSoC5/VehicleCAN_TX_RX_func.c ****         #if (CY_PSOC3 || CY_PSOC5)
 373:Generated_Source\PSoC5/VehicleCAN_TX_RX_func.c ****             if ((VehicleCAN_TX[3u].txcmd.byte[0u] & VehicleCAN_TX_REQUEST_PENDING) != 0u)
 374:Generated_Source\PSoC5/VehicleCAN_TX_RX_func.c ****         #else  /* CY_PSOC4 */
 375:Generated_Source\PSoC5/VehicleCAN_TX_RX_func.c ****             if ((VehicleCAN_TX_CMD_REG(3u) & VehicleCAN_TX_REQUEST_PENDING) != 0u)
 376:Generated_Source\PSoC5/VehicleCAN_TX_RX_func.c ****         #endif /* CY_PSOC3 || CY_PSOC5 */
 377:Generated_Source\PSoC5/VehicleCAN_TX_RX_func.c ****             {
 378:Generated_Source\PSoC5/VehicleCAN_TX_RX_func.c ****                 result = VehicleCAN_FAIL;
 379:Generated_Source\PSoC5/VehicleCAN_TX_RX_func.c ****             }
 380:Generated_Source\PSoC5/VehicleCAN_TX_RX_func.c ****             else
 381:Generated_Source\PSoC5/VehicleCAN_TX_RX_func.c ****             {
 382:Generated_Source\PSoC5/VehicleCAN_TX_RX_func.c ****                 /* `#START MESSAGE_3_TRASMITTED` */
 383:Generated_Source\PSoC5/VehicleCAN_TX_RX_func.c **** 
 384:Generated_Source\PSoC5/VehicleCAN_TX_RX_func.c ****                 /* `#END` */
 385:Generated_Source\PSoC5/VehicleCAN_TX_RX_func.c **** 
 386:Generated_Source\PSoC5/VehicleCAN_TX_RX_func.c ****                 #ifdef VehicleCAN_SEND_MSG_3_CALLBACK
 387:Generated_Source\PSoC5/VehicleCAN_TX_RX_func.c ****                     VehicleCAN_SendMsg_3_Callback();
 388:Generated_Source\PSoC5/VehicleCAN_TX_RX_func.c ****                 #endif /* VehicleCAN_SEND_MSG_3_CALLBACK */
 389:Generated_Source\PSoC5/VehicleCAN_TX_RX_func.c **** 
 390:Generated_Source\PSoC5/VehicleCAN_TX_RX_func.c ****                 CY_SET_REG32(VehicleCAN_TX_CMD_PTR(3u),
 391:Generated_Source\PSoC5/VehicleCAN_TX_RX_func.c ****                 CY_GET_REG32(VehicleCAN_TX_CMD_PTR(3u)) | VehicleCAN_SEND_MESSAGE);
 392:Generated_Source\PSoC5/VehicleCAN_TX_RX_func.c ****             }
 393:Generated_Source\PSoC5/VehicleCAN_TX_RX_func.c **** 
 394:Generated_Source\PSoC5/VehicleCAN_TX_RX_func.c ****         return (result);
 395:Generated_Source\PSoC5/VehicleCAN_TX_RX_func.c ****     }
 396:Generated_Source\PSoC5/VehicleCAN_TX_RX_func.c **** #endif /* VehicleCAN_TX3_FUNC_ENABLE */
 397:Generated_Source\PSoC5/VehicleCAN_TX_RX_func.c **** 
 398:Generated_Source\PSoC5/VehicleCAN_TX_RX_func.c **** 
 399:Generated_Source\PSoC5/VehicleCAN_TX_RX_func.c **** #if (VehicleCAN_TX4_FUNC_ENABLE)
 400:Generated_Source\PSoC5/VehicleCAN_TX_RX_func.c ****     /*******************************************************************************
 401:Generated_Source\PSoC5/VehicleCAN_TX_RX_func.c ****     * FUNCTION NAME:   VehicleCAN_SendMsg4
 402:Generated_Source\PSoC5/VehicleCAN_TX_RX_func.c ****     ********************************************************************************
 403:Generated_Source\PSoC5/VehicleCAN_TX_RX_func.c ****     *
 404:Generated_Source\PSoC5/VehicleCAN_TX_RX_func.c ****     * Summary:
 405:Generated_Source\PSoC5/VehicleCAN_TX_RX_func.c ****     *  This function is the entry point to Transmit Message 4. The function checks
 406:Generated_Source\PSoC5/VehicleCAN_TX_RX_func.c ****     *  if mailbox 4 doesn't already have un-transmitted messages waiting for
 407:Generated_Source\PSoC5/VehicleCAN_TX_RX_func.c ****     *  arbitration. If not initiate transmission of the message.
 408:Generated_Source\PSoC5/VehicleCAN_TX_RX_func.c ****     *  Generated only for the Transmit mailbox designed as Full.
 409:Generated_Source\PSoC5/VehicleCAN_TX_RX_func.c ****     *
 410:Generated_Source\PSoC5/VehicleCAN_TX_RX_func.c ****     * Parameters:
 411:Generated_Source\PSoC5/VehicleCAN_TX_RX_func.c ****     *  None.
 412:Generated_Source\PSoC5/VehicleCAN_TX_RX_func.c ****     *
 413:Generated_Source\PSoC5/VehicleCAN_TX_RX_func.c ****     * Return:
 414:Generated_Source\PSoC5/VehicleCAN_TX_RX_func.c ****     *  Indication if Message has been sent.
 415:Generated_Source\PSoC5/VehicleCAN_TX_RX_func.c ****     *   Define                             Description
 416:Generated_Source\PSoC5/VehicleCAN_TX_RX_func.c ****     *    CYRET_SUCCESS                      The function passed successfully
 417:Generated_Source\PSoC5/VehicleCAN_TX_RX_func.c ****     *    VehicleCAN_FAIL              The function failed
 418:Generated_Source\PSoC5/VehicleCAN_TX_RX_func.c ****     *
 419:Generated_Source\PSoC5/VehicleCAN_TX_RX_func.c ****     *******************************************************************************/
 420:Generated_Source\PSoC5/VehicleCAN_TX_RX_func.c ****     uint8 VehicleCAN_SendMsg4(void) 
 421:Generated_Source\PSoC5/VehicleCAN_TX_RX_func.c ****     {
 422:Generated_Source\PSoC5/VehicleCAN_TX_RX_func.c ****         uint8 result = CYRET_SUCCESS;
 423:Generated_Source\PSoC5/VehicleCAN_TX_RX_func.c **** 
ARM GAS  C:\Users\bchir\AppData\Local\Temp\cc9XoFh3.s 			page 13


 424:Generated_Source\PSoC5/VehicleCAN_TX_RX_func.c ****         #if (CY_PSOC3 || CY_PSOC5)
 425:Generated_Source\PSoC5/VehicleCAN_TX_RX_func.c ****             if ((VehicleCAN_TX[4u].txcmd.byte[0u] & VehicleCAN_TX_REQUEST_PENDING) != 0u)
 426:Generated_Source\PSoC5/VehicleCAN_TX_RX_func.c ****         #else  /* CY_PSOC4 */
 427:Generated_Source\PSoC5/VehicleCAN_TX_RX_func.c ****             if ((VehicleCAN_TX_CMD_REG(4u) & VehicleCAN_TX_REQUEST_PENDING) != 0u)
 428:Generated_Source\PSoC5/VehicleCAN_TX_RX_func.c ****         #endif /* CY_PSOC3 || CY_PSOC5 */
 429:Generated_Source\PSoC5/VehicleCAN_TX_RX_func.c ****             {
 430:Generated_Source\PSoC5/VehicleCAN_TX_RX_func.c ****                 result = VehicleCAN_FAIL;
 431:Generated_Source\PSoC5/VehicleCAN_TX_RX_func.c ****             }
 432:Generated_Source\PSoC5/VehicleCAN_TX_RX_func.c ****             else
 433:Generated_Source\PSoC5/VehicleCAN_TX_RX_func.c ****             {
 434:Generated_Source\PSoC5/VehicleCAN_TX_RX_func.c ****                 /* `#START MESSAGE_4_TRASMITTED` */
 435:Generated_Source\PSoC5/VehicleCAN_TX_RX_func.c **** 
 436:Generated_Source\PSoC5/VehicleCAN_TX_RX_func.c ****                 /* `#END` */
 437:Generated_Source\PSoC5/VehicleCAN_TX_RX_func.c **** 
 438:Generated_Source\PSoC5/VehicleCAN_TX_RX_func.c ****                 #ifdef VehicleCAN_SEND_MSG_4_CALLBACK
 439:Generated_Source\PSoC5/VehicleCAN_TX_RX_func.c ****                     VehicleCAN_SendMsg_4_Callback();
 440:Generated_Source\PSoC5/VehicleCAN_TX_RX_func.c ****                 #endif /* VehicleCAN_SEND_MSG_4_CALLBACK */
 441:Generated_Source\PSoC5/VehicleCAN_TX_RX_func.c **** 
 442:Generated_Source\PSoC5/VehicleCAN_TX_RX_func.c ****                 CY_SET_REG32(VehicleCAN_TX_CMD_PTR(4u),
 443:Generated_Source\PSoC5/VehicleCAN_TX_RX_func.c ****                 CY_GET_REG32(VehicleCAN_TX_CMD_PTR(4u)) | VehicleCAN_SEND_MESSAGE);
 444:Generated_Source\PSoC5/VehicleCAN_TX_RX_func.c ****             }
 445:Generated_Source\PSoC5/VehicleCAN_TX_RX_func.c **** 
 446:Generated_Source\PSoC5/VehicleCAN_TX_RX_func.c ****         return (result);
 447:Generated_Source\PSoC5/VehicleCAN_TX_RX_func.c ****     }
 448:Generated_Source\PSoC5/VehicleCAN_TX_RX_func.c **** #endif /* VehicleCAN_TX4_FUNC_ENABLE */
 449:Generated_Source\PSoC5/VehicleCAN_TX_RX_func.c **** 
 450:Generated_Source\PSoC5/VehicleCAN_TX_RX_func.c **** 
 451:Generated_Source\PSoC5/VehicleCAN_TX_RX_func.c **** #if (VehicleCAN_TX5_FUNC_ENABLE)
 452:Generated_Source\PSoC5/VehicleCAN_TX_RX_func.c ****     /*******************************************************************************
 453:Generated_Source\PSoC5/VehicleCAN_TX_RX_func.c ****     * FUNCTION NAME:   VehicleCAN_SendMsg5
 454:Generated_Source\PSoC5/VehicleCAN_TX_RX_func.c ****     ********************************************************************************
 455:Generated_Source\PSoC5/VehicleCAN_TX_RX_func.c ****     *
 456:Generated_Source\PSoC5/VehicleCAN_TX_RX_func.c ****     * Summary:
 457:Generated_Source\PSoC5/VehicleCAN_TX_RX_func.c ****     *  This function is the entry point to Transmit Message 5. The function checks
 458:Generated_Source\PSoC5/VehicleCAN_TX_RX_func.c ****     *  if mailbox 5 doesn't already have un-transmitted messages waiting for
 459:Generated_Source\PSoC5/VehicleCAN_TX_RX_func.c ****     *  arbitration. If not initiate transmission of the message.
 460:Generated_Source\PSoC5/VehicleCAN_TX_RX_func.c ****     *  Generated only for the Transmit mailbox designed as Full.
 461:Generated_Source\PSoC5/VehicleCAN_TX_RX_func.c ****     *
 462:Generated_Source\PSoC5/VehicleCAN_TX_RX_func.c ****     * Parameters:
 463:Generated_Source\PSoC5/VehicleCAN_TX_RX_func.c ****     *  None.
 464:Generated_Source\PSoC5/VehicleCAN_TX_RX_func.c ****     *
 465:Generated_Source\PSoC5/VehicleCAN_TX_RX_func.c ****     * Return:
 466:Generated_Source\PSoC5/VehicleCAN_TX_RX_func.c ****     *  Indication if Message has been sent.
 467:Generated_Source\PSoC5/VehicleCAN_TX_RX_func.c ****     *   Define                             Description
 468:Generated_Source\PSoC5/VehicleCAN_TX_RX_func.c ****     *    CYRET_SUCCESS                      The function passed successfully
 469:Generated_Source\PSoC5/VehicleCAN_TX_RX_func.c ****     *    VehicleCAN_FAIL              The function failed
 470:Generated_Source\PSoC5/VehicleCAN_TX_RX_func.c ****     *
 471:Generated_Source\PSoC5/VehicleCAN_TX_RX_func.c ****     *******************************************************************************/
 472:Generated_Source\PSoC5/VehicleCAN_TX_RX_func.c ****     uint8 VehicleCAN_SendMsg5(void) 
 473:Generated_Source\PSoC5/VehicleCAN_TX_RX_func.c ****     {
 474:Generated_Source\PSoC5/VehicleCAN_TX_RX_func.c ****         uint8 result = CYRET_SUCCESS;
 475:Generated_Source\PSoC5/VehicleCAN_TX_RX_func.c **** 
 476:Generated_Source\PSoC5/VehicleCAN_TX_RX_func.c ****         #if (CY_PSOC3 || CY_PSOC5)
 477:Generated_Source\PSoC5/VehicleCAN_TX_RX_func.c ****             if ((VehicleCAN_TX[5u].txcmd.byte[0u] & VehicleCAN_TX_REQUEST_PENDING) != 0u)
 478:Generated_Source\PSoC5/VehicleCAN_TX_RX_func.c ****         #else  /* CY_PSOC4 */
 479:Generated_Source\PSoC5/VehicleCAN_TX_RX_func.c ****             if ((VehicleCAN_TX_CMD_REG(5u) & VehicleCAN_TX_REQUEST_PENDING) != 0u)
 480:Generated_Source\PSoC5/VehicleCAN_TX_RX_func.c ****         #endif /* CY_PSOC3 || CY_PSOC5 */
ARM GAS  C:\Users\bchir\AppData\Local\Temp\cc9XoFh3.s 			page 14


 481:Generated_Source\PSoC5/VehicleCAN_TX_RX_func.c ****             {
 482:Generated_Source\PSoC5/VehicleCAN_TX_RX_func.c ****                 result = VehicleCAN_FAIL;
 483:Generated_Source\PSoC5/VehicleCAN_TX_RX_func.c ****             }
 484:Generated_Source\PSoC5/VehicleCAN_TX_RX_func.c ****             else
 485:Generated_Source\PSoC5/VehicleCAN_TX_RX_func.c ****             {
 486:Generated_Source\PSoC5/VehicleCAN_TX_RX_func.c ****                 /* `#START MESSAGE_5_TRASMITTED` */
 487:Generated_Source\PSoC5/VehicleCAN_TX_RX_func.c **** 
 488:Generated_Source\PSoC5/VehicleCAN_TX_RX_func.c ****                 /* `#END` */
 489:Generated_Source\PSoC5/VehicleCAN_TX_RX_func.c **** 
 490:Generated_Source\PSoC5/VehicleCAN_TX_RX_func.c ****                 #ifdef VehicleCAN_SEND_MSG_5_CALLBACK
 491:Generated_Source\PSoC5/VehicleCAN_TX_RX_func.c ****                     VehicleCAN_SendMsg_5_Callback();
 492:Generated_Source\PSoC5/VehicleCAN_TX_RX_func.c ****                 #endif /* VehicleCAN_SEND_MSG_5_CALLBACK */
 493:Generated_Source\PSoC5/VehicleCAN_TX_RX_func.c **** 
 494:Generated_Source\PSoC5/VehicleCAN_TX_RX_func.c ****                 CY_SET_REG32(VehicleCAN_TX_CMD_PTR(5u),
 495:Generated_Source\PSoC5/VehicleCAN_TX_RX_func.c ****                 CY_GET_REG32(VehicleCAN_TX_CMD_PTR(5u)) | VehicleCAN_SEND_MESSAGE);
 496:Generated_Source\PSoC5/VehicleCAN_TX_RX_func.c ****             }
 497:Generated_Source\PSoC5/VehicleCAN_TX_RX_func.c **** 
 498:Generated_Source\PSoC5/VehicleCAN_TX_RX_func.c ****         return (result);
 499:Generated_Source\PSoC5/VehicleCAN_TX_RX_func.c ****     }
 500:Generated_Source\PSoC5/VehicleCAN_TX_RX_func.c **** #endif /* VehicleCAN_TX5_FUNC_ENABLE */
 501:Generated_Source\PSoC5/VehicleCAN_TX_RX_func.c **** 
 502:Generated_Source\PSoC5/VehicleCAN_TX_RX_func.c **** 
 503:Generated_Source\PSoC5/VehicleCAN_TX_RX_func.c **** #if (VehicleCAN_TX6_FUNC_ENABLE)
 504:Generated_Source\PSoC5/VehicleCAN_TX_RX_func.c ****     /*******************************************************************************
 505:Generated_Source\PSoC5/VehicleCAN_TX_RX_func.c ****     * FUNCTION NAME:   VehicleCAN_SendMsg6
 506:Generated_Source\PSoC5/VehicleCAN_TX_RX_func.c ****     ********************************************************************************
 507:Generated_Source\PSoC5/VehicleCAN_TX_RX_func.c ****     *
 508:Generated_Source\PSoC5/VehicleCAN_TX_RX_func.c ****     * Summary:
 509:Generated_Source\PSoC5/VehicleCAN_TX_RX_func.c ****     *  This function is the entry point to Transmit Message 6. The function checks
 510:Generated_Source\PSoC5/VehicleCAN_TX_RX_func.c ****     *  if mailbox 6 doesn't already have un-transmitted messages waiting for
 511:Generated_Source\PSoC5/VehicleCAN_TX_RX_func.c ****     *  arbitration. If not initiate transmission of the message.
 512:Generated_Source\PSoC5/VehicleCAN_TX_RX_func.c ****     *  Generated only for the Transmit mailbox designed as Full.
 513:Generated_Source\PSoC5/VehicleCAN_TX_RX_func.c ****     *
 514:Generated_Source\PSoC5/VehicleCAN_TX_RX_func.c ****     * Parameters:
 515:Generated_Source\PSoC5/VehicleCAN_TX_RX_func.c ****     *  None.
 516:Generated_Source\PSoC5/VehicleCAN_TX_RX_func.c ****     *
 517:Generated_Source\PSoC5/VehicleCAN_TX_RX_func.c ****     * Return:
 518:Generated_Source\PSoC5/VehicleCAN_TX_RX_func.c ****     *  Indication if Message has been sent.
 519:Generated_Source\PSoC5/VehicleCAN_TX_RX_func.c ****     *   Define                             Description
 520:Generated_Source\PSoC5/VehicleCAN_TX_RX_func.c ****     *    CYRET_SUCCESS                      The function passed successfully
 521:Generated_Source\PSoC5/VehicleCAN_TX_RX_func.c ****     *    VehicleCAN_FAIL              The function failed
 522:Generated_Source\PSoC5/VehicleCAN_TX_RX_func.c ****     *
 523:Generated_Source\PSoC5/VehicleCAN_TX_RX_func.c ****     *******************************************************************************/
 524:Generated_Source\PSoC5/VehicleCAN_TX_RX_func.c ****     uint8 VehicleCAN_SendMsg6(void) 
 525:Generated_Source\PSoC5/VehicleCAN_TX_RX_func.c ****     {
 526:Generated_Source\PSoC5/VehicleCAN_TX_RX_func.c ****         uint8 result = CYRET_SUCCESS;
 527:Generated_Source\PSoC5/VehicleCAN_TX_RX_func.c **** 
 528:Generated_Source\PSoC5/VehicleCAN_TX_RX_func.c ****         #if (CY_PSOC3 || CY_PSOC5)
 529:Generated_Source\PSoC5/VehicleCAN_TX_RX_func.c ****             if ((VehicleCAN_TX[6u].txcmd.byte[0u] & VehicleCAN_TX_REQUEST_PENDING) != 0u)
 530:Generated_Source\PSoC5/VehicleCAN_TX_RX_func.c ****         #else  /* CY_PSOC4 */
 531:Generated_Source\PSoC5/VehicleCAN_TX_RX_func.c ****             if ((VehicleCAN_TX_CMD_REG(6u) & VehicleCAN_TX_REQUEST_PENDING) != 0u)
 532:Generated_Source\PSoC5/VehicleCAN_TX_RX_func.c ****         #endif /* CY_PSOC3 || CY_PSOC5 */
 533:Generated_Source\PSoC5/VehicleCAN_TX_RX_func.c ****             {
 534:Generated_Source\PSoC5/VehicleCAN_TX_RX_func.c ****                 result = VehicleCAN_FAIL;
 535:Generated_Source\PSoC5/VehicleCAN_TX_RX_func.c ****             }
 536:Generated_Source\PSoC5/VehicleCAN_TX_RX_func.c ****             else
 537:Generated_Source\PSoC5/VehicleCAN_TX_RX_func.c ****             {
ARM GAS  C:\Users\bchir\AppData\Local\Temp\cc9XoFh3.s 			page 15


 538:Generated_Source\PSoC5/VehicleCAN_TX_RX_func.c ****                 /* `#START MESSAGE_6_TRASMITTED` */
 539:Generated_Source\PSoC5/VehicleCAN_TX_RX_func.c **** 
 540:Generated_Source\PSoC5/VehicleCAN_TX_RX_func.c ****                 /* `#END` */
 541:Generated_Source\PSoC5/VehicleCAN_TX_RX_func.c **** 
 542:Generated_Source\PSoC5/VehicleCAN_TX_RX_func.c ****                 #ifdef VehicleCAN_SEND_MSG_6_CALLBACK
 543:Generated_Source\PSoC5/VehicleCAN_TX_RX_func.c ****                     VehicleCAN_SendMsg_6_Callback();
 544:Generated_Source\PSoC5/VehicleCAN_TX_RX_func.c ****                 #endif /* VehicleCAN_SEND_MSG_6_CALLBACK */
 545:Generated_Source\PSoC5/VehicleCAN_TX_RX_func.c **** 
 546:Generated_Source\PSoC5/VehicleCAN_TX_RX_func.c ****                 CY_SET_REG32(VehicleCAN_TX_CMD_PTR(6u),
 547:Generated_Source\PSoC5/VehicleCAN_TX_RX_func.c ****                 CY_GET_REG32(VehicleCAN_TX_CMD_PTR(6u)) | VehicleCAN_SEND_MESSAGE);
 548:Generated_Source\PSoC5/VehicleCAN_TX_RX_func.c ****             }
 549:Generated_Source\PSoC5/VehicleCAN_TX_RX_func.c **** 
 550:Generated_Source\PSoC5/VehicleCAN_TX_RX_func.c ****         return (result);
 551:Generated_Source\PSoC5/VehicleCAN_TX_RX_func.c ****     }
 552:Generated_Source\PSoC5/VehicleCAN_TX_RX_func.c **** #endif /* VehicleCAN_TX6_FUNC_ENABLE */
 553:Generated_Source\PSoC5/VehicleCAN_TX_RX_func.c **** 
 554:Generated_Source\PSoC5/VehicleCAN_TX_RX_func.c **** 
 555:Generated_Source\PSoC5/VehicleCAN_TX_RX_func.c **** #if (VehicleCAN_TX7_FUNC_ENABLE)
 556:Generated_Source\PSoC5/VehicleCAN_TX_RX_func.c ****     /*******************************************************************************
 557:Generated_Source\PSoC5/VehicleCAN_TX_RX_func.c ****     * FUNCTION NAME:   VehicleCAN_SendMsg7)
 558:Generated_Source\PSoC5/VehicleCAN_TX_RX_func.c ****     ********************************************************************************
 559:Generated_Source\PSoC5/VehicleCAN_TX_RX_func.c ****     *
 560:Generated_Source\PSoC5/VehicleCAN_TX_RX_func.c ****     * Summary:
 561:Generated_Source\PSoC5/VehicleCAN_TX_RX_func.c ****     *  This function is the entry point to Transmit Message 7. The function checks
 562:Generated_Source\PSoC5/VehicleCAN_TX_RX_func.c ****     *  if mailbox 7 doesn't already have un-transmitted messages waiting for
 563:Generated_Source\PSoC5/VehicleCAN_TX_RX_func.c ****     *  arbitration. If not initiate transmission of the message.
 564:Generated_Source\PSoC5/VehicleCAN_TX_RX_func.c ****     *  Generated only for the Transmit mailbox designed as Full.
 565:Generated_Source\PSoC5/VehicleCAN_TX_RX_func.c ****     *
 566:Generated_Source\PSoC5/VehicleCAN_TX_RX_func.c ****     * Parameters:
 567:Generated_Source\PSoC5/VehicleCAN_TX_RX_func.c ****     *  None.
 568:Generated_Source\PSoC5/VehicleCAN_TX_RX_func.c ****     *
 569:Generated_Source\PSoC5/VehicleCAN_TX_RX_func.c ****     * Return:
 570:Generated_Source\PSoC5/VehicleCAN_TX_RX_func.c ****     *  Indication if Message has been sent.
 571:Generated_Source\PSoC5/VehicleCAN_TX_RX_func.c ****     *   Define                             Description
 572:Generated_Source\PSoC5/VehicleCAN_TX_RX_func.c ****     *    CYRET_SUCCESS                      The function passed successfully
 573:Generated_Source\PSoC5/VehicleCAN_TX_RX_func.c ****     *    VehicleCAN_FAIL              The function failed
 574:Generated_Source\PSoC5/VehicleCAN_TX_RX_func.c ****     *
 575:Generated_Source\PSoC5/VehicleCAN_TX_RX_func.c ****     *******************************************************************************/
 576:Generated_Source\PSoC5/VehicleCAN_TX_RX_func.c ****     uint8 VehicleCAN_SendMsg7(void) 
 577:Generated_Source\PSoC5/VehicleCAN_TX_RX_func.c ****     {
 578:Generated_Source\PSoC5/VehicleCAN_TX_RX_func.c ****         uint8 result = CYRET_SUCCESS;
 579:Generated_Source\PSoC5/VehicleCAN_TX_RX_func.c **** 
 580:Generated_Source\PSoC5/VehicleCAN_TX_RX_func.c ****         #if (CY_PSOC3 || CY_PSOC5)
 581:Generated_Source\PSoC5/VehicleCAN_TX_RX_func.c ****             if ((VehicleCAN_TX[7u].txcmd.byte[0u] & VehicleCAN_TX_REQUEST_PENDING) != 0u)
 582:Generated_Source\PSoC5/VehicleCAN_TX_RX_func.c ****         #else  /* CY_PSOC4 */
 583:Generated_Source\PSoC5/VehicleCAN_TX_RX_func.c ****             if ((VehicleCAN_TX_CMD_REG(7u) & VehicleCAN_TX_REQUEST_PENDING) != 0u)
 584:Generated_Source\PSoC5/VehicleCAN_TX_RX_func.c ****         #endif /* CY_PSOC3 || CY_PSOC5 */
 585:Generated_Source\PSoC5/VehicleCAN_TX_RX_func.c ****             {
 586:Generated_Source\PSoC5/VehicleCAN_TX_RX_func.c ****                 result = VehicleCAN_FAIL;
 587:Generated_Source\PSoC5/VehicleCAN_TX_RX_func.c ****             }
 588:Generated_Source\PSoC5/VehicleCAN_TX_RX_func.c ****             else
 589:Generated_Source\PSoC5/VehicleCAN_TX_RX_func.c ****             {
 590:Generated_Source\PSoC5/VehicleCAN_TX_RX_func.c ****                 /* `#START MESSAGE_7_TRASMITTED` */
 591:Generated_Source\PSoC5/VehicleCAN_TX_RX_func.c **** 
 592:Generated_Source\PSoC5/VehicleCAN_TX_RX_func.c ****                 /* `#END` */
 593:Generated_Source\PSoC5/VehicleCAN_TX_RX_func.c **** 
 594:Generated_Source\PSoC5/VehicleCAN_TX_RX_func.c ****                 #ifdef VehicleCAN_SEND_MSG_7_CALLBACK
ARM GAS  C:\Users\bchir\AppData\Local\Temp\cc9XoFh3.s 			page 16


 595:Generated_Source\PSoC5/VehicleCAN_TX_RX_func.c ****                     VehicleCAN_SendMsg_7_Callback();
 596:Generated_Source\PSoC5/VehicleCAN_TX_RX_func.c ****                 #endif /* VehicleCAN_SEND_MSG_7_CALLBACK */
 597:Generated_Source\PSoC5/VehicleCAN_TX_RX_func.c **** 
 598:Generated_Source\PSoC5/VehicleCAN_TX_RX_func.c ****                 CY_SET_REG32(VehicleCAN_TX_CMD_PTR(7u),
 599:Generated_Source\PSoC5/VehicleCAN_TX_RX_func.c ****                 CY_GET_REG32(VehicleCAN_TX_CMD_PTR(7u)) | VehicleCAN_SEND_MESSAGE);
 600:Generated_Source\PSoC5/VehicleCAN_TX_RX_func.c ****             }
 601:Generated_Source\PSoC5/VehicleCAN_TX_RX_func.c **** 
 602:Generated_Source\PSoC5/VehicleCAN_TX_RX_func.c ****         return (result);
 603:Generated_Source\PSoC5/VehicleCAN_TX_RX_func.c ****     }
 604:Generated_Source\PSoC5/VehicleCAN_TX_RX_func.c **** #endif /* VehicleCAN_TX7_FUNC_ENABLE */
 605:Generated_Source\PSoC5/VehicleCAN_TX_RX_func.c **** 
 606:Generated_Source\PSoC5/VehicleCAN_TX_RX_func.c **** 
 607:Generated_Source\PSoC5/VehicleCAN_TX_RX_func.c **** /*******************************************************************************
 608:Generated_Source\PSoC5/VehicleCAN_TX_RX_func.c **** * FUNCTION NAME:   VehicleCAN_ReceiveMsg
 609:Generated_Source\PSoC5/VehicleCAN_TX_RX_func.c **** ********************************************************************************
 610:Generated_Source\PSoC5/VehicleCAN_TX_RX_func.c **** *
 611:Generated_Source\PSoC5/VehicleCAN_TX_RX_func.c **** * Summary:
 612:Generated_Source\PSoC5/VehicleCAN_TX_RX_func.c **** *  This function is the entry point to Receive Message Interrupt for Basic
 613:Generated_Source\PSoC5/VehicleCAN_TX_RX_func.c **** *  mailboxes. Clears the Receive particular Message interrupt flag. Generated
 614:Generated_Source\PSoC5/VehicleCAN_TX_RX_func.c **** *  only if one of the Receive mailboxes is designed as Basic.
 615:Generated_Source\PSoC5/VehicleCAN_TX_RX_func.c **** *
 616:Generated_Source\PSoC5/VehicleCAN_TX_RX_func.c **** * Parameters:
 617:Generated_Source\PSoC5/VehicleCAN_TX_RX_func.c **** *  rxMailbox: The mailbox number that trig Receive Message Interrupt.
 618:Generated_Source\PSoC5/VehicleCAN_TX_RX_func.c **** *
 619:Generated_Source\PSoC5/VehicleCAN_TX_RX_func.c **** * Return:
 620:Generated_Source\PSoC5/VehicleCAN_TX_RX_func.c **** *  None.
 621:Generated_Source\PSoC5/VehicleCAN_TX_RX_func.c **** *
 622:Generated_Source\PSoC5/VehicleCAN_TX_RX_func.c **** * Reentrant:
 623:Generated_Source\PSoC5/VehicleCAN_TX_RX_func.c **** *  Depends on the Customer code.
 624:Generated_Source\PSoC5/VehicleCAN_TX_RX_func.c **** *
 625:Generated_Source\PSoC5/VehicleCAN_TX_RX_func.c **** *******************************************************************************/
 626:Generated_Source\PSoC5/VehicleCAN_TX_RX_func.c **** void VehicleCAN_ReceiveMsg(uint8 rxMailbox) 
 627:Generated_Source\PSoC5/VehicleCAN_TX_RX_func.c **** {
 255              		.loc 1 627 0
 256              		.cfi_startproc
 257              		@ args = 0, pretend = 0, frame = 16
 258              		@ frame_needed = 0, uses_anonymous_args = 0
 259              	.LVL29:
 260 0000 2DE9F041 		push	{r4, r5, r6, r7, r8, lr}
 261              		.cfi_def_cfa_offset 24
 262              		.cfi_offset 4, -24
 263              		.cfi_offset 5, -20
 264              		.cfi_offset 6, -16
 265              		.cfi_offset 7, -12
 266              		.cfi_offset 8, -8
 267              		.cfi_offset 14, -4
 268 0004 84B0     		sub	sp, sp, #16
 269              		.cfi_def_cfa_offset 40
 628:Generated_Source\PSoC5/VehicleCAN_TX_RX_func.c ****     #if (CY_PSOC3 || CY_PSOC5)
 629:Generated_Source\PSoC5/VehicleCAN_TX_RX_func.c ****         if ((VehicleCAN_RX[rxMailbox].rxcmd.byte[0u] & VehicleCAN_RX_ACK_MSG) != 0u)
 270              		.loc 1 629 0
 271 0006 4401     		lsls	r4, r0, #5
 272 0008 1D4B     		ldr	r3, .L32
 273 000a E518     		adds	r5, r4, r3
 274 000c E25C     		ldrb	r2, [r4, r3]	@ zero_extendqisi2
 275 000e 12F0010F 		tst	r2, #1
 276 0012 31D0     		beq	.L28
ARM GAS  C:\Users\bchir\AppData\Local\Temp\cc9XoFh3.s 			page 17


 277              	.LBB2:
 630:Generated_Source\PSoC5/VehicleCAN_TX_RX_func.c ****     #else  /* CY_PSOC4 */
 631:Generated_Source\PSoC5/VehicleCAN_TX_RX_func.c ****         if ((VehicleCAN_RX_CMD_REG(rxMailbox) & VehicleCAN_RX_ACK_MSG) != 0u)
 632:Generated_Source\PSoC5/VehicleCAN_TX_RX_func.c ****     #endif /* CY_PSOC3 || CY_PSOC5 */
 633:Generated_Source\PSoC5/VehicleCAN_TX_RX_func.c ****         {
 634:Generated_Source\PSoC5/VehicleCAN_TX_RX_func.c ****             /* `#START MESSAGE_BASIC_RECEIVED` */
 635:Generated_Source\PSoC5/VehicleCAN_TX_RX_func.c **** 
 636:Generated_Source\PSoC5/VehicleCAN_TX_RX_func.c ****             CANBusRXMessage_t temp;
 637:Generated_Source\PSoC5/VehicleCAN_TX_RX_func.c ****             temp.rxdata = VehicleCAN_RX[rxMailbox].rxdata;
 278              		.loc 1 637 0
 279 0014 01AA     		add	r2, sp, #4
 280 0016 2946     		mov	r1, r5
 281 0018 51F8080F 		ldr	r0, [r1, #8]!	@ unaligned
 282              	.LVL30:
 283 001c 4968     		ldr	r1, [r1, #4]	@ unaligned
 284 001e 03C2     		stmia	r2!, {r0, r1}
 638:Generated_Source\PSoC5/VehicleCAN_TX_RX_func.c ****             temp.rxid = VehicleCAN_RX[rxMailbox].rxid;
 285              		.loc 1 638 0
 286 0020 6868     		ldr	r0, [r5, #4]	@ unaligned
 287 0022 0090     		str	r0, [sp]	@ unaligned
 639:Generated_Source\PSoC5/VehicleCAN_TX_RX_func.c ****             temp.dlc = VehicleCAN_GET_DLC(rxMailbox);
 288              		.loc 1 639 0
 289 0024 AA78     		ldrb	r2, [r5, #2]	@ zero_extendqisi2
 290 0026 02F00F02 		and	r2, r2, #15
 291 002a 8DF80C20 		strb	r2, [sp, #12]
 640:Generated_Source\PSoC5/VehicleCAN_TX_RX_func.c ****             
 641:Generated_Source\PSoC5/VehicleCAN_TX_RX_func.c ****             
 642:Generated_Source\PSoC5/VehicleCAN_TX_RX_func.c ****             if( temp.dlc > 0 && temp.rxid.byte > 0 )
 292              		.loc 1 642 0
 293 002e FAB1     		cbz	r2, .L30
 643:Generated_Source\PSoC5/VehicleCAN_TX_RX_func.c ****             {
 644:Generated_Source\PSoC5/VehicleCAN_TX_RX_func.c ****                 
 645:Generated_Source\PSoC5/VehicleCAN_TX_RX_func.c ****                 canbusRecMgsBuffer[recMsgBufferFillLevel]  = temp;
 294              		.loc 1 645 0
 295 0030 DFF850C0 		ldr	ip, .L32+4
 296 0034 9CF80050 		ldrb	r5, [ip]	@ zero_extendqisi2
 297 0038 DFF84C80 		ldr	r8, .L32+8
 298 003c 05EB4507 		add	r7, r5, r5, lsl #1
 299 0040 05EB8707 		add	r7, r5, r7, lsl #2
 300 0044 08EB070E 		add	lr, r8, r7
 301 0048 6E46     		mov	r6, sp
 302 004a 07CE     		ldmia	r6!, {r0, r1, r2}
 303 004c 48F80700 		str	r0, [r8, r7]	@ unaligned
 304 0050 CEF80410 		str	r1, [lr, #4]	@ unaligned
 305 0054 CEF80820 		str	r2, [lr, #8]	@ unaligned
 306 0058 3278     		ldrb	r2, [r6]	@ zero_extendqisi2
 307 005a 8EF80C20 		strb	r2, [lr, #12]
 646:Generated_Source\PSoC5/VehicleCAN_TX_RX_func.c ****                 recMsgBufferFillLevel++;
 308              		.loc 1 646 0
 309 005e 0135     		adds	r5, r5, #1
 310 0060 EDB2     		uxtb	r5, r5
 311 0062 8CF80050 		strb	r5, [ip]
 647:Generated_Source\PSoC5/VehicleCAN_TX_RX_func.c ****                 
 648:Generated_Source\PSoC5/VehicleCAN_TX_RX_func.c ****                 if( recMsgBufferFillLevel >= sizeof(canbusRecMgsBuffer) / sizeof(CANBusRXMessage_t 
 312              		.loc 1 648 0
 313 0066 132D     		cmp	r5, #19
 314 0068 02D9     		bls	.L30
ARM GAS  C:\Users\bchir\AppData\Local\Temp\cc9XoFh3.s 			page 18


 649:Generated_Source\PSoC5/VehicleCAN_TX_RX_func.c ****                 {
 650:Generated_Source\PSoC5/VehicleCAN_TX_RX_func.c ****                    recMsgBufferFillLevel = 0; 
 315              		.loc 1 650 0
 316 006a 0021     		movs	r1, #0
 317 006c 8CF80010 		strb	r1, [ip]
 318              	.L30:
 651:Generated_Source\PSoC5/VehicleCAN_TX_RX_func.c ****                 }
 652:Generated_Source\PSoC5/VehicleCAN_TX_RX_func.c ****                 
 653:Generated_Source\PSoC5/VehicleCAN_TX_RX_func.c ****             }
 654:Generated_Source\PSoC5/VehicleCAN_TX_RX_func.c ****             
 655:Generated_Source\PSoC5/VehicleCAN_TX_RX_func.c ****             /* `#END` */
 656:Generated_Source\PSoC5/VehicleCAN_TX_RX_func.c **** 
 657:Generated_Source\PSoC5/VehicleCAN_TX_RX_func.c ****             #ifdef VehicleCAN_RECEIVE_MSG_CALLBACK
 658:Generated_Source\PSoC5/VehicleCAN_TX_RX_func.c ****                 VehicleCAN_ReceiveMsg_Callback();
 659:Generated_Source\PSoC5/VehicleCAN_TX_RX_func.c ****             #endif /* VehicleCAN_RECEIVE_MSG_CALLBACK */
 660:Generated_Source\PSoC5/VehicleCAN_TX_RX_func.c **** 
 661:Generated_Source\PSoC5/VehicleCAN_TX_RX_func.c ****             #if (CY_PSOC3 || CY_PSOC5)
 662:Generated_Source\PSoC5/VehicleCAN_TX_RX_func.c ****                 VehicleCAN_RX[rxMailbox].rxcmd.byte[0u] |= VehicleCAN_RX_ACK_MSG;
 319              		.loc 1 662 0
 320 0070 E25C     		ldrb	r2, [r4, r3]	@ zero_extendqisi2
 321 0072 42F00102 		orr	r2, r2, #1
 322 0076 E254     		strb	r2, [r4, r3]
 323              	.L28:
 324              	.LBE2:
 663:Generated_Source\PSoC5/VehicleCAN_TX_RX_func.c ****             #else  /* CY_PSOC4 */
 664:Generated_Source\PSoC5/VehicleCAN_TX_RX_func.c ****                 VehicleCAN_RX_CMD_REG(rxMailbox) |= VehicleCAN_RX_ACK_MSG;
 665:Generated_Source\PSoC5/VehicleCAN_TX_RX_func.c ****             #endif /* CY_PSOC3 || CY_PSOC5 */
 666:Generated_Source\PSoC5/VehicleCAN_TX_RX_func.c ****         }
 667:Generated_Source\PSoC5/VehicleCAN_TX_RX_func.c **** }
 325              		.loc 1 667 0
 326 0078 04B0     		add	sp, sp, #16
 327              		.cfi_def_cfa_offset 24
 328              		@ sp needed
 329 007a BDE8F081 		pop	{r4, r5, r6, r7, r8, pc}
 330              	.L33:
 331 007e 00BF     		.align	2
 332              	.L32:
 333 0080 A0A00040 		.word	1073782944
 334 0084 00000000 		.word	.LANCHOR0
 335 0088 00000000 		.word	canbusRecMgsBuffer
 336              		.cfi_endproc
 337              	.LFE70:
 338              		.size	VehicleCAN_ReceiveMsg, .-VehicleCAN_ReceiveMsg
 339              		.global	recMsgBufferFillLevel
 340              		.comm	canbusRecMgsBuffer,260,4
 341              		.bss
 342              		.set	.LANCHOR0,. + 0
 343              		.type	recMsgBufferFillLevel, %object
 344              		.size	recMsgBufferFillLevel, 1
 345              	recMsgBufferFillLevel:
 346 0000 00       		.space	1
 347              		.text
 348              	.Letext0:
 349              		.file 2 "c:\\program files (x86)\\cypress\\psoc creator\\4.4\\psoc creator\\import\\gnu\\arm\\5.4.
 350              		.file 3 "c:\\program files (x86)\\cypress\\psoc creator\\4.4\\psoc creator\\import\\gnu\\arm\\5.4.
 351              		.file 4 "Generated_Source\\PSoC5\\cytypes.h"
 352              		.file 5 "Generated_Source\\PSoC5\\VehicleCAN.h"
ARM GAS  C:\Users\bchir\AppData\Local\Temp\cc9XoFh3.s 			page 19


 353              		.file 6 "./CanbusMessageRead.h"
 354              		.file 7 "Generated_Source\\PSoC5/core_cm3.h"