ARM GAS  C:\Users\bchir\AppData\Local\Temp\ccoLzTcj.s 			page 1


   1              		.syntax unified
   2              		.cpu cortex-m3
   3              		.fpu softvfp
   4              		.eabi_attribute 20, 1
   5              		.eabi_attribute 21, 1
   6              		.eabi_attribute 23, 3
   7              		.eabi_attribute 24, 1
   8              		.eabi_attribute 25, 1
   9              		.eabi_attribute 26, 1
  10              		.eabi_attribute 30, 1
  11              		.eabi_attribute 34, 1
  12              		.eabi_attribute 18, 4
  13              		.thumb
  14              		.syntax unified
  15              		.file	"VehicleCAN_INT.c"
  16              		.text
  17              	.Ltext0:
  18              		.cfi_sections	.debug_frame
  19              		.section	.text.VehicleCAN_BusOffIsr,"ax",%progbits
  20              		.align	2
  21              		.global	VehicleCAN_BusOffIsr
  22              		.thumb
  23              		.thumb_func
  24              		.type	VehicleCAN_BusOffIsr, %function
  25              	VehicleCAN_BusOffIsr:
  26              	.LFB0:
  27              		.file 1 "Generated_Source\\PSoC5\\VehicleCAN_INT.c"
   1:Generated_Source\PSoC5/VehicleCAN_INT.c **** /*******************************************************************************
   2:Generated_Source\PSoC5/VehicleCAN_INT.c **** * File Name: VehicleCAN_INT.c
   3:Generated_Source\PSoC5/VehicleCAN_INT.c **** * Version 3.0
   4:Generated_Source\PSoC5/VehicleCAN_INT.c **** *
   5:Generated_Source\PSoC5/VehicleCAN_INT.c **** * Description:
   6:Generated_Source\PSoC5/VehicleCAN_INT.c **** *  This file contains Interrupt Service Routine (ISR) for CAN Component.
   7:Generated_Source\PSoC5/VehicleCAN_INT.c **** *  The Interrupt handlers functions are generated accordingly to the PSoC
   8:Generated_Source\PSoC5/VehicleCAN_INT.c **** *  Creator Customizer inputs.
   9:Generated_Source\PSoC5/VehicleCAN_INT.c **** *
  10:Generated_Source\PSoC5/VehicleCAN_INT.c **** * Note:
  11:Generated_Source\PSoC5/VehicleCAN_INT.c **** *  None
  12:Generated_Source\PSoC5/VehicleCAN_INT.c **** *
  13:Generated_Source\PSoC5/VehicleCAN_INT.c **** ********************************************************************************
  14:Generated_Source\PSoC5/VehicleCAN_INT.c **** * Copyright 2008-2015, Cypress Semiconductor Corporation.  All rights reserved.
  15:Generated_Source\PSoC5/VehicleCAN_INT.c **** * You may use this file only in accordance with the license, terms, conditions,
  16:Generated_Source\PSoC5/VehicleCAN_INT.c **** * disclaimers, and limitations in the end user license agreement accompanying
  17:Generated_Source\PSoC5/VehicleCAN_INT.c **** * the software package with which this file was provided.
  18:Generated_Source\PSoC5/VehicleCAN_INT.c **** *******************************************************************************/
  19:Generated_Source\PSoC5/VehicleCAN_INT.c **** 
  20:Generated_Source\PSoC5/VehicleCAN_INT.c **** #include "VehicleCAN.h"
  21:Generated_Source\PSoC5/VehicleCAN_INT.c **** #include "cyapicallbacks.h"
  22:Generated_Source\PSoC5/VehicleCAN_INT.c **** 
  23:Generated_Source\PSoC5/VehicleCAN_INT.c **** /* `#START CAN_INT_C_CODE_DEFINITION` */
  24:Generated_Source\PSoC5/VehicleCAN_INT.c **** 
  25:Generated_Source\PSoC5/VehicleCAN_INT.c **** /* `#END` */
  26:Generated_Source\PSoC5/VehicleCAN_INT.c **** 
  27:Generated_Source\PSoC5/VehicleCAN_INT.c **** #if (VehicleCAN_ARB_LOST)
  28:Generated_Source\PSoC5/VehicleCAN_INT.c ****     /*******************************************************************************
  29:Generated_Source\PSoC5/VehicleCAN_INT.c ****     * FUNCTION NAME:   VehicleCAN_ArbLostIsr
  30:Generated_Source\PSoC5/VehicleCAN_INT.c ****     ********************************************************************************
ARM GAS  C:\Users\bchir\AppData\Local\Temp\ccoLzTcj.s 			page 2


  31:Generated_Source\PSoC5/VehicleCAN_INT.c ****     *
  32:Generated_Source\PSoC5/VehicleCAN_INT.c ****     * Summary:
  33:Generated_Source\PSoC5/VehicleCAN_INT.c ****     *  This function is entry point to Arbitration Lost Interrupt. Clears
  34:Generated_Source\PSoC5/VehicleCAN_INT.c ****     *  Arbitration Lost interrupt flag. Only generated if Arbitration Lost
  35:Generated_Source\PSoC5/VehicleCAN_INT.c ****     *  Interrupt enable in Customizer.
  36:Generated_Source\PSoC5/VehicleCAN_INT.c ****     *
  37:Generated_Source\PSoC5/VehicleCAN_INT.c ****     * Parameters:
  38:Generated_Source\PSoC5/VehicleCAN_INT.c ****     *  None.
  39:Generated_Source\PSoC5/VehicleCAN_INT.c ****     *
  40:Generated_Source\PSoC5/VehicleCAN_INT.c ****     * Return:
  41:Generated_Source\PSoC5/VehicleCAN_INT.c ****     *  None.
  42:Generated_Source\PSoC5/VehicleCAN_INT.c ****     *
  43:Generated_Source\PSoC5/VehicleCAN_INT.c ****     * Reentrant:
  44:Generated_Source\PSoC5/VehicleCAN_INT.c ****     *  Depends on Customer code.
  45:Generated_Source\PSoC5/VehicleCAN_INT.c ****     *
  46:Generated_Source\PSoC5/VehicleCAN_INT.c ****     *******************************************************************************/
  47:Generated_Source\PSoC5/VehicleCAN_INT.c ****     void VehicleCAN_ArbLostIsr(void) 
  48:Generated_Source\PSoC5/VehicleCAN_INT.c ****     {
  49:Generated_Source\PSoC5/VehicleCAN_INT.c ****         /* Clear Arbitration Lost flag */
  50:Generated_Source\PSoC5/VehicleCAN_INT.c ****         VehicleCAN_INT_SR_REG.byte[0u] = VehicleCAN_ARBITRATION_LOST_MASK;
  51:Generated_Source\PSoC5/VehicleCAN_INT.c **** 
  52:Generated_Source\PSoC5/VehicleCAN_INT.c ****         /* `#START ARBITRATION_LOST_ISR` */
  53:Generated_Source\PSoC5/VehicleCAN_INT.c **** 
  54:Generated_Source\PSoC5/VehicleCAN_INT.c ****         /* `#END` */
  55:Generated_Source\PSoC5/VehicleCAN_INT.c **** 
  56:Generated_Source\PSoC5/VehicleCAN_INT.c ****         #ifdef VehicleCAN_ARB_LOST_ISR_CALLBACK
  57:Generated_Source\PSoC5/VehicleCAN_INT.c ****             VehicleCAN_ArbLostIsr_Callback();
  58:Generated_Source\PSoC5/VehicleCAN_INT.c ****         #endif /* VehicleCAN_ARB_LOST_ISR_CALLBACK */
  59:Generated_Source\PSoC5/VehicleCAN_INT.c ****     }
  60:Generated_Source\PSoC5/VehicleCAN_INT.c **** #endif /* VehicleCAN_ARB_LOST */
  61:Generated_Source\PSoC5/VehicleCAN_INT.c **** 
  62:Generated_Source\PSoC5/VehicleCAN_INT.c **** 
  63:Generated_Source\PSoC5/VehicleCAN_INT.c **** #if (VehicleCAN_OVERLOAD)
  64:Generated_Source\PSoC5/VehicleCAN_INT.c ****     /*******************************************************************************
  65:Generated_Source\PSoC5/VehicleCAN_INT.c ****     * FUNCTION NAME:   VehicleCAN_OvrLdErrorIsr
  66:Generated_Source\PSoC5/VehicleCAN_INT.c ****     ********************************************************************************
  67:Generated_Source\PSoC5/VehicleCAN_INT.c ****     *
  68:Generated_Source\PSoC5/VehicleCAN_INT.c ****     * Summary:
  69:Generated_Source\PSoC5/VehicleCAN_INT.c ****     *  This function is entry point to Overload Error Interrupt. Clears Overload
  70:Generated_Source\PSoC5/VehicleCAN_INT.c ****     *  Error interrupt flag. Only generated if Overload Error Interrupt enable
  71:Generated_Source\PSoC5/VehicleCAN_INT.c ****     *  in Customizer.
  72:Generated_Source\PSoC5/VehicleCAN_INT.c ****     *
  73:Generated_Source\PSoC5/VehicleCAN_INT.c ****     * Parameters:
  74:Generated_Source\PSoC5/VehicleCAN_INT.c ****     *  None.
  75:Generated_Source\PSoC5/VehicleCAN_INT.c ****     *
  76:Generated_Source\PSoC5/VehicleCAN_INT.c ****     * Return:
  77:Generated_Source\PSoC5/VehicleCAN_INT.c ****     *  None.
  78:Generated_Source\PSoC5/VehicleCAN_INT.c ****     *
  79:Generated_Source\PSoC5/VehicleCAN_INT.c ****     * Reentrant:
  80:Generated_Source\PSoC5/VehicleCAN_INT.c ****     *  Depends on Customer code.
  81:Generated_Source\PSoC5/VehicleCAN_INT.c ****     *
  82:Generated_Source\PSoC5/VehicleCAN_INT.c ****     *******************************************************************************/
  83:Generated_Source\PSoC5/VehicleCAN_INT.c ****     void VehicleCAN_OvrLdErrorIsr(void) 
  84:Generated_Source\PSoC5/VehicleCAN_INT.c ****     {
  85:Generated_Source\PSoC5/VehicleCAN_INT.c ****         /* Clear Overload Error flag */
  86:Generated_Source\PSoC5/VehicleCAN_INT.c ****         VehicleCAN_INT_SR_REG.byte[0u] = VehicleCAN_OVERLOAD_ERROR_MASK;
  87:Generated_Source\PSoC5/VehicleCAN_INT.c **** 
ARM GAS  C:\Users\bchir\AppData\Local\Temp\ccoLzTcj.s 			page 3


  88:Generated_Source\PSoC5/VehicleCAN_INT.c ****         /* `#START OVER_LOAD_ERROR_ISR` */
  89:Generated_Source\PSoC5/VehicleCAN_INT.c **** 
  90:Generated_Source\PSoC5/VehicleCAN_INT.c ****         /* `#END` */
  91:Generated_Source\PSoC5/VehicleCAN_INT.c **** 
  92:Generated_Source\PSoC5/VehicleCAN_INT.c ****         #ifdef VehicleCAN_OVR_LD_ERROR_ISR_CALLBACK
  93:Generated_Source\PSoC5/VehicleCAN_INT.c ****             VehicleCAN_OvrLdErrorIsr_Callback();
  94:Generated_Source\PSoC5/VehicleCAN_INT.c ****         #endif /* VehicleCAN_OVR_LD_ERROR_ISR_CALLBACK */
  95:Generated_Source\PSoC5/VehicleCAN_INT.c ****     }
  96:Generated_Source\PSoC5/VehicleCAN_INT.c **** #endif /* VehicleCAN_OVERLOAD */
  97:Generated_Source\PSoC5/VehicleCAN_INT.c **** 
  98:Generated_Source\PSoC5/VehicleCAN_INT.c **** 
  99:Generated_Source\PSoC5/VehicleCAN_INT.c **** #if (VehicleCAN_BIT_ERR)
 100:Generated_Source\PSoC5/VehicleCAN_INT.c ****     /*******************************************************************************
 101:Generated_Source\PSoC5/VehicleCAN_INT.c ****     * FUNCTION NAME:   VehicleCAN_BitErrorIsr
 102:Generated_Source\PSoC5/VehicleCAN_INT.c ****     ********************************************************************************
 103:Generated_Source\PSoC5/VehicleCAN_INT.c ****     *
 104:Generated_Source\PSoC5/VehicleCAN_INT.c ****     * Summary:
 105:Generated_Source\PSoC5/VehicleCAN_INT.c ****     *  This function is entry point to Bit Error Interrupt. Clears Bit Error
 106:Generated_Source\PSoC5/VehicleCAN_INT.c ****     *  interrupt flag. Only generated if Bit Error Interrupt enable in Customizer.
 107:Generated_Source\PSoC5/VehicleCAN_INT.c ****     *
 108:Generated_Source\PSoC5/VehicleCAN_INT.c ****     * Parameters:
 109:Generated_Source\PSoC5/VehicleCAN_INT.c ****     *  None.
 110:Generated_Source\PSoC5/VehicleCAN_INT.c ****     *
 111:Generated_Source\PSoC5/VehicleCAN_INT.c ****     * Return:
 112:Generated_Source\PSoC5/VehicleCAN_INT.c ****     *  None.
 113:Generated_Source\PSoC5/VehicleCAN_INT.c ****     *
 114:Generated_Source\PSoC5/VehicleCAN_INT.c ****     * Reentrant:
 115:Generated_Source\PSoC5/VehicleCAN_INT.c ****     *  Depends on Customer code.
 116:Generated_Source\PSoC5/VehicleCAN_INT.c ****     *
 117:Generated_Source\PSoC5/VehicleCAN_INT.c ****     *******************************************************************************/
 118:Generated_Source\PSoC5/VehicleCAN_INT.c ****     void VehicleCAN_BitErrorIsr(void) 
 119:Generated_Source\PSoC5/VehicleCAN_INT.c ****     {
 120:Generated_Source\PSoC5/VehicleCAN_INT.c ****         /* Clear Bit Error flag */
 121:Generated_Source\PSoC5/VehicleCAN_INT.c ****         VehicleCAN_INT_SR_REG.byte[0u] = VehicleCAN_BIT_ERROR_MASK;
 122:Generated_Source\PSoC5/VehicleCAN_INT.c **** 
 123:Generated_Source\PSoC5/VehicleCAN_INT.c ****         /* `#START BIT_ERROR_ISR` */
 124:Generated_Source\PSoC5/VehicleCAN_INT.c **** 
 125:Generated_Source\PSoC5/VehicleCAN_INT.c ****         /* `#END` */
 126:Generated_Source\PSoC5/VehicleCAN_INT.c **** 
 127:Generated_Source\PSoC5/VehicleCAN_INT.c ****         #ifdef VehicleCAN_BIT_ERROR_ISR_CALLBACK
 128:Generated_Source\PSoC5/VehicleCAN_INT.c ****             VehicleCAN_BitErrorIsr_Callback();
 129:Generated_Source\PSoC5/VehicleCAN_INT.c ****         #endif /* VehicleCAN_BIT_ERROR_ISR_CALLBACK */
 130:Generated_Source\PSoC5/VehicleCAN_INT.c ****     }
 131:Generated_Source\PSoC5/VehicleCAN_INT.c **** #endif /* VehicleCAN_BIT_ERR */
 132:Generated_Source\PSoC5/VehicleCAN_INT.c **** 
 133:Generated_Source\PSoC5/VehicleCAN_INT.c **** 
 134:Generated_Source\PSoC5/VehicleCAN_INT.c **** #if (VehicleCAN_STUFF_ERR)
 135:Generated_Source\PSoC5/VehicleCAN_INT.c ****     /*******************************************************************************
 136:Generated_Source\PSoC5/VehicleCAN_INT.c ****     * FUNCTION NAME:   VehicleCAN_BitStuffErrorIsr
 137:Generated_Source\PSoC5/VehicleCAN_INT.c ****     ********************************************************************************
 138:Generated_Source\PSoC5/VehicleCAN_INT.c ****     *
 139:Generated_Source\PSoC5/VehicleCAN_INT.c ****     * Summary:
 140:Generated_Source\PSoC5/VehicleCAN_INT.c ****     *  This function is entry point to Bit Stuff Error Interrupt. Clears Bit Stuff
 141:Generated_Source\PSoC5/VehicleCAN_INT.c ****     *  Error interrupt flag. Only generated if Bit Stuff Error Interrupt enable
 142:Generated_Source\PSoC5/VehicleCAN_INT.c ****     *  in Customizer.
 143:Generated_Source\PSoC5/VehicleCAN_INT.c ****     *
 144:Generated_Source\PSoC5/VehicleCAN_INT.c ****     * Parameters:
ARM GAS  C:\Users\bchir\AppData\Local\Temp\ccoLzTcj.s 			page 4


 145:Generated_Source\PSoC5/VehicleCAN_INT.c ****     *  None.
 146:Generated_Source\PSoC5/VehicleCAN_INT.c ****     *
 147:Generated_Source\PSoC5/VehicleCAN_INT.c ****     * Return:
 148:Generated_Source\PSoC5/VehicleCAN_INT.c ****     *  None.
 149:Generated_Source\PSoC5/VehicleCAN_INT.c ****     *
 150:Generated_Source\PSoC5/VehicleCAN_INT.c ****     * Reentrant:
 151:Generated_Source\PSoC5/VehicleCAN_INT.c ****     *  Depends on Customer code.
 152:Generated_Source\PSoC5/VehicleCAN_INT.c ****     *
 153:Generated_Source\PSoC5/VehicleCAN_INT.c ****     *******************************************************************************/
 154:Generated_Source\PSoC5/VehicleCAN_INT.c ****     void VehicleCAN_BitStuffErrorIsr(void) 
 155:Generated_Source\PSoC5/VehicleCAN_INT.c ****     {
 156:Generated_Source\PSoC5/VehicleCAN_INT.c ****         /* Clear Stuff Error flag */
 157:Generated_Source\PSoC5/VehicleCAN_INT.c ****         VehicleCAN_INT_SR_REG.byte[0u] = VehicleCAN_STUFF_ERROR_MASK;
 158:Generated_Source\PSoC5/VehicleCAN_INT.c **** 
 159:Generated_Source\PSoC5/VehicleCAN_INT.c ****         /* `#START BIT_STUFF_ERROR_ISR` */
 160:Generated_Source\PSoC5/VehicleCAN_INT.c **** 
 161:Generated_Source\PSoC5/VehicleCAN_INT.c ****         /* `#END` */
 162:Generated_Source\PSoC5/VehicleCAN_INT.c **** 
 163:Generated_Source\PSoC5/VehicleCAN_INT.c ****         #ifdef VehicleCAN_BIT_STUFF_ERROR_ISR_CALLBACK
 164:Generated_Source\PSoC5/VehicleCAN_INT.c ****             VehicleCAN_BitStuffErrorIsr_Callback();
 165:Generated_Source\PSoC5/VehicleCAN_INT.c ****         #endif /* VehicleCAN_BIT_STUFF_ERROR_ISR_CALLBACK */
 166:Generated_Source\PSoC5/VehicleCAN_INT.c ****     }
 167:Generated_Source\PSoC5/VehicleCAN_INT.c **** #endif /* VehicleCAN_STUFF_ERR */
 168:Generated_Source\PSoC5/VehicleCAN_INT.c **** 
 169:Generated_Source\PSoC5/VehicleCAN_INT.c **** 
 170:Generated_Source\PSoC5/VehicleCAN_INT.c **** #if (VehicleCAN_ACK_ERR)
 171:Generated_Source\PSoC5/VehicleCAN_INT.c ****     /*******************************************************************************
 172:Generated_Source\PSoC5/VehicleCAN_INT.c ****     * FUNCTION NAME:   VehicleCAN_AckErrorIsr
 173:Generated_Source\PSoC5/VehicleCAN_INT.c ****     ********************************************************************************
 174:Generated_Source\PSoC5/VehicleCAN_INT.c ****     *
 175:Generated_Source\PSoC5/VehicleCAN_INT.c ****     * Summary:
 176:Generated_Source\PSoC5/VehicleCAN_INT.c ****     *  This function is entry point to Acknowledge Error Interrupt. Clears
 177:Generated_Source\PSoC5/VehicleCAN_INT.c ****     *  Acknowledge Error interrupt flag. Only generated if Acknowledge Error
 178:Generated_Source\PSoC5/VehicleCAN_INT.c ****     *  Interrupt enable in Customizer.
 179:Generated_Source\PSoC5/VehicleCAN_INT.c ****     *
 180:Generated_Source\PSoC5/VehicleCAN_INT.c ****     * Parameters:
 181:Generated_Source\PSoC5/VehicleCAN_INT.c ****     *  None.
 182:Generated_Source\PSoC5/VehicleCAN_INT.c ****     *
 183:Generated_Source\PSoC5/VehicleCAN_INT.c ****     * Return:
 184:Generated_Source\PSoC5/VehicleCAN_INT.c ****     *  None.
 185:Generated_Source\PSoC5/VehicleCAN_INT.c ****     *
 186:Generated_Source\PSoC5/VehicleCAN_INT.c ****     * Reentrant:
 187:Generated_Source\PSoC5/VehicleCAN_INT.c ****     *  Depends on Customer code.
 188:Generated_Source\PSoC5/VehicleCAN_INT.c ****     *
 189:Generated_Source\PSoC5/VehicleCAN_INT.c ****     *******************************************************************************/
 190:Generated_Source\PSoC5/VehicleCAN_INT.c ****     void VehicleCAN_AckErrorIsr(void) 
 191:Generated_Source\PSoC5/VehicleCAN_INT.c ****     {
 192:Generated_Source\PSoC5/VehicleCAN_INT.c ****         /* Clear Acknoledge Error flag */
 193:Generated_Source\PSoC5/VehicleCAN_INT.c ****         VehicleCAN_INT_SR_REG.byte[0u] = VehicleCAN_ACK_ERROR_MASK;
 194:Generated_Source\PSoC5/VehicleCAN_INT.c **** 
 195:Generated_Source\PSoC5/VehicleCAN_INT.c ****         /* `#START ACKNOWLEDGE_ERROR_ISR` */
 196:Generated_Source\PSoC5/VehicleCAN_INT.c **** 
 197:Generated_Source\PSoC5/VehicleCAN_INT.c ****         /* `#END` */
 198:Generated_Source\PSoC5/VehicleCAN_INT.c **** 
 199:Generated_Source\PSoC5/VehicleCAN_INT.c ****         #ifdef VehicleCAN_ACK_ERROR_ISR_CALLBACK
 200:Generated_Source\PSoC5/VehicleCAN_INT.c ****             VehicleCAN_AckErrorIsr_Callback();
 201:Generated_Source\PSoC5/VehicleCAN_INT.c ****         #endif /* VehicleCAN_ACK_ERROR_ISR_CALLBACK */
ARM GAS  C:\Users\bchir\AppData\Local\Temp\ccoLzTcj.s 			page 5


 202:Generated_Source\PSoC5/VehicleCAN_INT.c ****     }
 203:Generated_Source\PSoC5/VehicleCAN_INT.c **** #endif /* VehicleCAN_ACK_ERR */
 204:Generated_Source\PSoC5/VehicleCAN_INT.c **** 
 205:Generated_Source\PSoC5/VehicleCAN_INT.c **** 
 206:Generated_Source\PSoC5/VehicleCAN_INT.c **** #if (VehicleCAN_FORM_ERR)
 207:Generated_Source\PSoC5/VehicleCAN_INT.c ****     /*******************************************************************************
 208:Generated_Source\PSoC5/VehicleCAN_INT.c ****     * FUNCTION NAME:   VehicleCAN_MsgErrorIsr
 209:Generated_Source\PSoC5/VehicleCAN_INT.c ****     ********************************************************************************
 210:Generated_Source\PSoC5/VehicleCAN_INT.c ****     *
 211:Generated_Source\PSoC5/VehicleCAN_INT.c ****     * Summary:
 212:Generated_Source\PSoC5/VehicleCAN_INT.c ****     *  This function is entry point to Form Error Interrupt. Clears Form Error
 213:Generated_Source\PSoC5/VehicleCAN_INT.c ****     *  interrupt flag. Only generated if Form Error Interrupt enable in Customizer.
 214:Generated_Source\PSoC5/VehicleCAN_INT.c ****     *
 215:Generated_Source\PSoC5/VehicleCAN_INT.c ****     * Parameters:
 216:Generated_Source\PSoC5/VehicleCAN_INT.c ****     *  None.
 217:Generated_Source\PSoC5/VehicleCAN_INT.c ****     *
 218:Generated_Source\PSoC5/VehicleCAN_INT.c ****     * Return:
 219:Generated_Source\PSoC5/VehicleCAN_INT.c ****     *  None.
 220:Generated_Source\PSoC5/VehicleCAN_INT.c ****     *
 221:Generated_Source\PSoC5/VehicleCAN_INT.c ****     * Reentrant:
 222:Generated_Source\PSoC5/VehicleCAN_INT.c ****     *  Depends on Customer code.
 223:Generated_Source\PSoC5/VehicleCAN_INT.c ****     *
 224:Generated_Source\PSoC5/VehicleCAN_INT.c ****     *******************************************************************************/
 225:Generated_Source\PSoC5/VehicleCAN_INT.c ****     void VehicleCAN_MsgErrorIsr(void) 
 226:Generated_Source\PSoC5/VehicleCAN_INT.c ****     {
 227:Generated_Source\PSoC5/VehicleCAN_INT.c ****         /* Clear Form Error flag */
 228:Generated_Source\PSoC5/VehicleCAN_INT.c ****         VehicleCAN_INT_SR_REG.byte[0u] = VehicleCAN_FORM_ERROR_MASK;
 229:Generated_Source\PSoC5/VehicleCAN_INT.c **** 
 230:Generated_Source\PSoC5/VehicleCAN_INT.c ****         /* `#START MESSAGE_ERROR_ISR` */
 231:Generated_Source\PSoC5/VehicleCAN_INT.c **** 
 232:Generated_Source\PSoC5/VehicleCAN_INT.c ****         /* `#END` */
 233:Generated_Source\PSoC5/VehicleCAN_INT.c **** 
 234:Generated_Source\PSoC5/VehicleCAN_INT.c ****         #ifdef VehicleCAN_MSG_ERROR_ISR_CALLBACK
 235:Generated_Source\PSoC5/VehicleCAN_INT.c ****             VehicleCAN_MsgErrorIsr_Callback();
 236:Generated_Source\PSoC5/VehicleCAN_INT.c ****         #endif /* VehicleCAN_MSG_ERROR_ISR_CALLBACK */
 237:Generated_Source\PSoC5/VehicleCAN_INT.c ****     }
 238:Generated_Source\PSoC5/VehicleCAN_INT.c **** #endif /* VehicleCAN_FORM_ERR */
 239:Generated_Source\PSoC5/VehicleCAN_INT.c **** 
 240:Generated_Source\PSoC5/VehicleCAN_INT.c **** 
 241:Generated_Source\PSoC5/VehicleCAN_INT.c **** #if (VehicleCAN_CRC_ERR)
 242:Generated_Source\PSoC5/VehicleCAN_INT.c ****     /*******************************************************************************
 243:Generated_Source\PSoC5/VehicleCAN_INT.c ****     * FUNCTION NAME:   VehicleCAN_CrcErrorIsr
 244:Generated_Source\PSoC5/VehicleCAN_INT.c ****     ********************************************************************************
 245:Generated_Source\PSoC5/VehicleCAN_INT.c ****     *
 246:Generated_Source\PSoC5/VehicleCAN_INT.c ****     * Summary:
 247:Generated_Source\PSoC5/VehicleCAN_INT.c ****     *  This function is entry point to CRC Error Interrupt. Clears CRC Error
 248:Generated_Source\PSoC5/VehicleCAN_INT.c ****     *  interrupt flag. Only generated if CRC Error Interrupt enable in Customizer.
 249:Generated_Source\PSoC5/VehicleCAN_INT.c ****     *
 250:Generated_Source\PSoC5/VehicleCAN_INT.c ****     * Parameters:
 251:Generated_Source\PSoC5/VehicleCAN_INT.c ****     *  None.
 252:Generated_Source\PSoC5/VehicleCAN_INT.c ****     *
 253:Generated_Source\PSoC5/VehicleCAN_INT.c ****     * Return:
 254:Generated_Source\PSoC5/VehicleCAN_INT.c ****     *  None.
 255:Generated_Source\PSoC5/VehicleCAN_INT.c ****     *
 256:Generated_Source\PSoC5/VehicleCAN_INT.c ****     * Reentrant:
 257:Generated_Source\PSoC5/VehicleCAN_INT.c ****     *  Depends on Customer code.
 258:Generated_Source\PSoC5/VehicleCAN_INT.c ****     *
ARM GAS  C:\Users\bchir\AppData\Local\Temp\ccoLzTcj.s 			page 6


 259:Generated_Source\PSoC5/VehicleCAN_INT.c ****     *******************************************************************************/
 260:Generated_Source\PSoC5/VehicleCAN_INT.c ****     void VehicleCAN_CrcErrorIsr(void) 
 261:Generated_Source\PSoC5/VehicleCAN_INT.c ****     {
 262:Generated_Source\PSoC5/VehicleCAN_INT.c ****         /* Clear CRC Error flag */
 263:Generated_Source\PSoC5/VehicleCAN_INT.c ****         VehicleCAN_INT_SR_REG.byte[1u] = VehicleCAN_CRC_ERROR_MASK;
 264:Generated_Source\PSoC5/VehicleCAN_INT.c **** 
 265:Generated_Source\PSoC5/VehicleCAN_INT.c ****         /* `#START CRC_ERROR_ISR` */
 266:Generated_Source\PSoC5/VehicleCAN_INT.c **** 
 267:Generated_Source\PSoC5/VehicleCAN_INT.c ****         /* `#END` */
 268:Generated_Source\PSoC5/VehicleCAN_INT.c **** 
 269:Generated_Source\PSoC5/VehicleCAN_INT.c ****         #ifdef VehicleCAN_CRC_ERROR_ISR_CALLBACK
 270:Generated_Source\PSoC5/VehicleCAN_INT.c ****             VehicleCAN_CrcErrorIsr_Callback();
 271:Generated_Source\PSoC5/VehicleCAN_INT.c ****         #endif /* VehicleCAN_CRC_ERROR_ISR_CALLBACK */
 272:Generated_Source\PSoC5/VehicleCAN_INT.c ****     }
 273:Generated_Source\PSoC5/VehicleCAN_INT.c **** #endif /* VehicleCAN_CRC_ERR */
 274:Generated_Source\PSoC5/VehicleCAN_INT.c **** 
 275:Generated_Source\PSoC5/VehicleCAN_INT.c **** 
 276:Generated_Source\PSoC5/VehicleCAN_INT.c **** #if (VehicleCAN_BUS_OFF)
 277:Generated_Source\PSoC5/VehicleCAN_INT.c ****     /*******************************************************************************
 278:Generated_Source\PSoC5/VehicleCAN_INT.c ****     * FUNCTION NAME:   VehicleCAN_BusOffIsr
 279:Generated_Source\PSoC5/VehicleCAN_INT.c ****     ********************************************************************************
 280:Generated_Source\PSoC5/VehicleCAN_INT.c ****     *
 281:Generated_Source\PSoC5/VehicleCAN_INT.c ****     * Summary:
 282:Generated_Source\PSoC5/VehicleCAN_INT.c ****     *  This function is entry point to Bus Off Interrupt. Places CAN Component
 283:Generated_Source\PSoC5/VehicleCAN_INT.c ****     *  to Stop mode. Only generated if Bus Off Interrupt enable in Customizer.
 284:Generated_Source\PSoC5/VehicleCAN_INT.c ****     *  Recommended setting to enable this interrupt.
 285:Generated_Source\PSoC5/VehicleCAN_INT.c ****     *
 286:Generated_Source\PSoC5/VehicleCAN_INT.c ****     * Parameters:
 287:Generated_Source\PSoC5/VehicleCAN_INT.c ****     *  None.
 288:Generated_Source\PSoC5/VehicleCAN_INT.c ****     *
 289:Generated_Source\PSoC5/VehicleCAN_INT.c ****     * Return:
 290:Generated_Source\PSoC5/VehicleCAN_INT.c ****     *  None.
 291:Generated_Source\PSoC5/VehicleCAN_INT.c ****     *
 292:Generated_Source\PSoC5/VehicleCAN_INT.c ****     * Side Effects:
 293:Generated_Source\PSoC5/VehicleCAN_INT.c ****     *  Stops CAN component operation.
 294:Generated_Source\PSoC5/VehicleCAN_INT.c ****     *
 295:Generated_Source\PSoC5/VehicleCAN_INT.c ****     *******************************************************************************/
 296:Generated_Source\PSoC5/VehicleCAN_INT.c ****     void VehicleCAN_BusOffIsr(void) 
 297:Generated_Source\PSoC5/VehicleCAN_INT.c ****     {
  28              		.loc 1 297 0
  29              		.cfi_startproc
  30              		@ args = 0, pretend = 0, frame = 0
  31              		@ frame_needed = 0, uses_anonymous_args = 0
  32 0000 08B5     		push	{r3, lr}
  33              		.cfi_def_cfa_offset 8
  34              		.cfi_offset 3, -8
  35              		.cfi_offset 14, -4
 298:Generated_Source\PSoC5/VehicleCAN_INT.c ****         /* Clear Bus Off flag */
 299:Generated_Source\PSoC5/VehicleCAN_INT.c ****         VehicleCAN_INT_SR_REG.byte[1u] = VehicleCAN_BUS_OFF_MASK;
  36              		.loc 1 299 0
  37 0002 0222     		movs	r2, #2
  38 0004 034B     		ldr	r3, .L3
  39 0006 5A70     		strb	r2, [r3, #1]
 300:Generated_Source\PSoC5/VehicleCAN_INT.c ****         (void) VehicleCAN_GlobalIntDisable();
  40              		.loc 1 300 0
  41 0008 FFF7FEFF 		bl	VehicleCAN_GlobalIntDisable
  42              	.LVL0:
ARM GAS  C:\Users\bchir\AppData\Local\Temp\ccoLzTcj.s 			page 7


 301:Generated_Source\PSoC5/VehicleCAN_INT.c **** 
 302:Generated_Source\PSoC5/VehicleCAN_INT.c ****         /* `#START BUS_OFF_ISR` */
 303:Generated_Source\PSoC5/VehicleCAN_INT.c **** 
 304:Generated_Source\PSoC5/VehicleCAN_INT.c ****         /* `#END` */
 305:Generated_Source\PSoC5/VehicleCAN_INT.c **** 
 306:Generated_Source\PSoC5/VehicleCAN_INT.c ****         #ifdef VehicleCAN_BUS_OFF_ISR_CALLBACK
 307:Generated_Source\PSoC5/VehicleCAN_INT.c ****             VehicleCAN_BusOffIsr_Callback();
 308:Generated_Source\PSoC5/VehicleCAN_INT.c ****         #endif /* VehicleCAN_BUS_OFF_ISR_CALLBACK */
 309:Generated_Source\PSoC5/VehicleCAN_INT.c **** 
 310:Generated_Source\PSoC5/VehicleCAN_INT.c ****         (void) VehicleCAN_Stop();
  43              		.loc 1 310 0
  44 000c FFF7FEFF 		bl	VehicleCAN_Stop
  45              	.LVL1:
  46 0010 08BD     		pop	{r3, pc}
  47              	.L4:
  48 0012 00BF     		.align	2
  49              	.L3:
  50 0014 00A00040 		.word	1073782784
  51              		.cfi_endproc
  52              	.LFE0:
  53              		.size	VehicleCAN_BusOffIsr, .-VehicleCAN_BusOffIsr
  54              		.section	.text.VehicleCAN_MsgLostIsr,"ax",%progbits
  55              		.align	2
  56              		.global	VehicleCAN_MsgLostIsr
  57              		.thumb
  58              		.thumb_func
  59              		.type	VehicleCAN_MsgLostIsr, %function
  60              	VehicleCAN_MsgLostIsr:
  61              	.LFB1:
 311:Generated_Source\PSoC5/VehicleCAN_INT.c ****     }
 312:Generated_Source\PSoC5/VehicleCAN_INT.c **** #endif /* VehicleCAN_BUS_OFF */
 313:Generated_Source\PSoC5/VehicleCAN_INT.c **** 
 314:Generated_Source\PSoC5/VehicleCAN_INT.c **** 
 315:Generated_Source\PSoC5/VehicleCAN_INT.c **** #if (VehicleCAN_RX_MSG_LOST)
 316:Generated_Source\PSoC5/VehicleCAN_INT.c ****     /*******************************************************************************
 317:Generated_Source\PSoC5/VehicleCAN_INT.c ****     * FUNCTION NAME:   VehicleCAN_MsgLostIsr
 318:Generated_Source\PSoC5/VehicleCAN_INT.c ****     ********************************************************************************
 319:Generated_Source\PSoC5/VehicleCAN_INT.c ****     *
 320:Generated_Source\PSoC5/VehicleCAN_INT.c ****     * Summary:
 321:Generated_Source\PSoC5/VehicleCAN_INT.c ****     *  This function is entry point to Message Lost Interrupt. Clears Message Lost
 322:Generated_Source\PSoC5/VehicleCAN_INT.c ****     *  interrupt flag. Only generated if Message Lost Interrupt enable in Customizer
 323:Generated_Source\PSoC5/VehicleCAN_INT.c ****     *
 324:Generated_Source\PSoC5/VehicleCAN_INT.c ****     * Parameters:
 325:Generated_Source\PSoC5/VehicleCAN_INT.c ****     *  None.
 326:Generated_Source\PSoC5/VehicleCAN_INT.c ****     *
 327:Generated_Source\PSoC5/VehicleCAN_INT.c ****     * Return:
 328:Generated_Source\PSoC5/VehicleCAN_INT.c ****     *  None.
 329:Generated_Source\PSoC5/VehicleCAN_INT.c ****     *
 330:Generated_Source\PSoC5/VehicleCAN_INT.c ****     * Reentrant:
 331:Generated_Source\PSoC5/VehicleCAN_INT.c ****     *  Depends on Customer code.
 332:Generated_Source\PSoC5/VehicleCAN_INT.c ****     *
 333:Generated_Source\PSoC5/VehicleCAN_INT.c ****     *******************************************************************************/
 334:Generated_Source\PSoC5/VehicleCAN_INT.c ****     void VehicleCAN_MsgLostIsr(void) 
 335:Generated_Source\PSoC5/VehicleCAN_INT.c ****     {
  62              		.loc 1 335 0
  63              		.cfi_startproc
  64              		@ args = 0, pretend = 0, frame = 0
ARM GAS  C:\Users\bchir\AppData\Local\Temp\ccoLzTcj.s 			page 8


  65              		@ frame_needed = 0, uses_anonymous_args = 0
  66              		@ link register save eliminated.
 336:Generated_Source\PSoC5/VehicleCAN_INT.c ****         /* Clear Receive Message Lost flag */
 337:Generated_Source\PSoC5/VehicleCAN_INT.c ****         VehicleCAN_INT_SR_REG.byte[1u] = VehicleCAN_RX_MSG_LOST_MASK;
  67              		.loc 1 337 0
  68 0000 0422     		movs	r2, #4
  69 0002 014B     		ldr	r3, .L6
  70 0004 5A70     		strb	r2, [r3, #1]
  71 0006 7047     		bx	lr
  72              	.L7:
  73              		.align	2
  74              	.L6:
  75 0008 00A00040 		.word	1073782784
  76              		.cfi_endproc
  77              	.LFE1:
  78              		.size	VehicleCAN_MsgLostIsr, .-VehicleCAN_MsgLostIsr
  79              		.section	.text.VehicleCAN_MsgRXIsr,"ax",%progbits
  80              		.align	2
  81              		.global	VehicleCAN_MsgRXIsr
  82              		.thumb
  83              		.thumb_func
  84              		.type	VehicleCAN_MsgRXIsr, %function
  85              	VehicleCAN_MsgRXIsr:
  86              	.LFB2:
 338:Generated_Source\PSoC5/VehicleCAN_INT.c **** 
 339:Generated_Source\PSoC5/VehicleCAN_INT.c ****         /* `#START MESSAGE_LOST_ISR` */
 340:Generated_Source\PSoC5/VehicleCAN_INT.c **** 
 341:Generated_Source\PSoC5/VehicleCAN_INT.c ****         /* `#END` */
 342:Generated_Source\PSoC5/VehicleCAN_INT.c **** 
 343:Generated_Source\PSoC5/VehicleCAN_INT.c ****         #ifdef VehicleCAN_MSG_LOST_ISR_CALLBACK
 344:Generated_Source\PSoC5/VehicleCAN_INT.c ****             VehicleCAN_MsgLostIsr_Callback();
 345:Generated_Source\PSoC5/VehicleCAN_INT.c ****         #endif /* VehicleCAN_MSG_LOST_ISR_CALLBACK */
 346:Generated_Source\PSoC5/VehicleCAN_INT.c ****     }
 347:Generated_Source\PSoC5/VehicleCAN_INT.c **** #endif /* VehicleCAN_RX_MSG_LOST */
 348:Generated_Source\PSoC5/VehicleCAN_INT.c **** 
 349:Generated_Source\PSoC5/VehicleCAN_INT.c **** 
 350:Generated_Source\PSoC5/VehicleCAN_INT.c **** #if (VehicleCAN_TX_MESSAGE)
 351:Generated_Source\PSoC5/VehicleCAN_INT.c ****     /*******************************************************************************
 352:Generated_Source\PSoC5/VehicleCAN_INT.c ****     * FUNCTION NAME:   VehicleCAN_MsgTXIsr
 353:Generated_Source\PSoC5/VehicleCAN_INT.c ****     ********************************************************************************
 354:Generated_Source\PSoC5/VehicleCAN_INT.c ****     *
 355:Generated_Source\PSoC5/VehicleCAN_INT.c ****     * Summary:
 356:Generated_Source\PSoC5/VehicleCAN_INT.c ****     *  This function is entry point to Transmit Message Interrupt. Clears Transmit
 357:Generated_Source\PSoC5/VehicleCAN_INT.c ****     *  Message interrupt flag. Only generated if Transmit Message Interrupt enable
 358:Generated_Source\PSoC5/VehicleCAN_INT.c ****     *  in Customizer.
 359:Generated_Source\PSoC5/VehicleCAN_INT.c ****     *
 360:Generated_Source\PSoC5/VehicleCAN_INT.c ****     * Parameters:
 361:Generated_Source\PSoC5/VehicleCAN_INT.c ****     *  None.
 362:Generated_Source\PSoC5/VehicleCAN_INT.c ****     *
 363:Generated_Source\PSoC5/VehicleCAN_INT.c ****     * Return:
 364:Generated_Source\PSoC5/VehicleCAN_INT.c ****     *  None.
 365:Generated_Source\PSoC5/VehicleCAN_INT.c ****     *
 366:Generated_Source\PSoC5/VehicleCAN_INT.c ****     * Reentrant:
 367:Generated_Source\PSoC5/VehicleCAN_INT.c ****     *  Depends on Customer code.
 368:Generated_Source\PSoC5/VehicleCAN_INT.c ****     *
 369:Generated_Source\PSoC5/VehicleCAN_INT.c ****     *******************************************************************************/
 370:Generated_Source\PSoC5/VehicleCAN_INT.c ****     void VehicleCAN_MsgTXIsr(void) 
ARM GAS  C:\Users\bchir\AppData\Local\Temp\ccoLzTcj.s 			page 9


 371:Generated_Source\PSoC5/VehicleCAN_INT.c ****     {
 372:Generated_Source\PSoC5/VehicleCAN_INT.c ****         /* Clear Transmit Message flag */
 373:Generated_Source\PSoC5/VehicleCAN_INT.c ****         VehicleCAN_INT_SR_REG.byte[1u] = VehicleCAN_TX_MESSAGE_MASK;
 374:Generated_Source\PSoC5/VehicleCAN_INT.c **** 
 375:Generated_Source\PSoC5/VehicleCAN_INT.c ****         /* `#START MESSAGE_TRANSMITTED_ISR` */
 376:Generated_Source\PSoC5/VehicleCAN_INT.c **** 
 377:Generated_Source\PSoC5/VehicleCAN_INT.c ****         /* `#END` */
 378:Generated_Source\PSoC5/VehicleCAN_INT.c **** 
 379:Generated_Source\PSoC5/VehicleCAN_INT.c ****         #ifdef VehicleCAN_MSG_TX_ISR_CALLBACK
 380:Generated_Source\PSoC5/VehicleCAN_INT.c ****             VehicleCAN_MsgTXIsr_Callback();
 381:Generated_Source\PSoC5/VehicleCAN_INT.c ****         #endif /* VehicleCAN_MSG_TX_ISR_CALLBACK */
 382:Generated_Source\PSoC5/VehicleCAN_INT.c ****     }
 383:Generated_Source\PSoC5/VehicleCAN_INT.c **** #endif /* VehicleCAN_TX_MESSAGE */
 384:Generated_Source\PSoC5/VehicleCAN_INT.c **** 
 385:Generated_Source\PSoC5/VehicleCAN_INT.c **** 
 386:Generated_Source\PSoC5/VehicleCAN_INT.c **** #if (VehicleCAN_RX_MESSAGE)
 387:Generated_Source\PSoC5/VehicleCAN_INT.c ****     /*******************************************************************************
 388:Generated_Source\PSoC5/VehicleCAN_INT.c ****     * FUNCTION NAME:   VehicleCAN_MsgRXIsr
 389:Generated_Source\PSoC5/VehicleCAN_INT.c ****     ********************************************************************************
 390:Generated_Source\PSoC5/VehicleCAN_INT.c ****     *
 391:Generated_Source\PSoC5/VehicleCAN_INT.c ****     * Summary:
 392:Generated_Source\PSoC5/VehicleCAN_INT.c ****     *  This function is entry point to Receive Message Interrupt. Clears Receive
 393:Generated_Source\PSoC5/VehicleCAN_INT.c ****     *  Message interrupt flag and call appropriate handlers for Basic and Full
 394:Generated_Source\PSoC5/VehicleCAN_INT.c ****     *  interrupt based mailboxes. Only generated if Receive Message Interrupt
 395:Generated_Source\PSoC5/VehicleCAN_INT.c ****     *  enable in Customizer. Recommended setting to enable this interrupt.
 396:Generated_Source\PSoC5/VehicleCAN_INT.c ****     *
 397:Generated_Source\PSoC5/VehicleCAN_INT.c ****     * Parameters:
 398:Generated_Source\PSoC5/VehicleCAN_INT.c ****     *  None.
 399:Generated_Source\PSoC5/VehicleCAN_INT.c ****     *
 400:Generated_Source\PSoC5/VehicleCAN_INT.c ****     * Return:
 401:Generated_Source\PSoC5/VehicleCAN_INT.c ****     *  None.
 402:Generated_Source\PSoC5/VehicleCAN_INT.c ****     *
 403:Generated_Source\PSoC5/VehicleCAN_INT.c ****     *******************************************************************************/
 404:Generated_Source\PSoC5/VehicleCAN_INT.c ****     void VehicleCAN_MsgRXIsr(void) 
 405:Generated_Source\PSoC5/VehicleCAN_INT.c ****     {
  87              		.loc 1 405 0
  88              		.cfi_startproc
  89              		@ args = 0, pretend = 0, frame = 0
  90              		@ frame_needed = 0, uses_anonymous_args = 0
  91 0000 38B5     		push	{r3, r4, r5, lr}
  92              		.cfi_def_cfa_offset 16
  93              		.cfi_offset 3, -16
  94              		.cfi_offset 4, -12
  95              		.cfi_offset 5, -8
  96              		.cfi_offset 14, -4
  97              	.LVL2:
 406:Generated_Source\PSoC5/VehicleCAN_INT.c ****         uint8 mailboxNumber;
 407:Generated_Source\PSoC5/VehicleCAN_INT.c ****         uint16 shift = 0x01u;
 408:Generated_Source\PSoC5/VehicleCAN_INT.c **** 
 409:Generated_Source\PSoC5/VehicleCAN_INT.c ****         /* Clear Receive Message flag */
 410:Generated_Source\PSoC5/VehicleCAN_INT.c ****         VehicleCAN_INT_SR_REG.byte[1u] = VehicleCAN_RX_MESSAGE_MASK;
  98              		.loc 1 410 0
  99 0002 1022     		movs	r2, #16
 100 0004 0C4B     		ldr	r3, .L13
 101 0006 5A70     		strb	r2, [r3, #1]
 102              	.LVL3:
 407:Generated_Source\PSoC5/VehicleCAN_INT.c **** 
ARM GAS  C:\Users\bchir\AppData\Local\Temp\ccoLzTcj.s 			page 10


 103              		.loc 1 407 0
 104 0008 0125     		movs	r5, #1
 411:Generated_Source\PSoC5/VehicleCAN_INT.c **** 
 412:Generated_Source\PSoC5/VehicleCAN_INT.c ****         /* `#START MESSAGE_RECEIVE_ISR` */
 413:Generated_Source\PSoC5/VehicleCAN_INT.c **** 
 414:Generated_Source\PSoC5/VehicleCAN_INT.c ****         /* `#END` */
 415:Generated_Source\PSoC5/VehicleCAN_INT.c **** 
 416:Generated_Source\PSoC5/VehicleCAN_INT.c ****         #ifdef VehicleCAN_MSG_RX_ISR_CALLBACK
 417:Generated_Source\PSoC5/VehicleCAN_INT.c ****             VehicleCAN_MsgRXIsr_Callback();
 418:Generated_Source\PSoC5/VehicleCAN_INT.c ****         #endif /* VehicleCAN_MSG_RX_ISR_CALLBACK */
 419:Generated_Source\PSoC5/VehicleCAN_INT.c **** 
 420:Generated_Source\PSoC5/VehicleCAN_INT.c ****         for (mailboxNumber = 0u; mailboxNumber < VehicleCAN_NUMBER_OF_RX_MAILBOXES; mailboxNumber++
 105              		.loc 1 420 0
 106 000a 0024     		movs	r4, #0
 107 000c 10E0     		b	.L9
 108              	.LVL4:
 109              	.L11:
 421:Generated_Source\PSoC5/VehicleCAN_INT.c ****         {
 422:Generated_Source\PSoC5/VehicleCAN_INT.c ****             if ((CY_GET_REG16((reg16 *) &VehicleCAN_BUF_SR_REG.byte[0u]) & shift) != 0u)
 110              		.loc 1 422 0
 111 000e 0B4B     		ldr	r3, .L13+4
 112 0010 1B88     		ldrh	r3, [r3]
 113 0012 1D42     		tst	r5, r3
 114 0014 08D0     		beq	.L10
 423:Generated_Source\PSoC5/VehicleCAN_INT.c ****             {
 424:Generated_Source\PSoC5/VehicleCAN_INT.c ****                 if ((VehicleCAN_RX[mailboxNumber].rxcmd.byte[0u] & VehicleCAN_RX_INT_ENABLE_MASK) !
 115              		.loc 1 424 0
 116 0016 6301     		lsls	r3, r4, #5
 117 0018 094A     		ldr	r2, .L13+8
 118 001a 9B5C     		ldrb	r3, [r3, r2]	@ zero_extendqisi2
 119 001c 13F0200F 		tst	r3, #32
 120 0020 02D0     		beq	.L10
 425:Generated_Source\PSoC5/VehicleCAN_INT.c ****                 {
 426:Generated_Source\PSoC5/VehicleCAN_INT.c ****                     if ((VehicleCAN_RX_MAILBOX_TYPE & shift) != 0u)
 427:Generated_Source\PSoC5/VehicleCAN_INT.c ****                     {
 428:Generated_Source\PSoC5/VehicleCAN_INT.c ****                         /* RX Full mailboxes handler */
 429:Generated_Source\PSoC5/VehicleCAN_INT.c ****                     }
 430:Generated_Source\PSoC5/VehicleCAN_INT.c ****                     else
 431:Generated_Source\PSoC5/VehicleCAN_INT.c ****                     {
 432:Generated_Source\PSoC5/VehicleCAN_INT.c ****                         /* RX Basic mailbox handler */
 433:Generated_Source\PSoC5/VehicleCAN_INT.c ****                         VehicleCAN_ReceiveMsg(mailboxNumber);
 121              		.loc 1 433 0
 122 0022 2046     		mov	r0, r4
 123 0024 FFF7FEFF 		bl	VehicleCAN_ReceiveMsg
 124              	.LVL5:
 125              	.L10:
 434:Generated_Source\PSoC5/VehicleCAN_INT.c ****                     }
 435:Generated_Source\PSoC5/VehicleCAN_INT.c ****                 }
 436:Generated_Source\PSoC5/VehicleCAN_INT.c ****             }
 437:Generated_Source\PSoC5/VehicleCAN_INT.c ****             shift <<= 1u;
 126              		.loc 1 437 0 discriminator 2
 127 0028 6D00     		lsls	r5, r5, #1
 128              	.LVL6:
 129 002a ADB2     		uxth	r5, r5
 130              	.LVL7:
 420:Generated_Source\PSoC5/VehicleCAN_INT.c ****         {
 131              		.loc 1 420 0 discriminator 2
ARM GAS  C:\Users\bchir\AppData\Local\Temp\ccoLzTcj.s 			page 11


 132 002c 0134     		adds	r4, r4, #1
 133              	.LVL8:
 134 002e E4B2     		uxtb	r4, r4
 135              	.LVL9:
 136              	.L9:
 420:Generated_Source\PSoC5/VehicleCAN_INT.c ****         {
 137              		.loc 1 420 0 is_stmt 0 discriminator 1
 138 0030 0F2C     		cmp	r4, #15
 139 0032 ECD9     		bls	.L11
 438:Generated_Source\PSoC5/VehicleCAN_INT.c ****         }
 439:Generated_Source\PSoC5/VehicleCAN_INT.c ****     }
 140              		.loc 1 439 0 is_stmt 1
 141 0034 38BD     		pop	{r3, r4, r5, pc}
 142              	.LVL10:
 143              	.L14:
 144 0036 00BF     		.align	2
 145              	.L13:
 146 0038 00A00040 		.word	1073782784
 147 003c 08A00040 		.word	1073782792
 148 0040 A0A00040 		.word	1073782944
 149              		.cfi_endproc
 150              	.LFE2:
 151              		.size	VehicleCAN_MsgRXIsr, .-VehicleCAN_MsgRXIsr
 152              		.section	.text.VehicleCAN_ISR,"ax",%progbits
 153              		.align	2
 154              		.global	VehicleCAN_ISR
 155              		.thumb
 156              		.thumb_func
 157              		.type	VehicleCAN_ISR, %function
 158              	VehicleCAN_ISR:
 159              	.LFB3:
 440:Generated_Source\PSoC5/VehicleCAN_INT.c **** #endif /* VehicleCAN_RX_MESSAGE */
 441:Generated_Source\PSoC5/VehicleCAN_INT.c **** 
 442:Generated_Source\PSoC5/VehicleCAN_INT.c **** 
 443:Generated_Source\PSoC5/VehicleCAN_INT.c **** /*******************************************************************************
 444:Generated_Source\PSoC5/VehicleCAN_INT.c **** * Function Name: VehicleCAN_ISR
 445:Generated_Source\PSoC5/VehicleCAN_INT.c **** ********************************************************************************
 446:Generated_Source\PSoC5/VehicleCAN_INT.c **** *
 447:Generated_Source\PSoC5/VehicleCAN_INT.c **** * Summary:
 448:Generated_Source\PSoC5/VehicleCAN_INT.c **** *  This ISR is executed when CAN Core generates and interrupt on one of events:
 449:Generated_Source\PSoC5/VehicleCAN_INT.c **** *  Arb_lost, Overload, Bit_err, Stuff_err, Ack_err, Form_err, Crc_err,
 450:Generated_Source\PSoC5/VehicleCAN_INT.c **** *  Buss_off, Rx_msg_lost, Tx_msg or Rx_msg. The interrupt sources depends
 451:Generated_Source\PSoC5/VehicleCAN_INT.c **** *  on the Customizer inputs.
 452:Generated_Source\PSoC5/VehicleCAN_INT.c **** *
 453:Generated_Source\PSoC5/VehicleCAN_INT.c **** * Parameters:
 454:Generated_Source\PSoC5/VehicleCAN_INT.c **** *  None.
 455:Generated_Source\PSoC5/VehicleCAN_INT.c **** *
 456:Generated_Source\PSoC5/VehicleCAN_INT.c **** * Return:
 457:Generated_Source\PSoC5/VehicleCAN_INT.c **** *  None.
 458:Generated_Source\PSoC5/VehicleCAN_INT.c **** *
 459:Generated_Source\PSoC5/VehicleCAN_INT.c **** *******************************************************************************/
 460:Generated_Source\PSoC5/VehicleCAN_INT.c **** CY_ISR(VehicleCAN_ISR)
 461:Generated_Source\PSoC5/VehicleCAN_INT.c **** {
 160              		.loc 1 461 0
 161              		.cfi_startproc
 162              		@ args = 0, pretend = 0, frame = 0
 163              		@ frame_needed = 0, uses_anonymous_args = 0
ARM GAS  C:\Users\bchir\AppData\Local\Temp\ccoLzTcj.s 			page 12


 164 0000 08B5     		push	{r3, lr}
 165              		.cfi_def_cfa_offset 8
 166              		.cfi_offset 3, -8
 167              		.cfi_offset 14, -4
 462:Generated_Source\PSoC5/VehicleCAN_INT.c ****     #ifdef VehicleCAN_ISR_INTERRUPT_CALLBACK
 463:Generated_Source\PSoC5/VehicleCAN_INT.c ****         VehicleCAN_ISR_InterruptCallback();
 464:Generated_Source\PSoC5/VehicleCAN_INT.c ****     #endif /* VehicleCAN_ISR_INTERRUPT_CALLBACK */
 465:Generated_Source\PSoC5/VehicleCAN_INT.c ****     
 466:Generated_Source\PSoC5/VehicleCAN_INT.c ****     /* Place your Interrupt code here. */
 467:Generated_Source\PSoC5/VehicleCAN_INT.c ****     /* `#START CAN_ISR` */
 468:Generated_Source\PSoC5/VehicleCAN_INT.c **** 
 469:Generated_Source\PSoC5/VehicleCAN_INT.c ****     /* `#END` */
 470:Generated_Source\PSoC5/VehicleCAN_INT.c ****     
 471:Generated_Source\PSoC5/VehicleCAN_INT.c ****     /* Arbitration */
 472:Generated_Source\PSoC5/VehicleCAN_INT.c ****     #if (VehicleCAN_ARB_LOST && (VehicleCAN_ARB_LOST_USE_HELPER || \
 473:Generated_Source\PSoC5/VehicleCAN_INT.c ****         (!VehicleCAN_ADVANCED_INTERRUPT_CFG)))
 474:Generated_Source\PSoC5/VehicleCAN_INT.c ****         if ((VehicleCAN_INT_SR_REG.byte[0u] & VehicleCAN_ARBITRATION_LOST_MASK) != 0u)
 475:Generated_Source\PSoC5/VehicleCAN_INT.c ****         {
 476:Generated_Source\PSoC5/VehicleCAN_INT.c ****             VehicleCAN_ArbLostIsr();
 477:Generated_Source\PSoC5/VehicleCAN_INT.c ****         }
 478:Generated_Source\PSoC5/VehicleCAN_INT.c ****     #endif /* VehicleCAN_ARB_LOST && VehicleCAN_ARB_LOST_USE_HELPER */
 479:Generated_Source\PSoC5/VehicleCAN_INT.c **** 
 480:Generated_Source\PSoC5/VehicleCAN_INT.c ****     /* Overload Error */
 481:Generated_Source\PSoC5/VehicleCAN_INT.c ****     #if (VehicleCAN_OVERLOAD && (VehicleCAN_OVERLOAD_USE_HELPER || \
 482:Generated_Source\PSoC5/VehicleCAN_INT.c ****         (!VehicleCAN_ADVANCED_INTERRUPT_CFG)))
 483:Generated_Source\PSoC5/VehicleCAN_INT.c ****         if ((VehicleCAN_INT_SR_REG.byte[0u] & VehicleCAN_OVERLOAD_ERROR_MASK) != 0u)
 484:Generated_Source\PSoC5/VehicleCAN_INT.c ****         {
 485:Generated_Source\PSoC5/VehicleCAN_INT.c ****             VehicleCAN_OvrLdErrorIsr();
 486:Generated_Source\PSoC5/VehicleCAN_INT.c ****         }
 487:Generated_Source\PSoC5/VehicleCAN_INT.c ****     #endif /* VehicleCAN_OVERLOAD && VehicleCAN_OVERLOAD_USE_HELPER */
 488:Generated_Source\PSoC5/VehicleCAN_INT.c **** 
 489:Generated_Source\PSoC5/VehicleCAN_INT.c ****     /* Bit Error */
 490:Generated_Source\PSoC5/VehicleCAN_INT.c ****     #if (VehicleCAN_BIT_ERR && (VehicleCAN_BIT_ERR_USE_HELPER || \
 491:Generated_Source\PSoC5/VehicleCAN_INT.c ****         (!VehicleCAN_ADVANCED_INTERRUPT_CFG)))
 492:Generated_Source\PSoC5/VehicleCAN_INT.c ****         if ((VehicleCAN_INT_SR_REG.byte[0u] & VehicleCAN_BIT_ERROR_MASK) != 0u)
 493:Generated_Source\PSoC5/VehicleCAN_INT.c ****         {
 494:Generated_Source\PSoC5/VehicleCAN_INT.c ****             VehicleCAN_BitErrorIsr();
 495:Generated_Source\PSoC5/VehicleCAN_INT.c ****         }
 496:Generated_Source\PSoC5/VehicleCAN_INT.c ****     #endif /* VehicleCAN_BIT_ERR && VehicleCAN_BIT_ERR_USE_HELPER */
 497:Generated_Source\PSoC5/VehicleCAN_INT.c **** 
 498:Generated_Source\PSoC5/VehicleCAN_INT.c ****     /* Bit Staff Error */
 499:Generated_Source\PSoC5/VehicleCAN_INT.c ****     #if (VehicleCAN_STUFF_ERR && (VehicleCAN_STUFF_ERR_USE_HELPER || \
 500:Generated_Source\PSoC5/VehicleCAN_INT.c ****         (!VehicleCAN_ADVANCED_INTERRUPT_CFG)))
 501:Generated_Source\PSoC5/VehicleCAN_INT.c ****         if ((VehicleCAN_INT_SR_REG.byte[0u] & VehicleCAN_STUFF_ERROR_MASK) != 0u)
 502:Generated_Source\PSoC5/VehicleCAN_INT.c ****         {
 503:Generated_Source\PSoC5/VehicleCAN_INT.c ****             VehicleCAN_BitStuffErrorIsr();
 504:Generated_Source\PSoC5/VehicleCAN_INT.c ****         }
 505:Generated_Source\PSoC5/VehicleCAN_INT.c ****     #endif /* VehicleCAN_STUFF_ERR && VehicleCAN_STUFF_ERR_USE_HELPER */
 506:Generated_Source\PSoC5/VehicleCAN_INT.c **** 
 507:Generated_Source\PSoC5/VehicleCAN_INT.c ****     /* ACK Error */
 508:Generated_Source\PSoC5/VehicleCAN_INT.c ****     #if (VehicleCAN_ACK_ERR && (VehicleCAN_ACK_ERR_USE_HELPER || \
 509:Generated_Source\PSoC5/VehicleCAN_INT.c ****         (!VehicleCAN_ADVANCED_INTERRUPT_CFG)))
 510:Generated_Source\PSoC5/VehicleCAN_INT.c ****         if ((VehicleCAN_INT_SR_REG.byte[0u] & VehicleCAN_ACK_ERROR_MASK) != 0u)
 511:Generated_Source\PSoC5/VehicleCAN_INT.c ****         {
 512:Generated_Source\PSoC5/VehicleCAN_INT.c ****             VehicleCAN_AckErrorIsr();
 513:Generated_Source\PSoC5/VehicleCAN_INT.c ****         }
 514:Generated_Source\PSoC5/VehicleCAN_INT.c ****     #endif /* VehicleCAN_ACK_ERR && VehicleCAN_ACK_ERR_USE_HELPER */
ARM GAS  C:\Users\bchir\AppData\Local\Temp\ccoLzTcj.s 			page 13


 515:Generated_Source\PSoC5/VehicleCAN_INT.c **** 
 516:Generated_Source\PSoC5/VehicleCAN_INT.c ****     /* Form(msg) Error */
 517:Generated_Source\PSoC5/VehicleCAN_INT.c ****     #if (VehicleCAN_FORM_ERR && (VehicleCAN_FORM_ERR_USE_HELPER || \
 518:Generated_Source\PSoC5/VehicleCAN_INT.c ****         (!VehicleCAN_ADVANCED_INTERRUPT_CFG)))
 519:Generated_Source\PSoC5/VehicleCAN_INT.c ****         if ((VehicleCAN_INT_SR_REG.byte[0u] & VehicleCAN_FORM_ERROR_MASK) != 0u)
 520:Generated_Source\PSoC5/VehicleCAN_INT.c ****         {
 521:Generated_Source\PSoC5/VehicleCAN_INT.c ****             VehicleCAN_MsgErrorIsr();
 522:Generated_Source\PSoC5/VehicleCAN_INT.c ****         }
 523:Generated_Source\PSoC5/VehicleCAN_INT.c ****     #endif /* VehicleCAN_FORM_ERR && VehicleCAN_FORM_ERR_USE_HELPER */
 524:Generated_Source\PSoC5/VehicleCAN_INT.c **** 
 525:Generated_Source\PSoC5/VehicleCAN_INT.c ****     /* CRC Error */
 526:Generated_Source\PSoC5/VehicleCAN_INT.c ****     #if (VehicleCAN_CRC_ERR && (VehicleCAN_CRC_ERR_USE_HELPER || \
 527:Generated_Source\PSoC5/VehicleCAN_INT.c ****         (!VehicleCAN_ADVANCED_INTERRUPT_CFG)))
 528:Generated_Source\PSoC5/VehicleCAN_INT.c ****         if ((VehicleCAN_INT_SR_REG.byte[1u] & VehicleCAN_CRC_ERROR_MASK) != 0u)
 529:Generated_Source\PSoC5/VehicleCAN_INT.c ****         {
 530:Generated_Source\PSoC5/VehicleCAN_INT.c ****             VehicleCAN_CrcErrorIsr();
 531:Generated_Source\PSoC5/VehicleCAN_INT.c ****         }
 532:Generated_Source\PSoC5/VehicleCAN_INT.c ****     #endif /* VehicleCAN_CRC_ERR && VehicleCAN_CRC_ERR_USE_HELPER */
 533:Generated_Source\PSoC5/VehicleCAN_INT.c **** 
 534:Generated_Source\PSoC5/VehicleCAN_INT.c ****     /* Bus Off state */
 535:Generated_Source\PSoC5/VehicleCAN_INT.c ****     #if (VehicleCAN_BUS_OFF && (VehicleCAN_BUS_OFF_USE_HELPER || \
 536:Generated_Source\PSoC5/VehicleCAN_INT.c ****         (!VehicleCAN_ADVANCED_INTERRUPT_CFG)))
 537:Generated_Source\PSoC5/VehicleCAN_INT.c ****         if ((VehicleCAN_INT_SR_REG.byte[1u] & VehicleCAN_BUS_OFF_MASK) != 0u)
 168              		.loc 1 537 0
 169 0002 0B4B     		ldr	r3, .L20
 170 0004 5B78     		ldrb	r3, [r3, #1]	@ zero_extendqisi2
 171 0006 13F0020F 		tst	r3, #2
 172 000a 01D0     		beq	.L16
 538:Generated_Source\PSoC5/VehicleCAN_INT.c ****         {
 539:Generated_Source\PSoC5/VehicleCAN_INT.c ****             VehicleCAN_BusOffIsr();
 173              		.loc 1 539 0
 174 000c FFF7FEFF 		bl	VehicleCAN_BusOffIsr
 175              	.LVL11:
 176              	.L16:
 540:Generated_Source\PSoC5/VehicleCAN_INT.c ****         }
 541:Generated_Source\PSoC5/VehicleCAN_INT.c ****     #endif /* VehicleCAN_BUS_OFF && VehicleCAN_BUS_OFF_USE_HELPER */
 542:Generated_Source\PSoC5/VehicleCAN_INT.c **** 
 543:Generated_Source\PSoC5/VehicleCAN_INT.c ****     /* Message Lost */
 544:Generated_Source\PSoC5/VehicleCAN_INT.c ****     #if (VehicleCAN_RX_MSG_LOST && (VehicleCAN_RX_MSG_LOST_USE_HELPER || \
 545:Generated_Source\PSoC5/VehicleCAN_INT.c ****         (!VehicleCAN_ADVANCED_INTERRUPT_CFG)))
 546:Generated_Source\PSoC5/VehicleCAN_INT.c ****         if ((VehicleCAN_INT_SR_REG.byte[1u] & VehicleCAN_RX_MSG_LOST_MASK) != 0u)
 177              		.loc 1 546 0
 178 0010 074B     		ldr	r3, .L20
 179 0012 5B78     		ldrb	r3, [r3, #1]	@ zero_extendqisi2
 180 0014 13F0040F 		tst	r3, #4
 181 0018 01D0     		beq	.L17
 547:Generated_Source\PSoC5/VehicleCAN_INT.c ****         {
 548:Generated_Source\PSoC5/VehicleCAN_INT.c ****             VehicleCAN_MsgLostIsr();
 182              		.loc 1 548 0
 183 001a FFF7FEFF 		bl	VehicleCAN_MsgLostIsr
 184              	.LVL12:
 185              	.L17:
 549:Generated_Source\PSoC5/VehicleCAN_INT.c ****         }
 550:Generated_Source\PSoC5/VehicleCAN_INT.c ****     #endif /* VehicleCAN_RX_MSG_LOST && VehicleCAN_RX_MSG_LOST_USE_HELPER */
 551:Generated_Source\PSoC5/VehicleCAN_INT.c **** 
 552:Generated_Source\PSoC5/VehicleCAN_INT.c ****     /* TX Message Send */
 553:Generated_Source\PSoC5/VehicleCAN_INT.c ****     #if (VehicleCAN_TX_MESSAGE && (VehicleCAN_TX_MESSAGE_USE_HELPER || \
ARM GAS  C:\Users\bchir\AppData\Local\Temp\ccoLzTcj.s 			page 14


 554:Generated_Source\PSoC5/VehicleCAN_INT.c ****         (!VehicleCAN_ADVANCED_INTERRUPT_CFG)))
 555:Generated_Source\PSoC5/VehicleCAN_INT.c ****         if ((VehicleCAN_INT_SR_REG.byte[1u] & VehicleCAN_TX_MESSAGE_MASK) != 0u)
 556:Generated_Source\PSoC5/VehicleCAN_INT.c ****         {
 557:Generated_Source\PSoC5/VehicleCAN_INT.c ****             VehicleCAN_MsgTXIsr();
 558:Generated_Source\PSoC5/VehicleCAN_INT.c ****         }
 559:Generated_Source\PSoC5/VehicleCAN_INT.c ****     #endif /* VehicleCAN_TX_MESSAGE && VehicleCAN_TX_MESSAGE_USE_HELPER */
 560:Generated_Source\PSoC5/VehicleCAN_INT.c **** 
 561:Generated_Source\PSoC5/VehicleCAN_INT.c ****     /* RX Message Available */
 562:Generated_Source\PSoC5/VehicleCAN_INT.c ****     #if (VehicleCAN_RX_MESSAGE && (VehicleCAN_RX_MESSAGE_USE_HELPER || \
 563:Generated_Source\PSoC5/VehicleCAN_INT.c ****         (!VehicleCAN_ADVANCED_INTERRUPT_CFG)))
 564:Generated_Source\PSoC5/VehicleCAN_INT.c ****         if ((VehicleCAN_INT_SR_REG.byte[1u] & VehicleCAN_RX_MESSAGE_MASK) != 0u)
 186              		.loc 1 564 0
 187 001e 044B     		ldr	r3, .L20
 188 0020 5B78     		ldrb	r3, [r3, #1]	@ zero_extendqisi2
 189 0022 13F0100F 		tst	r3, #16
 190 0026 01D0     		beq	.L15
 565:Generated_Source\PSoC5/VehicleCAN_INT.c ****         {
 566:Generated_Source\PSoC5/VehicleCAN_INT.c ****             VehicleCAN_MsgRXIsr();
 191              		.loc 1 566 0
 192 0028 FFF7FEFF 		bl	VehicleCAN_MsgRXIsr
 193              	.LVL13:
 194              	.L15:
 195 002c 08BD     		pop	{r3, pc}
 196              	.L21:
 197 002e 00BF     		.align	2
 198              	.L20:
 199 0030 00A00040 		.word	1073782784
 200              		.cfi_endproc
 201              	.LFE3:
 202              		.size	VehicleCAN_ISR, .-VehicleCAN_ISR
 203              		.text
 204              	.Letext0:
 205              		.file 2 "Generated_Source\\PSoC5\\cytypes.h"
 206              		.file 3 "Generated_Source\\PSoC5\\VehicleCAN.h"